
ttnmad_noise.elf:     file format elf32-littlearm

Sections:
Idx Name          Size      VMA       LMA       File off  Algn
  0 .isr_vector   00000138  08000000  08000000  00010000  2**0
                  CONTENTS, ALLOC, LOAD, READONLY, DATA
  1 .text         0000e7c4  08000140  08000140  00010140  2**4
                  CONTENTS, ALLOC, LOAD, READONLY, CODE
  2 .rodata       00000704  0800e904  0800e904  0001e904  2**2
                  CONTENTS, ALLOC, LOAD, READONLY, DATA
  3 .USER_embedded_Keys 000000c0  0800f008  0800f008  0001f008  2**2
                  CONTENTS, ALLOC, LOAD, READONLY, DATA
  4 .ARM.extab    00000000  0800f0c8  0800f0c8  00020188  2**0
                  CONTENTS
  5 .ARM          00000008  0800f0c8  0800f0c8  0001f0c8  2**2
                  CONTENTS, ALLOC, LOAD, READONLY, DATA
  6 .preinit_array 00000000  0800f0d0  0800f0d0  00020188  2**0
                  CONTENTS, ALLOC, LOAD, DATA
  7 .init_array   00000004  0800f0d0  0800f0d0  0001f0d0  2**2
                  CONTENTS, ALLOC, LOAD, DATA
  8 .fini_array   00000004  0800f0d4  0800f0d4  0001f0d4  2**2
                  CONTENTS, ALLOC, LOAD, DATA
  9 .data         00000188  20000000  0800f0d8  00020000  2**2
                  CONTENTS, ALLOC, LOAD, DATA
 10 .bss          00001f2c  20000188  0800f260  00020188  2**2
                  ALLOC
 11 ._user_heap_stack 00000604  200020b4  0800f260  000220b4  2**0
                  ALLOC
 12 .ARM.attributes 0000002a  00000000  00000000  00020188  2**0
                  CONTENTS, READONLY
 13 .comment      00000050  00000000  00000000  000201b2  2**0
                  CONTENTS, READONLY
 14 .debug_frame  00000708  00000000  00000000  00020204  2**2
                  CONTENTS, READONLY, DEBUGGING, OCTETS

Disassembly of section .text:

08000140 <__do_global_dtors_aux>:
 8000140:	b510      	push	{r4, lr}
 8000142:	4c05      	ldr	r4, [pc, #20]	; (8000158 <__do_global_dtors_aux+0x18>)
 8000144:	7823      	ldrb	r3, [r4, #0]
 8000146:	b933      	cbnz	r3, 8000156 <__do_global_dtors_aux+0x16>
 8000148:	4b04      	ldr	r3, [pc, #16]	; (800015c <__do_global_dtors_aux+0x1c>)
 800014a:	b113      	cbz	r3, 8000152 <__do_global_dtors_aux+0x12>
 800014c:	4804      	ldr	r0, [pc, #16]	; (8000160 <__do_global_dtors_aux+0x20>)
 800014e:	f3af 8000 	nop.w
 8000152:	2301      	movs	r3, #1
 8000154:	7023      	strb	r3, [r4, #0]
 8000156:	bd10      	pop	{r4, pc}
 8000158:	20000188 	.word	0x20000188
 800015c:	00000000 	.word	0x00000000
 8000160:	0800e8ec 	.word	0x0800e8ec

08000164 <frame_dummy>:
 8000164:	b508      	push	{r3, lr}
 8000166:	4b03      	ldr	r3, [pc, #12]	; (8000174 <frame_dummy+0x10>)
 8000168:	b11b      	cbz	r3, 8000172 <frame_dummy+0xe>
 800016a:	4903      	ldr	r1, [pc, #12]	; (8000178 <frame_dummy+0x14>)
 800016c:	4803      	ldr	r0, [pc, #12]	; (800017c <frame_dummy+0x18>)
 800016e:	f3af 8000 	nop.w
 8000172:	bd08      	pop	{r3, pc}
 8000174:	00000000 	.word	0x00000000
 8000178:	2000018c 	.word	0x2000018c
 800017c:	0800e8ec 	.word	0x0800e8ec

08000180 <strlen>:
 8000180:	4603      	mov	r3, r0
 8000182:	f813 2b01 	ldrb.w	r2, [r3], #1
 8000186:	2a00      	cmp	r2, #0
 8000188:	d1fb      	bne.n	8000182 <strlen+0x2>
 800018a:	1a18      	subs	r0, r3, r0
 800018c:	3801      	subs	r0, #1
 800018e:	4770      	bx	lr

08000190 <memchr>:
 8000190:	f001 01ff 	and.w	r1, r1, #255	; 0xff
 8000194:	2a10      	cmp	r2, #16
 8000196:	db2b      	blt.n	80001f0 <memchr+0x60>
 8000198:	f010 0f07 	tst.w	r0, #7
 800019c:	d008      	beq.n	80001b0 <memchr+0x20>
 800019e:	f810 3b01 	ldrb.w	r3, [r0], #1
 80001a2:	3a01      	subs	r2, #1
 80001a4:	428b      	cmp	r3, r1
 80001a6:	d02d      	beq.n	8000204 <memchr+0x74>
 80001a8:	f010 0f07 	tst.w	r0, #7
 80001ac:	b342      	cbz	r2, 8000200 <memchr+0x70>
 80001ae:	d1f6      	bne.n	800019e <memchr+0xe>
 80001b0:	b4f0      	push	{r4, r5, r6, r7}
 80001b2:	ea41 2101 	orr.w	r1, r1, r1, lsl #8
 80001b6:	ea41 4101 	orr.w	r1, r1, r1, lsl #16
 80001ba:	f022 0407 	bic.w	r4, r2, #7
 80001be:	f07f 0700 	mvns.w	r7, #0
 80001c2:	2300      	movs	r3, #0
 80001c4:	e8f0 5602 	ldrd	r5, r6, [r0], #8
 80001c8:	3c08      	subs	r4, #8
 80001ca:	ea85 0501 	eor.w	r5, r5, r1
 80001ce:	ea86 0601 	eor.w	r6, r6, r1
 80001d2:	fa85 f547 	uadd8	r5, r5, r7
 80001d6:	faa3 f587 	sel	r5, r3, r7
 80001da:	fa86 f647 	uadd8	r6, r6, r7
 80001de:	faa5 f687 	sel	r6, r5, r7
 80001e2:	b98e      	cbnz	r6, 8000208 <memchr+0x78>
 80001e4:	d1ee      	bne.n	80001c4 <memchr+0x34>
 80001e6:	bcf0      	pop	{r4, r5, r6, r7}
 80001e8:	f001 01ff 	and.w	r1, r1, #255	; 0xff
 80001ec:	f002 0207 	and.w	r2, r2, #7
 80001f0:	b132      	cbz	r2, 8000200 <memchr+0x70>
 80001f2:	f810 3b01 	ldrb.w	r3, [r0], #1
 80001f6:	3a01      	subs	r2, #1
 80001f8:	ea83 0301 	eor.w	r3, r3, r1
 80001fc:	b113      	cbz	r3, 8000204 <memchr+0x74>
 80001fe:	d1f8      	bne.n	80001f2 <memchr+0x62>
 8000200:	2000      	movs	r0, #0
 8000202:	4770      	bx	lr
 8000204:	3801      	subs	r0, #1
 8000206:	4770      	bx	lr
 8000208:	2d00      	cmp	r5, #0
 800020a:	bf06      	itte	eq
 800020c:	4635      	moveq	r5, r6
 800020e:	3803      	subeq	r0, #3
 8000210:	3807      	subne	r0, #7
 8000212:	f015 0f01 	tst.w	r5, #1
 8000216:	d107      	bne.n	8000228 <memchr+0x98>
 8000218:	3001      	adds	r0, #1
 800021a:	f415 7f80 	tst.w	r5, #256	; 0x100
 800021e:	bf02      	ittt	eq
 8000220:	3001      	addeq	r0, #1
 8000222:	f415 3fc0 	tsteq.w	r5, #98304	; 0x18000
 8000226:	3001      	addeq	r0, #1
 8000228:	bcf0      	pop	{r4, r5, r6, r7}
 800022a:	3801      	subs	r0, #1
 800022c:	4770      	bx	lr
 800022e:	bf00      	nop

08000230 <__aeabi_drsub>:
 8000230:	f081 4100 	eor.w	r1, r1, #2147483648	; 0x80000000
 8000234:	e002      	b.n	800023c <__adddf3>
 8000236:	bf00      	nop

08000238 <__aeabi_dsub>:
 8000238:	f083 4300 	eor.w	r3, r3, #2147483648	; 0x80000000

0800023c <__adddf3>:
 800023c:	b530      	push	{r4, r5, lr}
 800023e:	ea4f 0441 	mov.w	r4, r1, lsl #1
 8000242:	ea4f 0543 	mov.w	r5, r3, lsl #1
 8000246:	ea94 0f05 	teq	r4, r5
 800024a:	bf08      	it	eq
 800024c:	ea90 0f02 	teqeq	r0, r2
 8000250:	bf1f      	itttt	ne
 8000252:	ea54 0c00 	orrsne.w	ip, r4, r0
 8000256:	ea55 0c02 	orrsne.w	ip, r5, r2
 800025a:	ea7f 5c64 	mvnsne.w	ip, r4, asr #21
 800025e:	ea7f 5c65 	mvnsne.w	ip, r5, asr #21
 8000262:	f000 80e2 	beq.w	800042a <__adddf3+0x1ee>
 8000266:	ea4f 5454 	mov.w	r4, r4, lsr #21
 800026a:	ebd4 5555 	rsbs	r5, r4, r5, lsr #21
 800026e:	bfb8      	it	lt
 8000270:	426d      	neglt	r5, r5
 8000272:	dd0c      	ble.n	800028e <__adddf3+0x52>
 8000274:	442c      	add	r4, r5
 8000276:	ea80 0202 	eor.w	r2, r0, r2
 800027a:	ea81 0303 	eor.w	r3, r1, r3
 800027e:	ea82 0000 	eor.w	r0, r2, r0
 8000282:	ea83 0101 	eor.w	r1, r3, r1
 8000286:	ea80 0202 	eor.w	r2, r0, r2
 800028a:	ea81 0303 	eor.w	r3, r1, r3
 800028e:	2d36      	cmp	r5, #54	; 0x36
 8000290:	bf88      	it	hi
 8000292:	bd30      	pophi	{r4, r5, pc}
 8000294:	f011 4f00 	tst.w	r1, #2147483648	; 0x80000000
 8000298:	ea4f 3101 	mov.w	r1, r1, lsl #12
 800029c:	f44f 1c80 	mov.w	ip, #1048576	; 0x100000
 80002a0:	ea4c 3111 	orr.w	r1, ip, r1, lsr #12
 80002a4:	d002      	beq.n	80002ac <__adddf3+0x70>
 80002a6:	4240      	negs	r0, r0
 80002a8:	eb61 0141 	sbc.w	r1, r1, r1, lsl #1
 80002ac:	f013 4f00 	tst.w	r3, #2147483648	; 0x80000000
 80002b0:	ea4f 3303 	mov.w	r3, r3, lsl #12
 80002b4:	ea4c 3313 	orr.w	r3, ip, r3, lsr #12
 80002b8:	d002      	beq.n	80002c0 <__adddf3+0x84>
 80002ba:	4252      	negs	r2, r2
 80002bc:	eb63 0343 	sbc.w	r3, r3, r3, lsl #1
 80002c0:	ea94 0f05 	teq	r4, r5
 80002c4:	f000 80a7 	beq.w	8000416 <__adddf3+0x1da>
 80002c8:	f1a4 0401 	sub.w	r4, r4, #1
 80002cc:	f1d5 0e20 	rsbs	lr, r5, #32
 80002d0:	db0d      	blt.n	80002ee <__adddf3+0xb2>
 80002d2:	fa02 fc0e 	lsl.w	ip, r2, lr
 80002d6:	fa22 f205 	lsr.w	r2, r2, r5
 80002da:	1880      	adds	r0, r0, r2
 80002dc:	f141 0100 	adc.w	r1, r1, #0
 80002e0:	fa03 f20e 	lsl.w	r2, r3, lr
 80002e4:	1880      	adds	r0, r0, r2
 80002e6:	fa43 f305 	asr.w	r3, r3, r5
 80002ea:	4159      	adcs	r1, r3
 80002ec:	e00e      	b.n	800030c <__adddf3+0xd0>
 80002ee:	f1a5 0520 	sub.w	r5, r5, #32
 80002f2:	f10e 0e20 	add.w	lr, lr, #32
 80002f6:	2a01      	cmp	r2, #1
 80002f8:	fa03 fc0e 	lsl.w	ip, r3, lr
 80002fc:	bf28      	it	cs
 80002fe:	f04c 0c02 	orrcs.w	ip, ip, #2
 8000302:	fa43 f305 	asr.w	r3, r3, r5
 8000306:	18c0      	adds	r0, r0, r3
 8000308:	eb51 71e3 	adcs.w	r1, r1, r3, asr #31
 800030c:	f001 4500 	and.w	r5, r1, #2147483648	; 0x80000000
 8000310:	d507      	bpl.n	8000322 <__adddf3+0xe6>
 8000312:	f04f 0e00 	mov.w	lr, #0
 8000316:	f1dc 0c00 	rsbs	ip, ip, #0
 800031a:	eb7e 0000 	sbcs.w	r0, lr, r0
 800031e:	eb6e 0101 	sbc.w	r1, lr, r1
 8000322:	f5b1 1f80 	cmp.w	r1, #1048576	; 0x100000
 8000326:	d31b      	bcc.n	8000360 <__adddf3+0x124>
 8000328:	f5b1 1f00 	cmp.w	r1, #2097152	; 0x200000
 800032c:	d30c      	bcc.n	8000348 <__adddf3+0x10c>
 800032e:	0849      	lsrs	r1, r1, #1
 8000330:	ea5f 0030 	movs.w	r0, r0, rrx
 8000334:	ea4f 0c3c 	mov.w	ip, ip, rrx
 8000338:	f104 0401 	add.w	r4, r4, #1
 800033c:	ea4f 5244 	mov.w	r2, r4, lsl #21
 8000340:	f512 0f80 	cmn.w	r2, #4194304	; 0x400000
 8000344:	f080 809a 	bcs.w	800047c <__adddf3+0x240>
 8000348:	f1bc 4f00 	cmp.w	ip, #2147483648	; 0x80000000
 800034c:	bf08      	it	eq
 800034e:	ea5f 0c50 	movseq.w	ip, r0, lsr #1
 8000352:	f150 0000 	adcs.w	r0, r0, #0
 8000356:	eb41 5104 	adc.w	r1, r1, r4, lsl #20
 800035a:	ea41 0105 	orr.w	r1, r1, r5
 800035e:	bd30      	pop	{r4, r5, pc}
 8000360:	ea5f 0c4c 	movs.w	ip, ip, lsl #1
 8000364:	4140      	adcs	r0, r0
 8000366:	eb41 0101 	adc.w	r1, r1, r1
 800036a:	3c01      	subs	r4, #1
 800036c:	bf28      	it	cs
 800036e:	f5b1 1f80 	cmpcs.w	r1, #1048576	; 0x100000
 8000372:	d2e9      	bcs.n	8000348 <__adddf3+0x10c>
 8000374:	f091 0f00 	teq	r1, #0
 8000378:	bf04      	itt	eq
 800037a:	4601      	moveq	r1, r0
 800037c:	2000      	moveq	r0, #0
 800037e:	fab1 f381 	clz	r3, r1
 8000382:	bf08      	it	eq
 8000384:	3320      	addeq	r3, #32
 8000386:	f1a3 030b 	sub.w	r3, r3, #11
 800038a:	f1b3 0220 	subs.w	r2, r3, #32
 800038e:	da0c      	bge.n	80003aa <__adddf3+0x16e>
 8000390:	320c      	adds	r2, #12
 8000392:	dd08      	ble.n	80003a6 <__adddf3+0x16a>
 8000394:	f102 0c14 	add.w	ip, r2, #20
 8000398:	f1c2 020c 	rsb	r2, r2, #12
 800039c:	fa01 f00c 	lsl.w	r0, r1, ip
 80003a0:	fa21 f102 	lsr.w	r1, r1, r2
 80003a4:	e00c      	b.n	80003c0 <__adddf3+0x184>
 80003a6:	f102 0214 	add.w	r2, r2, #20
 80003aa:	bfd8      	it	le
 80003ac:	f1c2 0c20 	rsble	ip, r2, #32
 80003b0:	fa01 f102 	lsl.w	r1, r1, r2
 80003b4:	fa20 fc0c 	lsr.w	ip, r0, ip
 80003b8:	bfdc      	itt	le
 80003ba:	ea41 010c 	orrle.w	r1, r1, ip
 80003be:	4090      	lslle	r0, r2
 80003c0:	1ae4      	subs	r4, r4, r3
 80003c2:	bfa2      	ittt	ge
 80003c4:	eb01 5104 	addge.w	r1, r1, r4, lsl #20
 80003c8:	4329      	orrge	r1, r5
 80003ca:	bd30      	popge	{r4, r5, pc}
 80003cc:	ea6f 0404 	mvn.w	r4, r4
 80003d0:	3c1f      	subs	r4, #31
 80003d2:	da1c      	bge.n	800040e <__adddf3+0x1d2>
 80003d4:	340c      	adds	r4, #12
 80003d6:	dc0e      	bgt.n	80003f6 <__adddf3+0x1ba>
 80003d8:	f104 0414 	add.w	r4, r4, #20
 80003dc:	f1c4 0220 	rsb	r2, r4, #32
 80003e0:	fa20 f004 	lsr.w	r0, r0, r4
 80003e4:	fa01 f302 	lsl.w	r3, r1, r2
 80003e8:	ea40 0003 	orr.w	r0, r0, r3
 80003ec:	fa21 f304 	lsr.w	r3, r1, r4
 80003f0:	ea45 0103 	orr.w	r1, r5, r3
 80003f4:	bd30      	pop	{r4, r5, pc}
 80003f6:	f1c4 040c 	rsb	r4, r4, #12
 80003fa:	f1c4 0220 	rsb	r2, r4, #32
 80003fe:	fa20 f002 	lsr.w	r0, r0, r2
 8000402:	fa01 f304 	lsl.w	r3, r1, r4
 8000406:	ea40 0003 	orr.w	r0, r0, r3
 800040a:	4629      	mov	r1, r5
 800040c:	bd30      	pop	{r4, r5, pc}
 800040e:	fa21 f004 	lsr.w	r0, r1, r4
 8000412:	4629      	mov	r1, r5
 8000414:	bd30      	pop	{r4, r5, pc}
 8000416:	f094 0f00 	teq	r4, #0
 800041a:	f483 1380 	eor.w	r3, r3, #1048576	; 0x100000
 800041e:	bf06      	itte	eq
 8000420:	f481 1180 	eoreq.w	r1, r1, #1048576	; 0x100000
 8000424:	3401      	addeq	r4, #1
 8000426:	3d01      	subne	r5, #1
 8000428:	e74e      	b.n	80002c8 <__adddf3+0x8c>
 800042a:	ea7f 5c64 	mvns.w	ip, r4, asr #21
 800042e:	bf18      	it	ne
 8000430:	ea7f 5c65 	mvnsne.w	ip, r5, asr #21
 8000434:	d029      	beq.n	800048a <__adddf3+0x24e>
 8000436:	ea94 0f05 	teq	r4, r5
 800043a:	bf08      	it	eq
 800043c:	ea90 0f02 	teqeq	r0, r2
 8000440:	d005      	beq.n	800044e <__adddf3+0x212>
 8000442:	ea54 0c00 	orrs.w	ip, r4, r0
 8000446:	bf04      	itt	eq
 8000448:	4619      	moveq	r1, r3
 800044a:	4610      	moveq	r0, r2
 800044c:	bd30      	pop	{r4, r5, pc}
 800044e:	ea91 0f03 	teq	r1, r3
 8000452:	bf1e      	ittt	ne
 8000454:	2100      	movne	r1, #0
 8000456:	2000      	movne	r0, #0
 8000458:	bd30      	popne	{r4, r5, pc}
 800045a:	ea5f 5c54 	movs.w	ip, r4, lsr #21
 800045e:	d105      	bne.n	800046c <__adddf3+0x230>
 8000460:	0040      	lsls	r0, r0, #1
 8000462:	4149      	adcs	r1, r1
 8000464:	bf28      	it	cs
 8000466:	f041 4100 	orrcs.w	r1, r1, #2147483648	; 0x80000000
 800046a:	bd30      	pop	{r4, r5, pc}
 800046c:	f514 0480 	adds.w	r4, r4, #4194304	; 0x400000
 8000470:	bf3c      	itt	cc
 8000472:	f501 1180 	addcc.w	r1, r1, #1048576	; 0x100000
 8000476:	bd30      	popcc	{r4, r5, pc}
 8000478:	f001 4500 	and.w	r5, r1, #2147483648	; 0x80000000
 800047c:	f045 41fe 	orr.w	r1, r5, #2130706432	; 0x7f000000
 8000480:	f441 0170 	orr.w	r1, r1, #15728640	; 0xf00000
 8000484:	f04f 0000 	mov.w	r0, #0
 8000488:	bd30      	pop	{r4, r5, pc}
 800048a:	ea7f 5c64 	mvns.w	ip, r4, asr #21
 800048e:	bf1a      	itte	ne
 8000490:	4619      	movne	r1, r3
 8000492:	4610      	movne	r0, r2
 8000494:	ea7f 5c65 	mvnseq.w	ip, r5, asr #21
 8000498:	bf1c      	itt	ne
 800049a:	460b      	movne	r3, r1
 800049c:	4602      	movne	r2, r0
 800049e:	ea50 3401 	orrs.w	r4, r0, r1, lsl #12
 80004a2:	bf06      	itte	eq
 80004a4:	ea52 3503 	orrseq.w	r5, r2, r3, lsl #12
 80004a8:	ea91 0f03 	teqeq	r1, r3
 80004ac:	f441 2100 	orrne.w	r1, r1, #524288	; 0x80000
 80004b0:	bd30      	pop	{r4, r5, pc}
 80004b2:	bf00      	nop

080004b4 <__aeabi_ui2d>:
 80004b4:	f090 0f00 	teq	r0, #0
 80004b8:	bf04      	itt	eq
 80004ba:	2100      	moveq	r1, #0
 80004bc:	4770      	bxeq	lr
 80004be:	b530      	push	{r4, r5, lr}
 80004c0:	f44f 6480 	mov.w	r4, #1024	; 0x400
 80004c4:	f104 0432 	add.w	r4, r4, #50	; 0x32
 80004c8:	f04f 0500 	mov.w	r5, #0
 80004cc:	f04f 0100 	mov.w	r1, #0
 80004d0:	e750      	b.n	8000374 <__adddf3+0x138>
 80004d2:	bf00      	nop

080004d4 <__aeabi_i2d>:
 80004d4:	f090 0f00 	teq	r0, #0
 80004d8:	bf04      	itt	eq
 80004da:	2100      	moveq	r1, #0
 80004dc:	4770      	bxeq	lr
 80004de:	b530      	push	{r4, r5, lr}
 80004e0:	f44f 6480 	mov.w	r4, #1024	; 0x400
 80004e4:	f104 0432 	add.w	r4, r4, #50	; 0x32
 80004e8:	f010 4500 	ands.w	r5, r0, #2147483648	; 0x80000000
 80004ec:	bf48      	it	mi
 80004ee:	4240      	negmi	r0, r0
 80004f0:	f04f 0100 	mov.w	r1, #0
 80004f4:	e73e      	b.n	8000374 <__adddf3+0x138>
 80004f6:	bf00      	nop

080004f8 <__aeabi_f2d>:
 80004f8:	0042      	lsls	r2, r0, #1
 80004fa:	ea4f 01e2 	mov.w	r1, r2, asr #3
 80004fe:	ea4f 0131 	mov.w	r1, r1, rrx
 8000502:	ea4f 7002 	mov.w	r0, r2, lsl #28
 8000506:	bf1f      	itttt	ne
 8000508:	f012 437f 	andsne.w	r3, r2, #4278190080	; 0xff000000
 800050c:	f093 4f7f 	teqne	r3, #4278190080	; 0xff000000
 8000510:	f081 5160 	eorne.w	r1, r1, #939524096	; 0x38000000
 8000514:	4770      	bxne	lr
 8000516:	f032 427f 	bics.w	r2, r2, #4278190080	; 0xff000000
 800051a:	bf08      	it	eq
 800051c:	4770      	bxeq	lr
 800051e:	f093 4f7f 	teq	r3, #4278190080	; 0xff000000
 8000522:	bf04      	itt	eq
 8000524:	f441 2100 	orreq.w	r1, r1, #524288	; 0x80000
 8000528:	4770      	bxeq	lr
 800052a:	b530      	push	{r4, r5, lr}
 800052c:	f44f 7460 	mov.w	r4, #896	; 0x380
 8000530:	f001 4500 	and.w	r5, r1, #2147483648	; 0x80000000
 8000534:	f021 4100 	bic.w	r1, r1, #2147483648	; 0x80000000
 8000538:	e71c      	b.n	8000374 <__adddf3+0x138>
 800053a:	bf00      	nop

0800053c <__aeabi_ul2d>:
 800053c:	ea50 0201 	orrs.w	r2, r0, r1
 8000540:	bf08      	it	eq
 8000542:	4770      	bxeq	lr
 8000544:	b530      	push	{r4, r5, lr}
 8000546:	f04f 0500 	mov.w	r5, #0
 800054a:	e00a      	b.n	8000562 <__aeabi_l2d+0x16>

0800054c <__aeabi_l2d>:
 800054c:	ea50 0201 	orrs.w	r2, r0, r1
 8000550:	bf08      	it	eq
 8000552:	4770      	bxeq	lr
 8000554:	b530      	push	{r4, r5, lr}
 8000556:	f011 4500 	ands.w	r5, r1, #2147483648	; 0x80000000
 800055a:	d502      	bpl.n	8000562 <__aeabi_l2d+0x16>
 800055c:	4240      	negs	r0, r0
 800055e:	eb61 0141 	sbc.w	r1, r1, r1, lsl #1
 8000562:	f44f 6480 	mov.w	r4, #1024	; 0x400
 8000566:	f104 0432 	add.w	r4, r4, #50	; 0x32
 800056a:	ea5f 5c91 	movs.w	ip, r1, lsr #22
 800056e:	f43f aed8 	beq.w	8000322 <__adddf3+0xe6>
 8000572:	f04f 0203 	mov.w	r2, #3
 8000576:	ea5f 0cdc 	movs.w	ip, ip, lsr #3
 800057a:	bf18      	it	ne
 800057c:	3203      	addne	r2, #3
 800057e:	ea5f 0cdc 	movs.w	ip, ip, lsr #3
 8000582:	bf18      	it	ne
 8000584:	3203      	addne	r2, #3
 8000586:	eb02 02dc 	add.w	r2, r2, ip, lsr #3
 800058a:	f1c2 0320 	rsb	r3, r2, #32
 800058e:	fa00 fc03 	lsl.w	ip, r0, r3
 8000592:	fa20 f002 	lsr.w	r0, r0, r2
 8000596:	fa01 fe03 	lsl.w	lr, r1, r3
 800059a:	ea40 000e 	orr.w	r0, r0, lr
 800059e:	fa21 f102 	lsr.w	r1, r1, r2
 80005a2:	4414      	add	r4, r2
 80005a4:	e6bd      	b.n	8000322 <__adddf3+0xe6>
 80005a6:	bf00      	nop

080005a8 <__gedf2>:
 80005a8:	f04f 3cff 	mov.w	ip, #4294967295
 80005ac:	e006      	b.n	80005bc <__cmpdf2+0x4>
 80005ae:	bf00      	nop

080005b0 <__ledf2>:
 80005b0:	f04f 0c01 	mov.w	ip, #1
 80005b4:	e002      	b.n	80005bc <__cmpdf2+0x4>
 80005b6:	bf00      	nop

080005b8 <__cmpdf2>:
 80005b8:	f04f 0c01 	mov.w	ip, #1
 80005bc:	f84d cd04 	str.w	ip, [sp, #-4]!
 80005c0:	ea4f 0c41 	mov.w	ip, r1, lsl #1
 80005c4:	ea7f 5c6c 	mvns.w	ip, ip, asr #21
 80005c8:	ea4f 0c43 	mov.w	ip, r3, lsl #1
 80005cc:	bf18      	it	ne
 80005ce:	ea7f 5c6c 	mvnsne.w	ip, ip, asr #21
 80005d2:	d01b      	beq.n	800060c <__cmpdf2+0x54>
 80005d4:	b001      	add	sp, #4
 80005d6:	ea50 0c41 	orrs.w	ip, r0, r1, lsl #1
 80005da:	bf0c      	ite	eq
 80005dc:	ea52 0c43 	orrseq.w	ip, r2, r3, lsl #1
 80005e0:	ea91 0f03 	teqne	r1, r3
 80005e4:	bf02      	ittt	eq
 80005e6:	ea90 0f02 	teqeq	r0, r2
 80005ea:	2000      	moveq	r0, #0
 80005ec:	4770      	bxeq	lr
 80005ee:	f110 0f00 	cmn.w	r0, #0
 80005f2:	ea91 0f03 	teq	r1, r3
 80005f6:	bf58      	it	pl
 80005f8:	4299      	cmppl	r1, r3
 80005fa:	bf08      	it	eq
 80005fc:	4290      	cmpeq	r0, r2
 80005fe:	bf2c      	ite	cs
 8000600:	17d8      	asrcs	r0, r3, #31
 8000602:	ea6f 70e3 	mvncc.w	r0, r3, asr #31
 8000606:	f040 0001 	orr.w	r0, r0, #1
 800060a:	4770      	bx	lr
 800060c:	ea4f 0c41 	mov.w	ip, r1, lsl #1
 8000610:	ea7f 5c6c 	mvns.w	ip, ip, asr #21
 8000614:	d102      	bne.n	800061c <__cmpdf2+0x64>
 8000616:	ea50 3c01 	orrs.w	ip, r0, r1, lsl #12
 800061a:	d107      	bne.n	800062c <__cmpdf2+0x74>
 800061c:	ea4f 0c43 	mov.w	ip, r3, lsl #1
 8000620:	ea7f 5c6c 	mvns.w	ip, ip, asr #21
 8000624:	d1d6      	bne.n	80005d4 <__cmpdf2+0x1c>
 8000626:	ea52 3c03 	orrs.w	ip, r2, r3, lsl #12
 800062a:	d0d3      	beq.n	80005d4 <__cmpdf2+0x1c>
 800062c:	f85d 0b04 	ldr.w	r0, [sp], #4
 8000630:	4770      	bx	lr
 8000632:	bf00      	nop

08000634 <__aeabi_cdrcmple>:
 8000634:	4684      	mov	ip, r0
 8000636:	4610      	mov	r0, r2
 8000638:	4662      	mov	r2, ip
 800063a:	468c      	mov	ip, r1
 800063c:	4619      	mov	r1, r3
 800063e:	4663      	mov	r3, ip
 8000640:	e000      	b.n	8000644 <__aeabi_cdcmpeq>
 8000642:	bf00      	nop

08000644 <__aeabi_cdcmpeq>:
 8000644:	b501      	push	{r0, lr}
 8000646:	f7ff ffb7 	bl	80005b8 <__cmpdf2>
 800064a:	2800      	cmp	r0, #0
 800064c:	bf48      	it	mi
 800064e:	f110 0f00 	cmnmi.w	r0, #0
 8000652:	bd01      	pop	{r0, pc}

08000654 <__aeabi_dcmpeq>:
 8000654:	f84d ed08 	str.w	lr, [sp, #-8]!
 8000658:	f7ff fff4 	bl	8000644 <__aeabi_cdcmpeq>
 800065c:	bf0c      	ite	eq
 800065e:	2001      	moveq	r0, #1
 8000660:	2000      	movne	r0, #0
 8000662:	f85d fb08 	ldr.w	pc, [sp], #8
 8000666:	bf00      	nop

08000668 <__aeabi_dcmplt>:
 8000668:	f84d ed08 	str.w	lr, [sp, #-8]!
 800066c:	f7ff ffea 	bl	8000644 <__aeabi_cdcmpeq>
 8000670:	bf34      	ite	cc
 8000672:	2001      	movcc	r0, #1
 8000674:	2000      	movcs	r0, #0
 8000676:	f85d fb08 	ldr.w	pc, [sp], #8
 800067a:	bf00      	nop

0800067c <__aeabi_dcmple>:
 800067c:	f84d ed08 	str.w	lr, [sp, #-8]!
 8000680:	f7ff ffe0 	bl	8000644 <__aeabi_cdcmpeq>
 8000684:	bf94      	ite	ls
 8000686:	2001      	movls	r0, #1
 8000688:	2000      	movhi	r0, #0
 800068a:	f85d fb08 	ldr.w	pc, [sp], #8
 800068e:	bf00      	nop

08000690 <__aeabi_dcmpge>:
 8000690:	f84d ed08 	str.w	lr, [sp, #-8]!
 8000694:	f7ff ffce 	bl	8000634 <__aeabi_cdrcmple>
 8000698:	bf94      	ite	ls
 800069a:	2001      	movls	r0, #1
 800069c:	2000      	movhi	r0, #0
 800069e:	f85d fb08 	ldr.w	pc, [sp], #8
 80006a2:	bf00      	nop

080006a4 <__aeabi_dcmpgt>:
 80006a4:	f84d ed08 	str.w	lr, [sp, #-8]!
 80006a8:	f7ff ffc4 	bl	8000634 <__aeabi_cdrcmple>
 80006ac:	bf34      	ite	cc
 80006ae:	2001      	movcc	r0, #1
 80006b0:	2000      	movcs	r0, #0
 80006b2:	f85d fb08 	ldr.w	pc, [sp], #8
 80006b6:	bf00      	nop

080006b8 <__aeabi_d2iz>:
 80006b8:	ea4f 0241 	mov.w	r2, r1, lsl #1
 80006bc:	f512 1200 	adds.w	r2, r2, #2097152	; 0x200000
 80006c0:	d215      	bcs.n	80006ee <__aeabi_d2iz+0x36>
 80006c2:	d511      	bpl.n	80006e8 <__aeabi_d2iz+0x30>
 80006c4:	f46f 7378 	mvn.w	r3, #992	; 0x3e0
 80006c8:	ebb3 5262 	subs.w	r2, r3, r2, asr #21
 80006cc:	d912      	bls.n	80006f4 <__aeabi_d2iz+0x3c>
 80006ce:	ea4f 23c1 	mov.w	r3, r1, lsl #11
 80006d2:	f043 4300 	orr.w	r3, r3, #2147483648	; 0x80000000
 80006d6:	ea43 5350 	orr.w	r3, r3, r0, lsr #21
 80006da:	f011 4f00 	tst.w	r1, #2147483648	; 0x80000000
 80006de:	fa23 f002 	lsr.w	r0, r3, r2
 80006e2:	bf18      	it	ne
 80006e4:	4240      	negne	r0, r0
 80006e6:	4770      	bx	lr
 80006e8:	f04f 0000 	mov.w	r0, #0
 80006ec:	4770      	bx	lr
 80006ee:	ea50 3001 	orrs.w	r0, r0, r1, lsl #12
 80006f2:	d105      	bne.n	8000700 <__aeabi_d2iz+0x48>
 80006f4:	f011 4000 	ands.w	r0, r1, #2147483648	; 0x80000000
 80006f8:	bf08      	it	eq
 80006fa:	f06f 4000 	mvneq.w	r0, #2147483648	; 0x80000000
 80006fe:	4770      	bx	lr
 8000700:	f04f 0000 	mov.w	r0, #0
 8000704:	4770      	bx	lr
 8000706:	bf00      	nop

08000708 <__aeabi_frsub>:
 8000708:	f080 4000 	eor.w	r0, r0, #2147483648	; 0x80000000
 800070c:	e002      	b.n	8000714 <__addsf3>
 800070e:	bf00      	nop

08000710 <__aeabi_fsub>:
 8000710:	f081 4100 	eor.w	r1, r1, #2147483648	; 0x80000000

08000714 <__addsf3>:
 8000714:	0042      	lsls	r2, r0, #1
 8000716:	bf1f      	itttt	ne
 8000718:	ea5f 0341 	movsne.w	r3, r1, lsl #1
 800071c:	ea92 0f03 	teqne	r2, r3
 8000720:	ea7f 6c22 	mvnsne.w	ip, r2, asr #24
 8000724:	ea7f 6c23 	mvnsne.w	ip, r3, asr #24
 8000728:	d06a      	beq.n	8000800 <__addsf3+0xec>
 800072a:	ea4f 6212 	mov.w	r2, r2, lsr #24
 800072e:	ebd2 6313 	rsbs	r3, r2, r3, lsr #24
 8000732:	bfc1      	itttt	gt
 8000734:	18d2      	addgt	r2, r2, r3
 8000736:	4041      	eorgt	r1, r0
 8000738:	4048      	eorgt	r0, r1
 800073a:	4041      	eorgt	r1, r0
 800073c:	bfb8      	it	lt
 800073e:	425b      	neglt	r3, r3
 8000740:	2b19      	cmp	r3, #25
 8000742:	bf88      	it	hi
 8000744:	4770      	bxhi	lr
 8000746:	f010 4f00 	tst.w	r0, #2147483648	; 0x80000000
 800074a:	f440 0000 	orr.w	r0, r0, #8388608	; 0x800000
 800074e:	f020 407f 	bic.w	r0, r0, #4278190080	; 0xff000000
 8000752:	bf18      	it	ne
 8000754:	4240      	negne	r0, r0
 8000756:	f011 4f00 	tst.w	r1, #2147483648	; 0x80000000
 800075a:	f441 0100 	orr.w	r1, r1, #8388608	; 0x800000
 800075e:	f021 417f 	bic.w	r1, r1, #4278190080	; 0xff000000
 8000762:	bf18      	it	ne
 8000764:	4249      	negne	r1, r1
 8000766:	ea92 0f03 	teq	r2, r3
 800076a:	d03f      	beq.n	80007ec <__addsf3+0xd8>
 800076c:	f1a2 0201 	sub.w	r2, r2, #1
 8000770:	fa41 fc03 	asr.w	ip, r1, r3
 8000774:	eb10 000c 	adds.w	r0, r0, ip
 8000778:	f1c3 0320 	rsb	r3, r3, #32
 800077c:	fa01 f103 	lsl.w	r1, r1, r3
 8000780:	f000 4300 	and.w	r3, r0, #2147483648	; 0x80000000
 8000784:	d502      	bpl.n	800078c <__addsf3+0x78>
 8000786:	4249      	negs	r1, r1
 8000788:	eb60 0040 	sbc.w	r0, r0, r0, lsl #1
 800078c:	f5b0 0f00 	cmp.w	r0, #8388608	; 0x800000
 8000790:	d313      	bcc.n	80007ba <__addsf3+0xa6>
 8000792:	f1b0 7f80 	cmp.w	r0, #16777216	; 0x1000000
 8000796:	d306      	bcc.n	80007a6 <__addsf3+0x92>
 8000798:	0840      	lsrs	r0, r0, #1
 800079a:	ea4f 0131 	mov.w	r1, r1, rrx
 800079e:	f102 0201 	add.w	r2, r2, #1
 80007a2:	2afe      	cmp	r2, #254	; 0xfe
 80007a4:	d251      	bcs.n	800084a <__addsf3+0x136>
 80007a6:	f1b1 4f00 	cmp.w	r1, #2147483648	; 0x80000000
 80007aa:	eb40 50c2 	adc.w	r0, r0, r2, lsl #23
 80007ae:	bf08      	it	eq
 80007b0:	f020 0001 	biceq.w	r0, r0, #1
 80007b4:	ea40 0003 	orr.w	r0, r0, r3
 80007b8:	4770      	bx	lr
 80007ba:	0049      	lsls	r1, r1, #1
 80007bc:	eb40 0000 	adc.w	r0, r0, r0
 80007c0:	3a01      	subs	r2, #1
 80007c2:	bf28      	it	cs
 80007c4:	f5b0 0f00 	cmpcs.w	r0, #8388608	; 0x800000
 80007c8:	d2ed      	bcs.n	80007a6 <__addsf3+0x92>
 80007ca:	fab0 fc80 	clz	ip, r0
 80007ce:	f1ac 0c08 	sub.w	ip, ip, #8
 80007d2:	ebb2 020c 	subs.w	r2, r2, ip
 80007d6:	fa00 f00c 	lsl.w	r0, r0, ip
 80007da:	bfaa      	itet	ge
 80007dc:	eb00 50c2 	addge.w	r0, r0, r2, lsl #23
 80007e0:	4252      	neglt	r2, r2
 80007e2:	4318      	orrge	r0, r3
 80007e4:	bfbc      	itt	lt
 80007e6:	40d0      	lsrlt	r0, r2
 80007e8:	4318      	orrlt	r0, r3
 80007ea:	4770      	bx	lr
 80007ec:	f092 0f00 	teq	r2, #0
 80007f0:	f481 0100 	eor.w	r1, r1, #8388608	; 0x800000
 80007f4:	bf06      	itte	eq
 80007f6:	f480 0000 	eoreq.w	r0, r0, #8388608	; 0x800000
 80007fa:	3201      	addeq	r2, #1
 80007fc:	3b01      	subne	r3, #1
 80007fe:	e7b5      	b.n	800076c <__addsf3+0x58>
 8000800:	ea4f 0341 	mov.w	r3, r1, lsl #1
 8000804:	ea7f 6c22 	mvns.w	ip, r2, asr #24
 8000808:	bf18      	it	ne
 800080a:	ea7f 6c23 	mvnsne.w	ip, r3, asr #24
 800080e:	d021      	beq.n	8000854 <__addsf3+0x140>
 8000810:	ea92 0f03 	teq	r2, r3
 8000814:	d004      	beq.n	8000820 <__addsf3+0x10c>
 8000816:	f092 0f00 	teq	r2, #0
 800081a:	bf08      	it	eq
 800081c:	4608      	moveq	r0, r1
 800081e:	4770      	bx	lr
 8000820:	ea90 0f01 	teq	r0, r1
 8000824:	bf1c      	itt	ne
 8000826:	2000      	movne	r0, #0
 8000828:	4770      	bxne	lr
 800082a:	f012 4f7f 	tst.w	r2, #4278190080	; 0xff000000
 800082e:	d104      	bne.n	800083a <__addsf3+0x126>
 8000830:	0040      	lsls	r0, r0, #1
 8000832:	bf28      	it	cs
 8000834:	f040 4000 	orrcs.w	r0, r0, #2147483648	; 0x80000000
 8000838:	4770      	bx	lr
 800083a:	f112 7200 	adds.w	r2, r2, #33554432	; 0x2000000
 800083e:	bf3c      	itt	cc
 8000840:	f500 0000 	addcc.w	r0, r0, #8388608	; 0x800000
 8000844:	4770      	bxcc	lr
 8000846:	f000 4300 	and.w	r3, r0, #2147483648	; 0x80000000
 800084a:	f043 40fe 	orr.w	r0, r3, #2130706432	; 0x7f000000
 800084e:	f440 0000 	orr.w	r0, r0, #8388608	; 0x800000
 8000852:	4770      	bx	lr
 8000854:	ea7f 6222 	mvns.w	r2, r2, asr #24
 8000858:	bf16      	itet	ne
 800085a:	4608      	movne	r0, r1
 800085c:	ea7f 6323 	mvnseq.w	r3, r3, asr #24
 8000860:	4601      	movne	r1, r0
 8000862:	0242      	lsls	r2, r0, #9
 8000864:	bf06      	itte	eq
 8000866:	ea5f 2341 	movseq.w	r3, r1, lsl #9
 800086a:	ea90 0f01 	teqeq	r0, r1
 800086e:	f440 0080 	orrne.w	r0, r0, #4194304	; 0x400000
 8000872:	4770      	bx	lr

08000874 <__aeabi_ui2f>:
 8000874:	f04f 0300 	mov.w	r3, #0
 8000878:	e004      	b.n	8000884 <__aeabi_i2f+0x8>
 800087a:	bf00      	nop

0800087c <__aeabi_i2f>:
 800087c:	f010 4300 	ands.w	r3, r0, #2147483648	; 0x80000000
 8000880:	bf48      	it	mi
 8000882:	4240      	negmi	r0, r0
 8000884:	ea5f 0c00 	movs.w	ip, r0
 8000888:	bf08      	it	eq
 800088a:	4770      	bxeq	lr
 800088c:	f043 4396 	orr.w	r3, r3, #1258291200	; 0x4b000000
 8000890:	4601      	mov	r1, r0
 8000892:	f04f 0000 	mov.w	r0, #0
 8000896:	e01c      	b.n	80008d2 <__aeabi_l2f+0x2a>

08000898 <__aeabi_ul2f>:
 8000898:	ea50 0201 	orrs.w	r2, r0, r1
 800089c:	bf08      	it	eq
 800089e:	4770      	bxeq	lr
 80008a0:	f04f 0300 	mov.w	r3, #0
 80008a4:	e00a      	b.n	80008bc <__aeabi_l2f+0x14>
 80008a6:	bf00      	nop

080008a8 <__aeabi_l2f>:
 80008a8:	ea50 0201 	orrs.w	r2, r0, r1
 80008ac:	bf08      	it	eq
 80008ae:	4770      	bxeq	lr
 80008b0:	f011 4300 	ands.w	r3, r1, #2147483648	; 0x80000000
 80008b4:	d502      	bpl.n	80008bc <__aeabi_l2f+0x14>
 80008b6:	4240      	negs	r0, r0
 80008b8:	eb61 0141 	sbc.w	r1, r1, r1, lsl #1
 80008bc:	ea5f 0c01 	movs.w	ip, r1
 80008c0:	bf02      	ittt	eq
 80008c2:	4684      	moveq	ip, r0
 80008c4:	4601      	moveq	r1, r0
 80008c6:	2000      	moveq	r0, #0
 80008c8:	f043 43b6 	orr.w	r3, r3, #1526726656	; 0x5b000000
 80008cc:	bf08      	it	eq
 80008ce:	f1a3 5380 	subeq.w	r3, r3, #268435456	; 0x10000000
 80008d2:	f5a3 0300 	sub.w	r3, r3, #8388608	; 0x800000
 80008d6:	fabc f28c 	clz	r2, ip
 80008da:	3a08      	subs	r2, #8
 80008dc:	eba3 53c2 	sub.w	r3, r3, r2, lsl #23
 80008e0:	db10      	blt.n	8000904 <__aeabi_l2f+0x5c>
 80008e2:	fa01 fc02 	lsl.w	ip, r1, r2
 80008e6:	4463      	add	r3, ip
 80008e8:	fa00 fc02 	lsl.w	ip, r0, r2
 80008ec:	f1c2 0220 	rsb	r2, r2, #32
 80008f0:	f1bc 4f00 	cmp.w	ip, #2147483648	; 0x80000000
 80008f4:	fa20 f202 	lsr.w	r2, r0, r2
 80008f8:	eb43 0002 	adc.w	r0, r3, r2
 80008fc:	bf08      	it	eq
 80008fe:	f020 0001 	biceq.w	r0, r0, #1
 8000902:	4770      	bx	lr
 8000904:	f102 0220 	add.w	r2, r2, #32
 8000908:	fa01 fc02 	lsl.w	ip, r1, r2
 800090c:	f1c2 0220 	rsb	r2, r2, #32
 8000910:	ea50 004c 	orrs.w	r0, r0, ip, lsl #1
 8000914:	fa21 f202 	lsr.w	r2, r1, r2
 8000918:	eb43 0002 	adc.w	r0, r3, r2
 800091c:	bf08      	it	eq
 800091e:	ea20 70dc 	biceq.w	r0, r0, ip, lsr #31
 8000922:	4770      	bx	lr

08000924 <__aeabi_f2iz>:
 8000924:	ea4f 0240 	mov.w	r2, r0, lsl #1
 8000928:	f1b2 4ffe 	cmp.w	r2, #2130706432	; 0x7f000000
 800092c:	d30f      	bcc.n	800094e <__aeabi_f2iz+0x2a>
 800092e:	f04f 039e 	mov.w	r3, #158	; 0x9e
 8000932:	ebb3 6212 	subs.w	r2, r3, r2, lsr #24
 8000936:	d90d      	bls.n	8000954 <__aeabi_f2iz+0x30>
 8000938:	ea4f 2300 	mov.w	r3, r0, lsl #8
 800093c:	f043 4300 	orr.w	r3, r3, #2147483648	; 0x80000000
 8000940:	f010 4f00 	tst.w	r0, #2147483648	; 0x80000000
 8000944:	fa23 f002 	lsr.w	r0, r3, r2
 8000948:	bf18      	it	ne
 800094a:	4240      	negne	r0, r0
 800094c:	4770      	bx	lr
 800094e:	f04f 0000 	mov.w	r0, #0
 8000952:	4770      	bx	lr
 8000954:	f112 0f61 	cmn.w	r2, #97	; 0x61
 8000958:	d101      	bne.n	800095e <__aeabi_f2iz+0x3a>
 800095a:	0242      	lsls	r2, r0, #9
 800095c:	d105      	bne.n	800096a <__aeabi_f2iz+0x46>
 800095e:	f010 4000 	ands.w	r0, r0, #2147483648	; 0x80000000
 8000962:	bf08      	it	eq
 8000964:	f06f 4000 	mvneq.w	r0, #2147483648	; 0x80000000
 8000968:	4770      	bx	lr
 800096a:	f04f 0000 	mov.w	r0, #0
 800096e:	4770      	bx	lr

08000970 <__aeabi_uldivmod>:
 8000970:	b953      	cbnz	r3, 8000988 <__aeabi_uldivmod+0x18>
 8000972:	b94a      	cbnz	r2, 8000988 <__aeabi_uldivmod+0x18>
 8000974:	2900      	cmp	r1, #0
 8000976:	bf08      	it	eq
 8000978:	2800      	cmpeq	r0, #0
 800097a:	bf1c      	itt	ne
 800097c:	f04f 31ff 	movne.w	r1, #4294967295
 8000980:	f04f 30ff 	movne.w	r0, #4294967295
 8000984:	f000 b974 	b.w	8000c70 <__aeabi_idiv0>
 8000988:	f1ad 0c08 	sub.w	ip, sp, #8
 800098c:	e96d ce04 	strd	ip, lr, [sp, #-16]!
 8000990:	f000 f806 	bl	80009a0 <__udivmoddi4>
 8000994:	f8dd e004 	ldr.w	lr, [sp, #4]
 8000998:	e9dd 2302 	ldrd	r2, r3, [sp, #8]
 800099c:	b004      	add	sp, #16
 800099e:	4770      	bx	lr

080009a0 <__udivmoddi4>:
 80009a0:	e92d 47f0 	stmdb	sp!, {r4, r5, r6, r7, r8, r9, sl, lr}
 80009a4:	9e08      	ldr	r6, [sp, #32]
 80009a6:	460d      	mov	r5, r1
 80009a8:	4604      	mov	r4, r0
 80009aa:	4688      	mov	r8, r1
 80009ac:	2b00      	cmp	r3, #0
 80009ae:	d14d      	bne.n	8000a4c <__udivmoddi4+0xac>
 80009b0:	428a      	cmp	r2, r1
 80009b2:	4694      	mov	ip, r2
 80009b4:	d968      	bls.n	8000a88 <__udivmoddi4+0xe8>
 80009b6:	fab2 f282 	clz	r2, r2
 80009ba:	b152      	cbz	r2, 80009d2 <__udivmoddi4+0x32>
 80009bc:	fa01 f302 	lsl.w	r3, r1, r2
 80009c0:	f1c2 0120 	rsb	r1, r2, #32
 80009c4:	fa20 f101 	lsr.w	r1, r0, r1
 80009c8:	fa0c fc02 	lsl.w	ip, ip, r2
 80009cc:	ea41 0803 	orr.w	r8, r1, r3
 80009d0:	4094      	lsls	r4, r2
 80009d2:	ea4f 451c 	mov.w	r5, ip, lsr #16
 80009d6:	0c21      	lsrs	r1, r4, #16
 80009d8:	fbb8 fef5 	udiv	lr, r8, r5
 80009dc:	fa1f f78c 	uxth.w	r7, ip
 80009e0:	fb05 831e 	mls	r3, r5, lr, r8
 80009e4:	ea41 4303 	orr.w	r3, r1, r3, lsl #16
 80009e8:	fb0e f107 	mul.w	r1, lr, r7
 80009ec:	4299      	cmp	r1, r3
 80009ee:	d90b      	bls.n	8000a08 <__udivmoddi4+0x68>
 80009f0:	eb1c 0303 	adds.w	r3, ip, r3
 80009f4:	f10e 30ff 	add.w	r0, lr, #4294967295
 80009f8:	f080 811e 	bcs.w	8000c38 <__udivmoddi4+0x298>
 80009fc:	4299      	cmp	r1, r3
 80009fe:	f240 811b 	bls.w	8000c38 <__udivmoddi4+0x298>
 8000a02:	f1ae 0e02 	sub.w	lr, lr, #2
 8000a06:	4463      	add	r3, ip
 8000a08:	1a5b      	subs	r3, r3, r1
 8000a0a:	b2a4      	uxth	r4, r4
 8000a0c:	fbb3 f0f5 	udiv	r0, r3, r5
 8000a10:	fb05 3310 	mls	r3, r5, r0, r3
 8000a14:	ea44 4403 	orr.w	r4, r4, r3, lsl #16
 8000a18:	fb00 f707 	mul.w	r7, r0, r7
 8000a1c:	42a7      	cmp	r7, r4
 8000a1e:	d90a      	bls.n	8000a36 <__udivmoddi4+0x96>
 8000a20:	eb1c 0404 	adds.w	r4, ip, r4
 8000a24:	f100 33ff 	add.w	r3, r0, #4294967295
 8000a28:	f080 8108 	bcs.w	8000c3c <__udivmoddi4+0x29c>
 8000a2c:	42a7      	cmp	r7, r4
 8000a2e:	f240 8105 	bls.w	8000c3c <__udivmoddi4+0x29c>
 8000a32:	4464      	add	r4, ip
 8000a34:	3802      	subs	r0, #2
 8000a36:	1be4      	subs	r4, r4, r7
 8000a38:	ea40 400e 	orr.w	r0, r0, lr, lsl #16
 8000a3c:	2100      	movs	r1, #0
 8000a3e:	b11e      	cbz	r6, 8000a48 <__udivmoddi4+0xa8>
 8000a40:	40d4      	lsrs	r4, r2
 8000a42:	2300      	movs	r3, #0
 8000a44:	e9c6 4300 	strd	r4, r3, [r6]
 8000a48:	e8bd 87f0 	ldmia.w	sp!, {r4, r5, r6, r7, r8, r9, sl, pc}
 8000a4c:	428b      	cmp	r3, r1
 8000a4e:	d908      	bls.n	8000a62 <__udivmoddi4+0xc2>
 8000a50:	2e00      	cmp	r6, #0
 8000a52:	f000 80ee 	beq.w	8000c32 <__udivmoddi4+0x292>
 8000a56:	2100      	movs	r1, #0
 8000a58:	e9c6 0500 	strd	r0, r5, [r6]
 8000a5c:	4608      	mov	r0, r1
 8000a5e:	e8bd 87f0 	ldmia.w	sp!, {r4, r5, r6, r7, r8, r9, sl, pc}
 8000a62:	fab3 f183 	clz	r1, r3
 8000a66:	2900      	cmp	r1, #0
 8000a68:	d14a      	bne.n	8000b00 <__udivmoddi4+0x160>
 8000a6a:	42ab      	cmp	r3, r5
 8000a6c:	d302      	bcc.n	8000a74 <__udivmoddi4+0xd4>
 8000a6e:	4282      	cmp	r2, r0
 8000a70:	f200 80f9 	bhi.w	8000c66 <__udivmoddi4+0x2c6>
 8000a74:	1a84      	subs	r4, r0, r2
 8000a76:	eb65 0303 	sbc.w	r3, r5, r3
 8000a7a:	2001      	movs	r0, #1
 8000a7c:	4698      	mov	r8, r3
 8000a7e:	2e00      	cmp	r6, #0
 8000a80:	d0e2      	beq.n	8000a48 <__udivmoddi4+0xa8>
 8000a82:	e9c6 4800 	strd	r4, r8, [r6]
 8000a86:	e7df      	b.n	8000a48 <__udivmoddi4+0xa8>
 8000a88:	b902      	cbnz	r2, 8000a8c <__udivmoddi4+0xec>
 8000a8a:	deff      	udf	#255	; 0xff
 8000a8c:	fab2 f282 	clz	r2, r2
 8000a90:	2a00      	cmp	r2, #0
 8000a92:	f040 8091 	bne.w	8000bb8 <__udivmoddi4+0x218>
 8000a96:	eba1 050c 	sub.w	r5, r1, ip
 8000a9a:	ea4f 471c 	mov.w	r7, ip, lsr #16
 8000a9e:	fa1f fe8c 	uxth.w	lr, ip
 8000aa2:	2101      	movs	r1, #1
 8000aa4:	fbb5 f3f7 	udiv	r3, r5, r7
 8000aa8:	fb07 5013 	mls	r0, r7, r3, r5
 8000aac:	0c25      	lsrs	r5, r4, #16
 8000aae:	ea45 4500 	orr.w	r5, r5, r0, lsl #16
 8000ab2:	fb0e f003 	mul.w	r0, lr, r3
 8000ab6:	42a8      	cmp	r0, r5
 8000ab8:	d908      	bls.n	8000acc <__udivmoddi4+0x12c>
 8000aba:	eb1c 0505 	adds.w	r5, ip, r5
 8000abe:	f103 38ff 	add.w	r8, r3, #4294967295
 8000ac2:	d202      	bcs.n	8000aca <__udivmoddi4+0x12a>
 8000ac4:	42a8      	cmp	r0, r5
 8000ac6:	f200 80cb 	bhi.w	8000c60 <__udivmoddi4+0x2c0>
 8000aca:	4643      	mov	r3, r8
 8000acc:	1a2d      	subs	r5, r5, r0
 8000ace:	b2a4      	uxth	r4, r4
 8000ad0:	fbb5 f0f7 	udiv	r0, r5, r7
 8000ad4:	fb07 5510 	mls	r5, r7, r0, r5
 8000ad8:	ea44 4405 	orr.w	r4, r4, r5, lsl #16
 8000adc:	fb0e fe00 	mul.w	lr, lr, r0
 8000ae0:	45a6      	cmp	lr, r4
 8000ae2:	d908      	bls.n	8000af6 <__udivmoddi4+0x156>
 8000ae4:	eb1c 0404 	adds.w	r4, ip, r4
 8000ae8:	f100 35ff 	add.w	r5, r0, #4294967295
 8000aec:	d202      	bcs.n	8000af4 <__udivmoddi4+0x154>
 8000aee:	45a6      	cmp	lr, r4
 8000af0:	f200 80bb 	bhi.w	8000c6a <__udivmoddi4+0x2ca>
 8000af4:	4628      	mov	r0, r5
 8000af6:	eba4 040e 	sub.w	r4, r4, lr
 8000afa:	ea40 4003 	orr.w	r0, r0, r3, lsl #16
 8000afe:	e79e      	b.n	8000a3e <__udivmoddi4+0x9e>
 8000b00:	f1c1 0720 	rsb	r7, r1, #32
 8000b04:	408b      	lsls	r3, r1
 8000b06:	fa22 fc07 	lsr.w	ip, r2, r7
 8000b0a:	ea4c 0c03 	orr.w	ip, ip, r3
 8000b0e:	fa20 f407 	lsr.w	r4, r0, r7
 8000b12:	fa05 f301 	lsl.w	r3, r5, r1
 8000b16:	431c      	orrs	r4, r3
 8000b18:	40fd      	lsrs	r5, r7
 8000b1a:	ea4f 491c 	mov.w	r9, ip, lsr #16
 8000b1e:	fa00 f301 	lsl.w	r3, r0, r1
 8000b22:	fbb5 f8f9 	udiv	r8, r5, r9
 8000b26:	0c20      	lsrs	r0, r4, #16
 8000b28:	fa1f fe8c 	uxth.w	lr, ip
 8000b2c:	fb09 5518 	mls	r5, r9, r8, r5
 8000b30:	ea40 4505 	orr.w	r5, r0, r5, lsl #16
 8000b34:	fb08 f00e 	mul.w	r0, r8, lr
 8000b38:	42a8      	cmp	r0, r5
 8000b3a:	fa02 f201 	lsl.w	r2, r2, r1
 8000b3e:	d90b      	bls.n	8000b58 <__udivmoddi4+0x1b8>
 8000b40:	eb1c 0505 	adds.w	r5, ip, r5
 8000b44:	f108 3aff 	add.w	sl, r8, #4294967295
 8000b48:	f080 8088 	bcs.w	8000c5c <__udivmoddi4+0x2bc>
 8000b4c:	42a8      	cmp	r0, r5
 8000b4e:	f240 8085 	bls.w	8000c5c <__udivmoddi4+0x2bc>
 8000b52:	f1a8 0802 	sub.w	r8, r8, #2
 8000b56:	4465      	add	r5, ip
 8000b58:	1a2d      	subs	r5, r5, r0
 8000b5a:	b2a4      	uxth	r4, r4
 8000b5c:	fbb5 f0f9 	udiv	r0, r5, r9
 8000b60:	fb09 5510 	mls	r5, r9, r0, r5
 8000b64:	ea44 4505 	orr.w	r5, r4, r5, lsl #16
 8000b68:	fb00 fe0e 	mul.w	lr, r0, lr
 8000b6c:	45ae      	cmp	lr, r5
 8000b6e:	d908      	bls.n	8000b82 <__udivmoddi4+0x1e2>
 8000b70:	eb1c 0505 	adds.w	r5, ip, r5
 8000b74:	f100 34ff 	add.w	r4, r0, #4294967295
 8000b78:	d26c      	bcs.n	8000c54 <__udivmoddi4+0x2b4>
 8000b7a:	45ae      	cmp	lr, r5
 8000b7c:	d96a      	bls.n	8000c54 <__udivmoddi4+0x2b4>
 8000b7e:	3802      	subs	r0, #2
 8000b80:	4465      	add	r5, ip
 8000b82:	ea40 4008 	orr.w	r0, r0, r8, lsl #16
 8000b86:	fba0 9402 	umull	r9, r4, r0, r2
 8000b8a:	eba5 050e 	sub.w	r5, r5, lr
 8000b8e:	42a5      	cmp	r5, r4
 8000b90:	46c8      	mov	r8, r9
 8000b92:	46a6      	mov	lr, r4
 8000b94:	d356      	bcc.n	8000c44 <__udivmoddi4+0x2a4>
 8000b96:	d053      	beq.n	8000c40 <__udivmoddi4+0x2a0>
 8000b98:	b15e      	cbz	r6, 8000bb2 <__udivmoddi4+0x212>
 8000b9a:	ebb3 0208 	subs.w	r2, r3, r8
 8000b9e:	eb65 050e 	sbc.w	r5, r5, lr
 8000ba2:	fa05 f707 	lsl.w	r7, r5, r7
 8000ba6:	fa22 f301 	lsr.w	r3, r2, r1
 8000baa:	40cd      	lsrs	r5, r1
 8000bac:	431f      	orrs	r7, r3
 8000bae:	e9c6 7500 	strd	r7, r5, [r6]
 8000bb2:	2100      	movs	r1, #0
 8000bb4:	e8bd 87f0 	ldmia.w	sp!, {r4, r5, r6, r7, r8, r9, sl, pc}
 8000bb8:	f1c2 0320 	rsb	r3, r2, #32
 8000bbc:	fa20 f103 	lsr.w	r1, r0, r3
 8000bc0:	fa0c fc02 	lsl.w	ip, ip, r2
 8000bc4:	fa25 f303 	lsr.w	r3, r5, r3
 8000bc8:	4095      	lsls	r5, r2
 8000bca:	430d      	orrs	r5, r1
 8000bcc:	ea4f 471c 	mov.w	r7, ip, lsr #16
 8000bd0:	fa1f fe8c 	uxth.w	lr, ip
 8000bd4:	fbb3 f1f7 	udiv	r1, r3, r7
 8000bd8:	fb07 3011 	mls	r0, r7, r1, r3
 8000bdc:	0c2b      	lsrs	r3, r5, #16
 8000bde:	ea43 4300 	orr.w	r3, r3, r0, lsl #16
 8000be2:	fb01 f00e 	mul.w	r0, r1, lr
 8000be6:	4298      	cmp	r0, r3
 8000be8:	fa04 f402 	lsl.w	r4, r4, r2
 8000bec:	d908      	bls.n	8000c00 <__udivmoddi4+0x260>
 8000bee:	eb1c 0303 	adds.w	r3, ip, r3
 8000bf2:	f101 38ff 	add.w	r8, r1, #4294967295
 8000bf6:	d22f      	bcs.n	8000c58 <__udivmoddi4+0x2b8>
 8000bf8:	4298      	cmp	r0, r3
 8000bfa:	d92d      	bls.n	8000c58 <__udivmoddi4+0x2b8>
 8000bfc:	3902      	subs	r1, #2
 8000bfe:	4463      	add	r3, ip
 8000c00:	1a1b      	subs	r3, r3, r0
 8000c02:	b2ad      	uxth	r5, r5
 8000c04:	fbb3 f0f7 	udiv	r0, r3, r7
 8000c08:	fb07 3310 	mls	r3, r7, r0, r3
 8000c0c:	ea45 4503 	orr.w	r5, r5, r3, lsl #16
 8000c10:	fb00 f30e 	mul.w	r3, r0, lr
 8000c14:	42ab      	cmp	r3, r5
 8000c16:	d908      	bls.n	8000c2a <__udivmoddi4+0x28a>
 8000c18:	eb1c 0505 	adds.w	r5, ip, r5
 8000c1c:	f100 38ff 	add.w	r8, r0, #4294967295
 8000c20:	d216      	bcs.n	8000c50 <__udivmoddi4+0x2b0>
 8000c22:	42ab      	cmp	r3, r5
 8000c24:	d914      	bls.n	8000c50 <__udivmoddi4+0x2b0>
 8000c26:	3802      	subs	r0, #2
 8000c28:	4465      	add	r5, ip
 8000c2a:	1aed      	subs	r5, r5, r3
 8000c2c:	ea40 4101 	orr.w	r1, r0, r1, lsl #16
 8000c30:	e738      	b.n	8000aa4 <__udivmoddi4+0x104>
 8000c32:	4631      	mov	r1, r6
 8000c34:	4630      	mov	r0, r6
 8000c36:	e707      	b.n	8000a48 <__udivmoddi4+0xa8>
 8000c38:	4686      	mov	lr, r0
 8000c3a:	e6e5      	b.n	8000a08 <__udivmoddi4+0x68>
 8000c3c:	4618      	mov	r0, r3
 8000c3e:	e6fa      	b.n	8000a36 <__udivmoddi4+0x96>
 8000c40:	454b      	cmp	r3, r9
 8000c42:	d2a9      	bcs.n	8000b98 <__udivmoddi4+0x1f8>
 8000c44:	ebb9 0802 	subs.w	r8, r9, r2
 8000c48:	eb64 0e0c 	sbc.w	lr, r4, ip
 8000c4c:	3801      	subs	r0, #1
 8000c4e:	e7a3      	b.n	8000b98 <__udivmoddi4+0x1f8>
 8000c50:	4640      	mov	r0, r8
 8000c52:	e7ea      	b.n	8000c2a <__udivmoddi4+0x28a>
 8000c54:	4620      	mov	r0, r4
 8000c56:	e794      	b.n	8000b82 <__udivmoddi4+0x1e2>
 8000c58:	4641      	mov	r1, r8
 8000c5a:	e7d1      	b.n	8000c00 <__udivmoddi4+0x260>
 8000c5c:	46d0      	mov	r8, sl
 8000c5e:	e77b      	b.n	8000b58 <__udivmoddi4+0x1b8>
 8000c60:	3b02      	subs	r3, #2
 8000c62:	4465      	add	r5, ip
 8000c64:	e732      	b.n	8000acc <__udivmoddi4+0x12c>
 8000c66:	4608      	mov	r0, r1
 8000c68:	e709      	b.n	8000a7e <__udivmoddi4+0xde>
 8000c6a:	4464      	add	r4, ip
 8000c6c:	3802      	subs	r0, #2
 8000c6e:	e742      	b.n	8000af6 <__udivmoddi4+0x156>

08000c70 <__aeabi_idiv0>:
 8000c70:	4770      	bx	lr
 8000c72:	bf00      	nop

08000c74 <MX_ADC_Init>:
 8000c74:	4814      	ldr	r0, [pc, #80]	; (8000cc8 <MX_ADC_Init+0x54>)
 8000c76:	4a15      	ldr	r2, [pc, #84]	; (8000ccc <MX_ADC_Init+0x58>)
 8000c78:	b508      	push	{r3, lr}
 8000c7a:	f04f 4300 	mov.w	r3, #2147483648	; 0x80000000
 8000c7e:	e9c0 2300 	strd	r2, r3, [r0]
 8000c82:	2204      	movs	r2, #4
 8000c84:	6142      	str	r2, [r0, #20]
 8000c86:	f240 1201 	movw	r2, #257	; 0x101
 8000c8a:	8302      	strh	r2, [r0, #24]
 8000c8c:	2201      	movs	r2, #1
 8000c8e:	2300      	movs	r3, #0
 8000c90:	61c2      	str	r2, [r0, #28]
 8000c92:	f44f 5280 	mov.w	r2, #4096	; 0x1000
 8000c96:	e9c0 3302 	strd	r3, r3, [r0, #8]
 8000c9a:	e9c0 3309 	strd	r3, r3, [r0, #36]	; 0x24
 8000c9e:	e9c0 230c 	strd	r2, r3, [r0, #48]	; 0x30
 8000ca2:	6103      	str	r3, [r0, #16]
 8000ca4:	7683      	strb	r3, [r0, #26]
 8000ca6:	f880 3020 	strb.w	r3, [r0, #32]
 8000caa:	f880 302c 	strb.w	r3, [r0, #44]	; 0x2c
 8000cae:	6383      	str	r3, [r0, #56]	; 0x38
 8000cb0:	f880 303c 	strb.w	r3, [r0, #60]	; 0x3c
 8000cb4:	64c3      	str	r3, [r0, #76]	; 0x4c
 8000cb6:	f000 ff49 	bl	8001b4c <HAL_ADC_Init>
 8000cba:	b118      	cbz	r0, 8000cc4 <MX_ADC_Init+0x50>
 8000cbc:	e8bd 4008 	ldmia.w	sp!, {r3, lr}
 8000cc0:	f000 ba94 	b.w	80011ec <Error_Handler>
 8000cc4:	bd08      	pop	{r3, pc}
 8000cc6:	bf00      	nop
 8000cc8:	200001a4 	.word	0x200001a4
 8000ccc:	40012400 	.word	0x40012400

08000cd0 <HAL_ADC_MspInit>:
 8000cd0:	6802      	ldr	r2, [r0, #0]
 8000cd2:	4b08      	ldr	r3, [pc, #32]	; (8000cf4 <HAL_ADC_MspInit+0x24>)
 8000cd4:	429a      	cmp	r2, r3
 8000cd6:	b082      	sub	sp, #8
 8000cd8:	d10a      	bne.n	8000cf0 <HAL_ADC_MspInit+0x20>
 8000cda:	f04f 43b0 	mov.w	r3, #1476395008	; 0x58000000
 8000cde:	6e1a      	ldr	r2, [r3, #96]	; 0x60
 8000ce0:	f442 7200 	orr.w	r2, r2, #512	; 0x200
 8000ce4:	661a      	str	r2, [r3, #96]	; 0x60
 8000ce6:	6e1b      	ldr	r3, [r3, #96]	; 0x60
 8000ce8:	f403 7300 	and.w	r3, r3, #512	; 0x200
 8000cec:	9301      	str	r3, [sp, #4]
 8000cee:	9b01      	ldr	r3, [sp, #4]
 8000cf0:	b002      	add	sp, #8
 8000cf2:	4770      	bx	lr
 8000cf4:	40012400 	.word	0x40012400

08000cf8 <HAL_ADC_MspDeInit>:
 8000cf8:	6802      	ldr	r2, [r0, #0]
 8000cfa:	4b05      	ldr	r3, [pc, #20]	; (8000d10 <HAL_ADC_MspDeInit+0x18>)
 8000cfc:	429a      	cmp	r2, r3
 8000cfe:	bf01      	itttt	eq
 8000d00:	f04f 42b0 	moveq.w	r2, #1476395008	; 0x58000000
 8000d04:	6e13      	ldreq	r3, [r2, #96]	; 0x60
 8000d06:	f423 7300 	biceq.w	r3, r3, #512	; 0x200
 8000d0a:	6613      	streq	r3, [r2, #96]	; 0x60
 8000d0c:	4770      	bx	lr
 8000d0e:	bf00      	nop
 8000d10:	40012400 	.word	0x40012400

08000d14 <ADC_ReadChannels>:
 8000d14:	b530      	push	{r4, r5, lr}
 8000d16:	b085      	sub	sp, #20
 8000d18:	2400      	movs	r4, #0
 8000d1a:	4605      	mov	r5, r0
 8000d1c:	e9cd 4401 	strd	r4, r4, [sp, #4]
 8000d20:	9403      	str	r4, [sp, #12]
 8000d22:	f7ff ffa7 	bl	8000c74 <MX_ADC_Init>
 8000d26:	4814      	ldr	r0, [pc, #80]	; (8000d78 <ADC_ReadChannels+0x64>)
 8000d28:	f001 fab0 	bl	800228c <HAL_ADCEx_Calibration_Start>
 8000d2c:	b108      	cbz	r0, 8000d32 <ADC_ReadChannels+0x1e>
 8000d2e:	f000 fa5d 	bl	80011ec <Error_Handler>
 8000d32:	4811      	ldr	r0, [pc, #68]	; (8000d78 <ADC_ReadChannels+0x64>)
 8000d34:	9403      	str	r4, [sp, #12]
 8000d36:	a901      	add	r1, sp, #4
 8000d38:	e9cd 5401 	strd	r5, r4, [sp, #4]
 8000d3c:	f001 f872 	bl	8001e24 <HAL_ADC_ConfigChannel>
 8000d40:	b108      	cbz	r0, 8000d46 <ADC_ReadChannels+0x32>
 8000d42:	f000 fa53 	bl	80011ec <Error_Handler>
 8000d46:	480c      	ldr	r0, [pc, #48]	; (8000d78 <ADC_ReadChannels+0x64>)
 8000d48:	f001 f9d2 	bl	80020f0 <HAL_ADC_Start>
 8000d4c:	b108      	cbz	r0, 8000d52 <ADC_ReadChannels+0x3e>
 8000d4e:	f000 fa4d 	bl	80011ec <Error_Handler>
 8000d52:	f04f 31ff 	mov.w	r1, #4294967295
 8000d56:	4808      	ldr	r0, [pc, #32]	; (8000d78 <ADC_ReadChannels+0x64>)
 8000d58:	f001 f806 	bl	8001d68 <HAL_ADC_PollForConversion>
 8000d5c:	4806      	ldr	r0, [pc, #24]	; (8000d78 <ADC_ReadChannels+0x64>)
 8000d5e:	f001 fa77 	bl	8002250 <HAL_ADC_Stop>
 8000d62:	4805      	ldr	r0, [pc, #20]	; (8000d78 <ADC_ReadChannels+0x64>)
 8000d64:	f001 f85b 	bl	8001e1e <HAL_ADC_GetValue>
 8000d68:	4604      	mov	r4, r0
 8000d6a:	4803      	ldr	r0, [pc, #12]	; (8000d78 <ADC_ReadChannels+0x64>)
 8000d6c:	f001 fa22 	bl	80021b4 <HAL_ADC_DeInit>
 8000d70:	4620      	mov	r0, r4
 8000d72:	b005      	add	sp, #20
 8000d74:	bd30      	pop	{r4, r5, pc}
 8000d76:	bf00      	nop
 8000d78:	200001a4 	.word	0x200001a4

08000d7c <SYS_InitMeasurement>:
 8000d7c:	4b01      	ldr	r3, [pc, #4]	; (8000d84 <SYS_InitMeasurement+0x8>)
 8000d7e:	4a02      	ldr	r2, [pc, #8]	; (8000d88 <SYS_InitMeasurement+0xc>)
 8000d80:	601a      	str	r2, [r3, #0]
 8000d82:	4770      	bx	lr
 8000d84:	200001a4 	.word	0x200001a4
 8000d88:	40012400 	.word	0x40012400

08000d8c <SYS_GetBatteryLevel>:
 8000d8c:	b508      	push	{r3, lr}
 8000d8e:	4809      	ldr	r0, [pc, #36]	; (8000db4 <SYS_GetBatteryLevel+0x28>)
 8000d90:	f7ff ffc0 	bl	8000d14 <ADC_ReadChannels>
 8000d94:	b168      	cbz	r0, 8000db2 <SYS_GetBatteryLevel+0x26>
 8000d96:	4b08      	ldr	r3, [pc, #32]	; (8000db8 <SYS_GetBatteryLevel+0x2c>)
 8000d98:	f8b3 30aa 	ldrh.w	r3, [r3, #170]	; 0xaa
 8000d9c:	f64f 72ff 	movw	r2, #65535	; 0xffff
 8000da0:	4293      	cmp	r3, r2
 8000da2:	bf16      	itet	ne
 8000da4:	f640 42e4 	movwne	r2, #3300	; 0xce4
 8000da8:	4b04      	ldreq	r3, [pc, #16]	; (8000dbc <SYS_GetBatteryLevel+0x30>)
 8000daa:	4353      	mulne	r3, r2
 8000dac:	fbb3 f0f0 	udiv	r0, r3, r0
 8000db0:	b280      	uxth	r0, r0
 8000db2:	bd08      	pop	{r3, pc}
 8000db4:	b4002000 	.word	0xb4002000
 8000db8:	1fff7500 	.word	0x1fff7500
 8000dbc:	004c08d8 	.word	0x004c08d8

08000dc0 <SYS_GetTemperatureLevel>:
 8000dc0:	b513      	push	{r0, r1, r4, lr}
 8000dc2:	2300      	movs	r3, #0
 8000dc4:	f8ad 3006 	strh.w	r3, [sp, #6]
 8000dc8:	f7ff ffe0 	bl	8000d8c <SYS_GetBatteryLevel>
 8000dcc:	4604      	mov	r4, r0
 8000dce:	4819      	ldr	r0, [pc, #100]	; (8000e34 <SYS_GetTemperatureLevel+0x74>)
 8000dd0:	f7ff ffa0 	bl	8000d14 <ADC_ReadChannels>
 8000dd4:	4918      	ldr	r1, [pc, #96]	; (8000e38 <SYS_GetTemperatureLevel+0x78>)
 8000dd6:	f8b1 20c8 	ldrh.w	r2, [r1, #200]	; 0xc8
 8000dda:	f8b1 10a8 	ldrh.w	r1, [r1, #168]	; 0xa8
 8000dde:	428a      	cmp	r2, r1
 8000de0:	fb04 f000 	mul.w	r0, r4, r0
 8000de4:	d018      	beq.n	8000e18 <SYS_GetTemperatureLevel+0x58>
 8000de6:	f640 43e4 	movw	r3, #3300	; 0xce4
 8000dea:	fbb0 f3f3 	udiv	r3, r0, r3
 8000dee:	2064      	movs	r0, #100	; 0x64
 8000df0:	1a5b      	subs	r3, r3, r1
 8000df2:	4343      	muls	r3, r0
 8000df4:	1a52      	subs	r2, r2, r1
 8000df6:	fb93 f3f2 	sdiv	r3, r3, r2
 8000dfa:	331e      	adds	r3, #30
 8000dfc:	b21b      	sxth	r3, r3
 8000dfe:	f8ad 3006 	strh.w	r3, [sp, #6]
 8000e02:	f8bd 3006 	ldrh.w	r3, [sp, #6]
 8000e06:	b25b      	sxtb	r3, r3
 8000e08:	021b      	lsls	r3, r3, #8
 8000e0a:	f8ad 3006 	strh.w	r3, [sp, #6]
 8000e0e:	f8bd 0006 	ldrh.w	r0, [sp, #6]
 8000e12:	b200      	sxth	r0, r0
 8000e14:	b002      	add	sp, #8
 8000e16:	bd10      	pop	{r4, pc}
 8000e18:	f640 73ff 	movw	r3, #4095	; 0xfff
 8000e1c:	fbb0 f3f3 	udiv	r3, r0, r3
 8000e20:	f44f 707a 	mov.w	r0, #1000	; 0x3e8
 8000e24:	4343      	muls	r3, r0
 8000e26:	f5a3 2339 	sub.w	r3, r3, #757760	; 0xb9000
 8000e2a:	f5a3 630c 	sub.w	r3, r3, #2240	; 0x8c0
 8000e2e:	f640 12c4 	movw	r2, #2500	; 0x9c4
 8000e32:	e7e0      	b.n	8000df6 <SYS_GetTemperatureLevel+0x36>
 8000e34:	b0001000 	.word	0xb0001000
 8000e38:	1fff7500 	.word	0x1fff7500

08000e3c <MX_DMA_Init>:
 8000e3c:	f04f 43b0 	mov.w	r3, #1476395008	; 0x58000000
 8000e40:	b507      	push	{r0, r1, r2, lr}
 8000e42:	6c9a      	ldr	r2, [r3, #72]	; 0x48
 8000e44:	f042 0204 	orr.w	r2, r2, #4
 8000e48:	649a      	str	r2, [r3, #72]	; 0x48
 8000e4a:	6c9a      	ldr	r2, [r3, #72]	; 0x48
 8000e4c:	f002 0204 	and.w	r2, r2, #4
 8000e50:	9201      	str	r2, [sp, #4]
 8000e52:	9a01      	ldr	r2, [sp, #4]
 8000e54:	6c9a      	ldr	r2, [r3, #72]	; 0x48
 8000e56:	f042 0201 	orr.w	r2, r2, #1
 8000e5a:	649a      	str	r2, [r3, #72]	; 0x48
 8000e5c:	6c9b      	ldr	r3, [r3, #72]	; 0x48
 8000e5e:	f003 0301 	and.w	r3, r3, #1
 8000e62:	9300      	str	r3, [sp, #0]
 8000e64:	2200      	movs	r2, #0
 8000e66:	2102      	movs	r1, #2
 8000e68:	200b      	movs	r0, #11
 8000e6a:	9b00      	ldr	r3, [sp, #0]
 8000e6c:	f001 faac 	bl	80023c8 <HAL_NVIC_SetPriority>
 8000e70:	200b      	movs	r0, #11
 8000e72:	b003      	add	sp, #12
 8000e74:	f85d eb04 	ldr.w	lr, [sp], #4
 8000e78:	f001 bad8 	b.w	800242c <HAL_NVIC_EnableIRQ>

08000e7c <FLASH_IF_Write64>:
 8000e7c:	b5f8      	push	{r3, r4, r5, r6, r7, lr}
 8000e7e:	4f0b      	ldr	r7, [pc, #44]	; (8000eac <FLASH_IF_Write64+0x30>)
 8000e80:	4604      	mov	r4, r0
 8000e82:	4616      	mov	r6, r2
 8000e84:	461d      	mov	r5, r3
 8000e86:	e9d4 2300 	ldrd	r2, r3, [r4]
 8000e8a:	42ab      	cmp	r3, r5
 8000e8c:	bf08      	it	eq
 8000e8e:	42b2      	cmpeq	r2, r6
 8000e90:	d101      	bne.n	8000e96 <FLASH_IF_Write64+0x1a>
 8000e92:	2000      	movs	r0, #0
 8000e94:	bdf8      	pop	{r3, r4, r5, r6, r7, pc}
 8000e96:	693b      	ldr	r3, [r7, #16]
 8000e98:	031b      	lsls	r3, r3, #12
 8000e9a:	d4fc      	bmi.n	8000e96 <FLASH_IF_Write64+0x1a>
 8000e9c:	4632      	mov	r2, r6
 8000e9e:	462b      	mov	r3, r5
 8000ea0:	4621      	mov	r1, r4
 8000ea2:	2001      	movs	r0, #1
 8000ea4:	f001 fd5e 	bl	8002964 <HAL_FLASH_Program>
 8000ea8:	e7ed      	b.n	8000e86 <FLASH_IF_Write64+0xa>
 8000eaa:	bf00      	nop
 8000eac:	58004000 	.word	0x58004000

08000eb0 <FLASH_IF_Write_Buffer>:
 8000eb0:	b5f7      	push	{r0, r1, r2, r4, r5, r6, r7, lr}
 8000eb2:	f022 0507 	bic.w	r5, r2, #7
 8000eb6:	4604      	mov	r4, r0
 8000eb8:	4405      	add	r5, r0
 8000eba:	1a0e      	subs	r6, r1, r0
 8000ebc:	42ac      	cmp	r4, r5
 8000ebe:	eb06 0104 	add.w	r1, r6, r4
 8000ec2:	d101      	bne.n	8000ec8 <FLASH_IF_Write_Buffer+0x18>
 8000ec4:	2000      	movs	r0, #0
 8000ec6:	e015      	b.n	8000ef4 <FLASH_IF_Write_Buffer+0x44>
 8000ec8:	2208      	movs	r2, #8
 8000eca:	4668      	mov	r0, sp
 8000ecc:	f00c fb2e 	bl	800d52c <UTIL_MEM_cpy_8>
 8000ed0:	e9dd 2300 	ldrd	r2, r3, [sp]
 8000ed4:	f1b3 3fff 	cmp.w	r3, #4294967295
 8000ed8:	bf08      	it	eq
 8000eda:	f1b2 3fff 	cmpeq.w	r2, #4294967295
 8000ede:	f104 0708 	add.w	r7, r4, #8
 8000ee2:	d101      	bne.n	8000ee8 <FLASH_IF_Write_Buffer+0x38>
 8000ee4:	463c      	mov	r4, r7
 8000ee6:	e7e9      	b.n	8000ebc <FLASH_IF_Write_Buffer+0xc>
 8000ee8:	4620      	mov	r0, r4
 8000eea:	f7ff ffc7 	bl	8000e7c <FLASH_IF_Write64>
 8000eee:	463c      	mov	r4, r7
 8000ef0:	2800      	cmp	r0, #0
 8000ef2:	d0e3      	beq.n	8000ebc <FLASH_IF_Write_Buffer+0xc>
 8000ef4:	b003      	add	sp, #12
 8000ef6:	bdf0      	pop	{r4, r5, r6, r7, pc}

08000ef8 <FLASH_IF_EraseByPages>:
 8000ef8:	b51f      	push	{r0, r1, r2, r3, r4, lr}
 8000efa:	2302      	movs	r3, #2
 8000efc:	e9cd 3001 	strd	r3, r0, [sp, #4]
 8000f00:	9103      	str	r1, [sp, #12]
 8000f02:	b15a      	cbz	r2, 8000f1c <FLASH_IF_EraseByPages+0x24>
 8000f04:	a801      	add	r0, sp, #4
 8000f06:	f001 fdc1 	bl	8002a8c <HAL_FLASHEx_Erase_IT>
 8000f0a:	b120      	cbz	r0, 8000f16 <FLASH_IF_EraseByPages+0x1e>
 8000f0c:	2802      	cmp	r0, #2
 8000f0e:	bf0c      	ite	eq
 8000f10:	2001      	moveq	r0, #1
 8000f12:	f06f 0001 	mvnne.w	r0, #1
 8000f16:	b005      	add	sp, #20
 8000f18:	f85d fb04 	ldr.w	pc, [sp], #4
 8000f1c:	4669      	mov	r1, sp
 8000f1e:	a801      	add	r0, sp, #4
 8000f20:	f001 fd66 	bl	80029f0 <HAL_FLASHEx_Erase>
 8000f24:	e7f1      	b.n	8000f0a <FLASH_IF_EraseByPages+0x12>
	...

08000f28 <FLASH_IF_Write>:
 8000f28:	e92d 4ff7 	stmdb	sp!, {r0, r1, r2, r4, r5, r6, r7, r8, r9, sl, fp, lr}
 8000f2c:	469a      	mov	sl, r3
 8000f2e:	4b47      	ldr	r3, [pc, #284]	; (800104c <FLASH_IF_Write+0x124>)
 8000f30:	f8d3 75e0 	ldr.w	r7, [r3, #1504]	; 0x5e0
 8000f34:	4b46      	ldr	r3, [pc, #280]	; (8001050 <FLASH_IF_Write+0x128>)
 8000f36:	f100 4678 	add.w	r6, r0, #4160749568	; 0xf8000000
 8000f3a:	ea03 2787 	and.w	r7, r3, r7, lsl #10
 8000f3e:	fbb6 f3f7 	udiv	r3, r6, r7
 8000f42:	fb07 6613 	mls	r6, r7, r3, r6
 8000f46:	f102 4378 	add.w	r3, r2, #4160749568	; 0xf8000000
 8000f4a:	3b01      	subs	r3, #1
 8000f4c:	4403      	add	r3, r0
 8000f4e:	4691      	mov	r9, r2
 8000f50:	fbb3 f2f7 	udiv	r2, r3, r7
 8000f54:	fb07 3312 	mls	r3, r7, r2, r3
 8000f58:	0adb      	lsrs	r3, r3, #11
 8000f5a:	4605      	mov	r5, r0
 8000f5c:	0af6      	lsrs	r6, r6, #11
 8000f5e:	9301      	str	r3, [sp, #4]
 8000f60:	4688      	mov	r8, r1
 8000f62:	b921      	cbnz	r1, 8000f6e <FLASH_IF_Write+0x46>
 8000f64:	f06f 0004 	mvn.w	r0, #4
 8000f68:	b003      	add	sp, #12
 8000f6a:	e8bd 8ff0 	ldmia.w	sp!, {r4, r5, r6, r7, r8, r9, sl, fp, pc}
 8000f6e:	ea40 0309 	orr.w	r3, r0, r9
 8000f72:	075b      	lsls	r3, r3, #29
 8000f74:	d1f6      	bne.n	8000f64 <FLASH_IF_Write+0x3c>
 8000f76:	4b37      	ldr	r3, [pc, #220]	; (8001054 <FLASH_IF_Write+0x12c>)
 8000f78:	695b      	ldr	r3, [r3, #20]
 8000f7a:	2b00      	cmp	r3, #0
 8000f7c:	db5f      	blt.n	800103e <FLASH_IF_Write+0x116>
 8000f7e:	9b01      	ldr	r3, [sp, #4]
 8000f80:	429e      	cmp	r6, r3
 8000f82:	bf1a      	itte	ne
 8000f84:	f3c0 030a 	ubfxne	r3, r0, #0, #11
 8000f88:	f5c3 6700 	rsbne	r7, r3, #2048	; 0x800
 8000f8c:	464f      	moveq	r7, r9
 8000f8e:	9b01      	ldr	r3, [sp, #4]
 8000f90:	429e      	cmp	r6, r3
 8000f92:	d901      	bls.n	8000f98 <FLASH_IF_Write+0x70>
 8000f94:	2000      	movs	r0, #0
 8000f96:	e7e7      	b.n	8000f68 <FLASH_IF_Write+0x40>
 8000f98:	462c      	mov	r4, r5
 8000f9a:	eb07 0b05 	add.w	fp, r7, r5
 8000f9e:	f014 0007 	ands.w	r0, r4, #7
 8000fa2:	ebab 0204 	sub.w	r2, fp, r4
 8000fa6:	d10c      	bne.n	8000fc2 <FLASH_IF_Write+0x9a>
 8000fa8:	ea4f 0cd2 	mov.w	ip, r2, lsr #3
 8000fac:	4560      	cmp	r0, ip
 8000fae:	d12f      	bne.n	8001010 <FLASH_IF_Write+0xe8>
 8000fb0:	eba2 02c0 	sub.w	r2, r2, r0, lsl #3
 8000fb4:	4422      	add	r2, r4
 8000fb6:	42a2      	cmp	r2, r4
 8000fb8:	d136      	bne.n	8001028 <FLASH_IF_Write+0x100>
 8000fba:	463a      	mov	r2, r7
 8000fbc:	4641      	mov	r1, r8
 8000fbe:	4628      	mov	r0, r5
 8000fc0:	e020      	b.n	8001004 <FLASH_IF_Write+0xdc>
 8000fc2:	f814 2b01 	ldrb.w	r2, [r4], #1
 8000fc6:	2aff      	cmp	r2, #255	; 0xff
 8000fc8:	d0e9      	beq.n	8000f9e <FLASH_IF_Write+0x76>
 8000fca:	f1ba 0f00 	cmp.w	sl, #0
 8000fce:	d0c9      	beq.n	8000f64 <FLASH_IF_Write+0x3c>
 8000fd0:	02f4      	lsls	r4, r6, #11
 8000fd2:	f104 6400 	add.w	r4, r4, #134217728	; 0x8000000
 8000fd6:	f44f 6200 	mov.w	r2, #2048	; 0x800
 8000fda:	4621      	mov	r1, r4
 8000fdc:	4650      	mov	r0, sl
 8000fde:	f00c faa5 	bl	800d52c <UTIL_MEM_cpy_8>
 8000fe2:	f3c5 000a 	ubfx	r0, r5, #0, #11
 8000fe6:	b2ba      	uxth	r2, r7
 8000fe8:	4641      	mov	r1, r8
 8000fea:	4450      	add	r0, sl
 8000fec:	f00c fa9e 	bl	800d52c <UTIL_MEM_cpy_8>
 8000ff0:	2200      	movs	r2, #0
 8000ff2:	2101      	movs	r1, #1
 8000ff4:	4630      	mov	r0, r6
 8000ff6:	f7ff ff7f 	bl	8000ef8 <FLASH_IF_EraseByPages>
 8000ffa:	bb18      	cbnz	r0, 8001044 <FLASH_IF_Write+0x11c>
 8000ffc:	f44f 6200 	mov.w	r2, #2048	; 0x800
 8001000:	4651      	mov	r1, sl
 8001002:	4620      	mov	r0, r4
 8001004:	f7ff ff54 	bl	8000eb0 <FLASH_IF_Write_Buffer>
 8001008:	b198      	cbz	r0, 8001032 <FLASH_IF_Write+0x10a>
 800100a:	f06f 0002 	mvn.w	r0, #2
 800100e:	e7ab      	b.n	8000f68 <FLASH_IF_Write+0x40>
 8001010:	f854 3b08 	ldr.w	r3, [r4], #8
 8001014:	f854 1c04 	ldr.w	r1, [r4, #-4]
 8001018:	f1b1 3fff 	cmp.w	r1, #4294967295
 800101c:	bf08      	it	eq
 800101e:	f1b3 3fff 	cmpeq.w	r3, #4294967295
 8001022:	d1d2      	bne.n	8000fca <FLASH_IF_Write+0xa2>
 8001024:	3001      	adds	r0, #1
 8001026:	e7c1      	b.n	8000fac <FLASH_IF_Write+0x84>
 8001028:	f814 1b01 	ldrb.w	r1, [r4], #1
 800102c:	29ff      	cmp	r1, #255	; 0xff
 800102e:	d0c2      	beq.n	8000fb6 <FLASH_IF_Write+0x8e>
 8001030:	e7cb      	b.n	8000fca <FLASH_IF_Write+0xa2>
 8001032:	44b8      	add	r8, r7
 8001034:	3601      	adds	r6, #1
 8001036:	eba9 0707 	sub.w	r7, r9, r7
 800103a:	465d      	mov	r5, fp
 800103c:	e7a7      	b.n	8000f8e <FLASH_IF_Write+0x66>
 800103e:	f06f 0003 	mvn.w	r0, #3
 8001042:	e791      	b.n	8000f68 <FLASH_IF_Write+0x40>
 8001044:	f06f 0001 	mvn.w	r0, #1
 8001048:	e78e      	b.n	8000f68 <FLASH_IF_Write+0x40>
 800104a:	bf00      	nop
 800104c:	1fff7000 	.word	0x1fff7000
 8001050:	03fffc00 	.word	0x03fffc00
 8001054:	58004000 	.word	0x58004000

08001058 <LL_AHB2_GRP1_EnableClock>:
 8001058:	f04f 43b0 	mov.w	r3, #1476395008	; 0x58000000
 800105c:	b082      	sub	sp, #8
 800105e:	6cda      	ldr	r2, [r3, #76]	; 0x4c
 8001060:	4302      	orrs	r2, r0
 8001062:	64da      	str	r2, [r3, #76]	; 0x4c
 8001064:	6cdb      	ldr	r3, [r3, #76]	; 0x4c
 8001066:	4018      	ands	r0, r3
 8001068:	9001      	str	r0, [sp, #4]
 800106a:	9b01      	ldr	r3, [sp, #4]
 800106c:	b002      	add	sp, #8
 800106e:	4770      	bx	lr

08001070 <MX_GPIO_Init>:
 8001070:	e92d 41f0 	stmdb	sp!, {r4, r5, r6, r7, r8, lr}
 8001074:	b086      	sub	sp, #24
 8001076:	2214      	movs	r2, #20
 8001078:	2100      	movs	r1, #0
 800107a:	a801      	add	r0, sp, #4
 800107c:	f00c ff1e 	bl	800debc <memset>
 8001080:	2002      	movs	r0, #2
 8001082:	f7ff ffe9 	bl	8001058 <LL_AHB2_GRP1_EnableClock>
 8001086:	2001      	movs	r0, #1
 8001088:	f7ff ffe6 	bl	8001058 <LL_AHB2_GRP1_EnableClock>
 800108c:	4e27      	ldr	r6, [pc, #156]	; (800112c <MX_GPIO_Init+0xbc>)
 800108e:	4f28      	ldr	r7, [pc, #160]	; (8001130 <MX_GPIO_Init+0xc0>)
 8001090:	2080      	movs	r0, #128	; 0x80
 8001092:	f7ff ffe1 	bl	8001058 <LL_AHB2_GRP1_EnableClock>
 8001096:	2004      	movs	r0, #4
 8001098:	f7ff ffde 	bl	8001058 <LL_AHB2_GRP1_EnableClock>
 800109c:	f44f 7180 	mov.w	r1, #256	; 0x100
 80010a0:	4630      	mov	r0, r6
 80010a2:	2200      	movs	r2, #0
 80010a4:	f001 fe44 	bl	8002d30 <HAL_GPIO_WritePin>
 80010a8:	2200      	movs	r2, #0
 80010aa:	4638      	mov	r0, r7
 80010ac:	f44f 5100 	mov.w	r1, #8192	; 0x2000
 80010b0:	f001 fe3e 	bl	8002d30 <HAL_GPIO_WritePin>
 80010b4:	2400      	movs	r4, #0
 80010b6:	2503      	movs	r5, #3
 80010b8:	f241 03fd 	movw	r3, #4349	; 0x10fd
 80010bc:	a901      	add	r1, sp, #4
 80010be:	4630      	mov	r0, r6
 80010c0:	e9cd 3501 	strd	r3, r5, [sp, #4]
 80010c4:	f04f 0801 	mov.w	r8, #1
 80010c8:	9403      	str	r4, [sp, #12]
 80010ca:	f001 fd11 	bl	8002af0 <HAL_GPIO_Init>
 80010ce:	f44f 7380 	mov.w	r3, #256	; 0x100
 80010d2:	a901      	add	r1, sp, #4
 80010d4:	4630      	mov	r0, r6
 80010d6:	e9cd 3801 	strd	r3, r8, [sp, #4]
 80010da:	e9cd 4403 	strd	r4, r4, [sp, #12]
 80010de:	f001 fd07 	bl	8002af0 <HAL_GPIO_Init>
 80010e2:	f64f 73f3 	movw	r3, #65523	; 0xfff3
 80010e6:	a901      	add	r1, sp, #4
 80010e8:	f04f 4090 	mov.w	r0, #1207959552	; 0x48000000
 80010ec:	e9cd 3501 	strd	r3, r5, [sp, #4]
 80010f0:	9403      	str	r4, [sp, #12]
 80010f2:	f001 fcfd 	bl	8002af0 <HAL_GPIO_Init>
 80010f6:	2308      	movs	r3, #8
 80010f8:	a901      	add	r1, sp, #4
 80010fa:	480e      	ldr	r0, [pc, #56]	; (8001134 <MX_GPIO_Init+0xc4>)
 80010fc:	9403      	str	r4, [sp, #12]
 80010fe:	e9cd 3501 	strd	r3, r5, [sp, #4]
 8001102:	f001 fcf5 	bl	8002af0 <HAL_GPIO_Init>
 8001106:	f44f 5300 	mov.w	r3, #8192	; 0x2000
 800110a:	a901      	add	r1, sp, #4
 800110c:	4638      	mov	r0, r7
 800110e:	e9cd 3801 	strd	r3, r8, [sp, #4]
 8001112:	e9cd 4403 	strd	r4, r4, [sp, #12]
 8001116:	f001 fceb 	bl	8002af0 <HAL_GPIO_Init>
 800111a:	4a07      	ldr	r2, [pc, #28]	; (8001138 <MX_GPIO_Init+0xc8>)
 800111c:	6853      	ldr	r3, [r2, #4]
 800111e:	f443 2380 	orr.w	r3, r3, #262144	; 0x40000
 8001122:	6053      	str	r3, [r2, #4]
 8001124:	b006      	add	sp, #24
 8001126:	e8bd 81f0 	ldmia.w	sp!, {r4, r5, r6, r7, r8, pc}
 800112a:	bf00      	nop
 800112c:	48000400 	.word	0x48000400
 8001130:	48000800 	.word	0x48000800
 8001134:	48001c00 	.word	0x48001c00
 8001138:	40010000 	.word	0x40010000

0800113c <SystemClock_Config>:
 800113c:	b500      	push	{lr}
 800113e:	b09b      	sub	sp, #108	; 0x6c
 8001140:	2248      	movs	r2, #72	; 0x48
 8001142:	2100      	movs	r1, #0
 8001144:	a808      	add	r0, sp, #32
 8001146:	f00c feb9 	bl	800debc <memset>
 800114a:	2218      	movs	r2, #24
 800114c:	2100      	movs	r1, #0
 800114e:	a802      	add	r0, sp, #8
 8001150:	f00c feb4 	bl	800debc <memset>
 8001154:	f001 fdf2 	bl	8002d3c <HAL_PWR_EnableBkUpAccess>
 8001158:	f04f 42b0 	mov.w	r2, #1476395008	; 0x58000000
 800115c:	2001      	movs	r0, #1
 800115e:	f8d2 3090 	ldr.w	r3, [r2, #144]	; 0x90
 8001162:	f023 0318 	bic.w	r3, r3, #24
 8001166:	f8c2 3090 	str.w	r3, [r2, #144]	; 0x90
 800116a:	f8d2 3400 	ldr.w	r3, [r2, #1024]	; 0x400
 800116e:	f423 63c0 	bic.w	r3, r3, #1536	; 0x600
 8001172:	f443 7300 	orr.w	r3, r3, #512	; 0x200
 8001176:	f8c2 3400 	str.w	r3, [r2, #1024]	; 0x400
 800117a:	f8d2 3400 	ldr.w	r3, [r2, #1024]	; 0x400
 800117e:	f403 63c0 	and.w	r3, r3, #1536	; 0x600
 8001182:	9301      	str	r3, [sp, #4]
 8001184:	9b01      	ldr	r3, [sp, #4]
 8001186:	2324      	movs	r3, #36	; 0x24
 8001188:	9308      	str	r3, [sp, #32]
 800118a:	2381      	movs	r3, #129	; 0x81
 800118c:	930b      	str	r3, [sp, #44]	; 0x2c
 800118e:	2300      	movs	r3, #0
 8001190:	e9cd 0310 	strd	r0, r3, [sp, #64]	; 0x40
 8001194:	22b0      	movs	r2, #176	; 0xb0
 8001196:	a808      	add	r0, sp, #32
 8001198:	e9cd 2312 	strd	r2, r3, [sp, #72]	; 0x48
 800119c:	f001 ff4c 	bl	8003038 <HAL_RCC_OscConfig>
 80011a0:	b108      	cbz	r0, 80011a6 <SystemClock_Config+0x6a>
 80011a2:	b672      	cpsid	i
 80011a4:	e7fe      	b.n	80011a4 <SystemClock_Config+0x68>
 80011a6:	234f      	movs	r3, #79	; 0x4f
 80011a8:	e9cd 3002 	strd	r3, r0, [sp, #8]
 80011ac:	e9cd 0004 	strd	r0, r0, [sp, #16]
 80011b0:	e9cd 0006 	strd	r0, r0, [sp, #24]
 80011b4:	2102      	movs	r1, #2
 80011b6:	a802      	add	r0, sp, #8
 80011b8:	f002 f9de 	bl	8003578 <HAL_RCC_ClockConfig>
 80011bc:	b108      	cbz	r0, 80011c2 <SystemClock_Config+0x86>
 80011be:	b672      	cpsid	i
 80011c0:	e7fe      	b.n	80011c0 <SystemClock_Config+0x84>
 80011c2:	b01b      	add	sp, #108	; 0x6c
 80011c4:	f85d fb04 	ldr.w	pc, [sp], #4

080011c8 <main>:
 80011c8:	b508      	push	{r3, lr}
 80011ca:	f000 fc6d 	bl	8001aa8 <HAL_Init>
 80011ce:	f7ff ffb5 	bl	800113c <SystemClock_Config>
 80011d2:	f7ff ff4d 	bl	8001070 <MX_GPIO_Init>
 80011d6:	f000 f80b 	bl	80011f0 <MX_RTC_Init>
 80011da:	f7ff fe2f 	bl	8000e3c <MX_DMA_Init>
 80011de:	f000 fae9 	bl	80017b4 <MX_USART2_UART_Init>
 80011e2:	f004 f8f1 	bl	80053c8 <MX_LoRaWAN_Init>
 80011e6:	f004 f8f6 	bl	80053d6 <MX_LoRaWAN_Process>
 80011ea:	e7fc      	b.n	80011e6 <main+0x1e>

080011ec <Error_Handler>:
 80011ec:	b672      	cpsid	i
 80011ee:	e7fe      	b.n	80011ee <Error_Handler+0x2>

080011f0 <MX_RTC_Init>:
 80011f0:	b500      	push	{lr}
 80011f2:	b08d      	sub	sp, #52	; 0x34
 80011f4:	222c      	movs	r2, #44	; 0x2c
 80011f6:	2100      	movs	r1, #0
 80011f8:	a801      	add	r0, sp, #4
 80011fa:	f00c fe5f 	bl	800debc <memset>
 80011fe:	4817      	ldr	r0, [pc, #92]	; (800125c <MX_RTC_Init+0x6c>)
 8001200:	4b17      	ldr	r3, [pc, #92]	; (8001260 <MX_RTC_Init+0x70>)
 8001202:	6003      	str	r3, [r0, #0]
 8001204:	231f      	movs	r3, #31
 8001206:	6083      	str	r3, [r0, #8]
 8001208:	f04f 4280 	mov.w	r2, #1073741824	; 0x40000000
 800120c:	2300      	movs	r3, #0
 800120e:	e9c0 3304 	strd	r3, r3, [r0, #16]
 8001212:	e9c0 2307 	strd	r2, r3, [r0, #28]
 8001216:	6183      	str	r3, [r0, #24]
 8001218:	f44f 7380 	mov.w	r3, #256	; 0x100
 800121c:	6243      	str	r3, [r0, #36]	; 0x24
 800121e:	f002 fc5d 	bl	8003adc <HAL_RTC_Init>
 8001222:	b108      	cbz	r0, 8001228 <MX_RTC_Init+0x38>
 8001224:	f7ff ffe2 	bl	80011ec <Error_Handler>
 8001228:	480c      	ldr	r0, [pc, #48]	; (800125c <MX_RTC_Init+0x6c>)
 800122a:	f002 fd7f 	bl	8003d2c <HAL_RTCEx_SetSSRU_IT>
 800122e:	b108      	cbz	r0, 8001234 <MX_RTC_Init+0x44>
 8001230:	f7ff ffdc 	bl	80011ec <Error_Handler>
 8001234:	f04f 5300 	mov.w	r3, #536870912	; 0x20000000
 8001238:	2200      	movs	r2, #0
 800123a:	9307      	str	r3, [sp, #28]
 800123c:	4807      	ldr	r0, [pc, #28]	; (800125c <MX_RTC_Init+0x6c>)
 800123e:	9208      	str	r2, [sp, #32]
 8001240:	f44f 7380 	mov.w	r3, #256	; 0x100
 8001244:	a901      	add	r1, sp, #4
 8001246:	9202      	str	r2, [sp, #8]
 8001248:	9206      	str	r2, [sp, #24]
 800124a:	930b      	str	r3, [sp, #44]	; 0x2c
 800124c:	f002 fca2 	bl	8003b94 <HAL_RTC_SetAlarm_IT>
 8001250:	b108      	cbz	r0, 8001256 <MX_RTC_Init+0x66>
 8001252:	f7ff ffcb 	bl	80011ec <Error_Handler>
 8001256:	b00d      	add	sp, #52	; 0x34
 8001258:	f85d fb04 	ldr.w	pc, [sp], #4
 800125c:	20000208 	.word	0x20000208
 8001260:	40002800 	.word	0x40002800

08001264 <HAL_RTC_MspInit>:
 8001264:	b510      	push	{r4, lr}
 8001266:	4604      	mov	r4, r0
 8001268:	b090      	sub	sp, #64	; 0x40
 800126a:	2238      	movs	r2, #56	; 0x38
 800126c:	2100      	movs	r1, #0
 800126e:	a802      	add	r0, sp, #8
 8001270:	f00c fe24 	bl	800debc <memset>
 8001274:	6822      	ldr	r2, [r4, #0]
 8001276:	4b19      	ldr	r3, [pc, #100]	; (80012dc <HAL_RTC_MspInit+0x78>)
 8001278:	429a      	cmp	r2, r3
 800127a:	d12c      	bne.n	80012d6 <HAL_RTC_MspInit+0x72>
 800127c:	f44f 3380 	mov.w	r3, #65536	; 0x10000
 8001280:	9302      	str	r3, [sp, #8]
 8001282:	a802      	add	r0, sp, #8
 8001284:	f44f 7380 	mov.w	r3, #256	; 0x100
 8001288:	930f      	str	r3, [sp, #60]	; 0x3c
 800128a:	f002 fa97 	bl	80037bc <HAL_RCCEx_PeriphCLKConfig>
 800128e:	b108      	cbz	r0, 8001294 <HAL_RTC_MspInit+0x30>
 8001290:	f7ff ffac 	bl	80011ec <Error_Handler>
 8001294:	f04f 43b0 	mov.w	r3, #1476395008	; 0x58000000
 8001298:	2002      	movs	r0, #2
 800129a:	f8d3 2090 	ldr.w	r2, [r3, #144]	; 0x90
 800129e:	f442 4200 	orr.w	r2, r2, #32768	; 0x8000
 80012a2:	f8c3 2090 	str.w	r2, [r3, #144]	; 0x90
 80012a6:	6d9a      	ldr	r2, [r3, #88]	; 0x58
 80012a8:	f442 6280 	orr.w	r2, r2, #1024	; 0x400
 80012ac:	659a      	str	r2, [r3, #88]	; 0x58
 80012ae:	6d9b      	ldr	r3, [r3, #88]	; 0x58
 80012b0:	2200      	movs	r2, #0
 80012b2:	f403 6380 	and.w	r3, r3, #1024	; 0x400
 80012b6:	4611      	mov	r1, r2
 80012b8:	9301      	str	r3, [sp, #4]
 80012ba:	9b01      	ldr	r3, [sp, #4]
 80012bc:	f001 f884 	bl	80023c8 <HAL_NVIC_SetPriority>
 80012c0:	2002      	movs	r0, #2
 80012c2:	f001 f8b3 	bl	800242c <HAL_NVIC_EnableIRQ>
 80012c6:	2200      	movs	r2, #0
 80012c8:	202a      	movs	r0, #42	; 0x2a
 80012ca:	4611      	mov	r1, r2
 80012cc:	f001 f87c 	bl	80023c8 <HAL_NVIC_SetPriority>
 80012d0:	202a      	movs	r0, #42	; 0x2a
 80012d2:	f001 f8ab 	bl	800242c <HAL_NVIC_EnableIRQ>
 80012d6:	b010      	add	sp, #64	; 0x40
 80012d8:	bd10      	pop	{r4, pc}
 80012da:	bf00      	nop
 80012dc:	40002800 	.word	0x40002800

080012e0 <PWR_EnterOffMode>:
 80012e0:	4770      	bx	lr
	...

080012e4 <PWR_EnterStopMode>:
 80012e4:	b508      	push	{r3, lr}
 80012e6:	f000 fbf5 	bl	8001ad4 <HAL_SuspendTick>
 80012ea:	4b04      	ldr	r3, [pc, #16]	; (80012fc <PWR_EnterStopMode+0x18>)
 80012ec:	2001      	movs	r0, #1
 80012ee:	f8c3 0088 	str.w	r0, [r3, #136]	; 0x88
 80012f2:	e8bd 4008 	ldmia.w	sp!, {r3, lr}
 80012f6:	f001 bd79 	b.w	8002dec <HAL_PWREx_EnterSTOP2Mode>
 80012fa:	bf00      	nop
 80012fc:	58000400 	.word	0x58000400

08001300 <PWR_ExitSleepMode>:
 8001300:	f000 bbef 	b.w	8001ae2 <HAL_ResumeTick>

08001304 <PWR_ExitStopMode>:
 8001304:	b508      	push	{r3, lr}
 8001306:	f000 fbec 	bl	8001ae2 <HAL_ResumeTick>
 800130a:	e8bd 4008 	ldmia.w	sp!, {r3, lr}
 800130e:	f000 bb61 	b.w	80019d4 <vcom_Resume>

08001312 <PWR_EnterSleepMode>:
 8001312:	b508      	push	{r3, lr}
 8001314:	f000 fbde 	bl	8001ad4 <HAL_SuspendTick>
 8001318:	e8bd 4008 	ldmia.w	sp!, {r3, lr}
 800131c:	2101      	movs	r1, #1
 800131e:	2000      	movs	r0, #0
 8001320:	f001 bd14 	b.w	8002d4c <HAL_PWR_EnterSLEEPMode>

08001324 <PWR_ExitOffMode>:
 8001324:	4770      	bx	lr

08001326 <HAL_MspInit>:
 8001326:	4770      	bx	lr

08001328 <NMI_Handler>:
 8001328:	e7fe      	b.n	8001328 <NMI_Handler>

0800132a <HardFault_Handler>:
 800132a:	e7fe      	b.n	800132a <HardFault_Handler>

0800132c <MemManage_Handler>:
 800132c:	e7fe      	b.n	800132c <MemManage_Handler>

0800132e <BusFault_Handler>:
 800132e:	e7fe      	b.n	800132e <BusFault_Handler>

08001330 <UsageFault_Handler>:
 8001330:	e7fe      	b.n	8001330 <UsageFault_Handler>

08001332 <SVC_Handler>:
 8001332:	4770      	bx	lr

08001334 <DebugMon_Handler>:
 8001334:	4770      	bx	lr

08001336 <PendSV_Handler>:
 8001336:	4770      	bx	lr

08001338 <SysTick_Handler>:
 8001338:	4770      	bx	lr
	...

0800133c <TAMP_STAMP_LSECSS_SSRU_IRQHandler>:
 800133c:	4801      	ldr	r0, [pc, #4]	; (8001344 <TAMP_STAMP_LSECSS_SSRU_IRQHandler+0x8>)
 800133e:	f002 bd1b 	b.w	8003d78 <HAL_RTCEx_SSRUIRQHandler>
 8001342:	bf00      	nop
 8001344:	20000208 	.word	0x20000208

08001348 <DMA1_Channel1_IRQHandler>:
 8001348:	4801      	ldr	r0, [pc, #4]	; (8001350 <DMA1_Channel1_IRQHandler+0x8>)
 800134a:	f001 ba51 	b.w	80027f0 <HAL_DMA_IRQHandler>
 800134e:	bf00      	nop
 8001350:	20000254 	.word	0x20000254

08001354 <USART2_IRQHandler>:
 8001354:	4801      	ldr	r0, [pc, #4]	; (800135c <USART2_IRQHandler+0x8>)
 8001356:	f003 b8d5 	b.w	8004504 <HAL_UART_IRQHandler>
 800135a:	bf00      	nop
 800135c:	200002b4 	.word	0x200002b4

08001360 <RTC_Alarm_IRQHandler>:
 8001360:	4801      	ldr	r0, [pc, #4]	; (8001368 <RTC_Alarm_IRQHandler+0x8>)
 8001362:	f002 bb3d 	b.w	80039e0 <HAL_RTC_AlarmIRQHandler>
 8001366:	bf00      	nop
 8001368:	20000208 	.word	0x20000208

0800136c <SUBGHZ_Radio_IRQHandler>:
 800136c:	4801      	ldr	r0, [pc, #4]	; (8001374 <SUBGHZ_Radio_IRQHandler+0x8>)
 800136e:	f002 bf22 	b.w	80041b6 <HAL_SUBGHZ_IRQHandler>
 8001372:	bf00      	nop
 8001374:	20000240 	.word	0x20000240

08001378 <MX_SUBGHZ_Init>:
 8001378:	4805      	ldr	r0, [pc, #20]	; (8001390 <MX_SUBGHZ_Init+0x18>)
 800137a:	b508      	push	{r3, lr}
 800137c:	2308      	movs	r3, #8
 800137e:	6003      	str	r3, [r0, #0]
 8001380:	f002 fd40 	bl	8003e04 <HAL_SUBGHZ_Init>
 8001384:	b118      	cbz	r0, 800138e <MX_SUBGHZ_Init+0x16>
 8001386:	e8bd 4008 	ldmia.w	sp!, {r3, lr}
 800138a:	f7ff bf2f 	b.w	80011ec <Error_Handler>
 800138e:	bd08      	pop	{r3, pc}
 8001390:	20000240 	.word	0x20000240

08001394 <HAL_SUBGHZ_MspInit>:
 8001394:	f04f 43b0 	mov.w	r3, #1476395008	; 0x58000000
 8001398:	b507      	push	{r0, r1, r2, lr}
 800139a:	6e5a      	ldr	r2, [r3, #100]	; 0x64
 800139c:	f042 0201 	orr.w	r2, r2, #1
 80013a0:	665a      	str	r2, [r3, #100]	; 0x64
 80013a2:	6e5b      	ldr	r3, [r3, #100]	; 0x64
 80013a4:	2200      	movs	r2, #0
 80013a6:	f003 0301 	and.w	r3, r3, #1
 80013aa:	9301      	str	r3, [sp, #4]
 80013ac:	4611      	mov	r1, r2
 80013ae:	2032      	movs	r0, #50	; 0x32
 80013b0:	9b01      	ldr	r3, [sp, #4]
 80013b2:	f001 f809 	bl	80023c8 <HAL_NVIC_SetPriority>
 80013b6:	2032      	movs	r0, #50	; 0x32
 80013b8:	b003      	add	sp, #12
 80013ba:	f85d eb04 	ldr.w	lr, [sp], #4
 80013be:	f001 b835 	b.w	800242c <HAL_NVIC_EnableIRQ>
	...

080013c4 <tiny_snprintf_like.constprop.0>:
 80013c4:	b40c      	push	{r2, r3}
 80013c6:	b507      	push	{r0, r1, r2, lr}
 80013c8:	4a05      	ldr	r2, [pc, #20]	; (80013e0 <tiny_snprintf_like.constprop.0+0x1c>)
 80013ca:	ab05      	add	r3, sp, #20
 80013cc:	2110      	movs	r1, #16
 80013ce:	9301      	str	r3, [sp, #4]
 80013d0:	f00c f99e 	bl	800d710 <tiny_vsnprintf_like>
 80013d4:	b003      	add	sp, #12
 80013d6:	f85d eb04 	ldr.w	lr, [sp], #4
 80013da:	b002      	add	sp, #8
 80013dc:	4770      	bx	lr
 80013de:	bf00      	nop
 80013e0:	0800e970 	.word	0x0800e970

080013e4 <TimestampNow>:
 80013e4:	b530      	push	{r4, r5, lr}
 80013e6:	b085      	sub	sp, #20
 80013e8:	4604      	mov	r4, r0
 80013ea:	a802      	add	r0, sp, #8
 80013ec:	460d      	mov	r5, r1
 80013ee:	f00c f907 	bl	800d600 <SysTimeGet>
 80013f2:	f9bd 300c 	ldrsh.w	r3, [sp, #12]
 80013f6:	4a06      	ldr	r2, [pc, #24]	; (8001410 <TimestampNow+0x2c>)
 80013f8:	9300      	str	r3, [sp, #0]
 80013fa:	2110      	movs	r1, #16
 80013fc:	9b02      	ldr	r3, [sp, #8]
 80013fe:	4620      	mov	r0, r4
 8001400:	f7ff ffe0 	bl	80013c4 <tiny_snprintf_like.constprop.0>
 8001404:	4620      	mov	r0, r4
 8001406:	f7fe febb 	bl	8000180 <strlen>
 800140a:	8028      	strh	r0, [r5, #0]
 800140c:	b005      	add	sp, #20
 800140e:	bd30      	pop	{r4, r5, pc}
 8001410:	0800e970 	.word	0x0800e970

08001414 <SystemApp_Init>:
 8001414:	f04f 42b0 	mov.w	r2, #1476395008	; 0x58000000
 8001418:	b510      	push	{r4, lr}
 800141a:	6893      	ldr	r3, [r2, #8]
 800141c:	f423 4300 	bic.w	r3, r3, #32768	; 0x8000
 8001420:	6093      	str	r3, [r2, #8]
 8001422:	f00c fb59 	bl	800dad8 <UTIL_TIMER_Init>
 8001426:	4b0e      	ldr	r3, [pc, #56]	; (8001460 <SystemApp_Init+0x4c>)
 8001428:	2401      	movs	r4, #1
 800142a:	701c      	strb	r4, [r3, #0]
 800142c:	f000 f89e 	bl	800156c <DBG_Init>
 8001430:	f00c fcac 	bl	800dd8c <UTIL_ADV_TRACE_Init>
 8001434:	480b      	ldr	r0, [pc, #44]	; (8001464 <SystemApp_Init+0x50>)
 8001436:	f00c fcc3 	bl	800ddc0 <UTIL_ADV_TRACE_RegisterTimeStampFunction>
 800143a:	4b0b      	ldr	r3, [pc, #44]	; (8001468 <SystemApp_Init+0x54>)
 800143c:	f44f 4200 	mov.w	r2, #32768	; 0x8000
 8001440:	611a      	str	r2, [r3, #16]
 8001442:	2002      	movs	r0, #2
 8001444:	f00c fcc2 	bl	800ddcc <UTIL_ADV_TRACE_SetVerboseLevel>
 8001448:	f7ff fc98 	bl	8000d7c <SYS_InitMeasurement>
 800144c:	f000 f8b4 	bl	80015b8 <EnvSensors_Init>
 8001450:	f00c f816 	bl	800d480 <UTIL_LPM_Init>
 8001454:	4621      	mov	r1, r4
 8001456:	4620      	mov	r0, r4
 8001458:	e8bd 4010 	ldmia.w	sp!, {r4, lr}
 800145c:	f00c b830 	b.w	800d4c0 <UTIL_LPM_SetOffMode>
 8001460:	2000024c 	.word	0x2000024c
 8001464:	080013e5 	.word	0x080013e5
 8001468:	58004000 	.word	0x58004000

0800146c <UTIL_SEQ_Idle>:
 800146c:	f00c b83e 	b.w	800d4ec <UTIL_LPM_EnterLowPower>

08001470 <GetBatteryLevel>:
 8001470:	b508      	push	{r3, lr}
 8001472:	f7ff fc8b 	bl	8000d8c <SYS_GetBatteryLevel>
 8001476:	f640 33b8 	movw	r3, #3000	; 0xbb8
 800147a:	4298      	cmp	r0, r3
 800147c:	d80c      	bhi.n	8001498 <GetBatteryLevel+0x28>
 800147e:	f5b0 6fe1 	cmp.w	r0, #1800	; 0x708
 8001482:	d30b      	bcc.n	800149c <GetBatteryLevel+0x2c>
 8001484:	23fe      	movs	r3, #254	; 0xfe
 8001486:	f5a0 60e1 	sub.w	r0, r0, #1800	; 0x708
 800148a:	4358      	muls	r0, r3
 800148c:	f44f 6396 	mov.w	r3, #1200	; 0x4b0
 8001490:	fbb0 f0f3 	udiv	r0, r0, r3
 8001494:	b2c0      	uxtb	r0, r0
 8001496:	bd08      	pop	{r3, pc}
 8001498:	20fe      	movs	r0, #254	; 0xfe
 800149a:	e7fc      	b.n	8001496 <GetBatteryLevel+0x26>
 800149c:	2000      	movs	r0, #0
 800149e:	e7fa      	b.n	8001496 <GetBatteryLevel+0x26>

080014a0 <GetTemperatureLevel>:
 80014a0:	b57f      	push	{r0, r1, r2, r3, r4, r5, r6, lr}
 80014a2:	4668      	mov	r0, sp
 80014a4:	f000 f86c 	bl	8001580 <EnvSensors_Read>
 80014a8:	9801      	ldr	r0, [sp, #4]
 80014aa:	f7ff fa3b 	bl	8000924 <__aeabi_f2iz>
 80014ae:	b200      	sxth	r0, r0
 80014b0:	b007      	add	sp, #28
 80014b2:	f85d fb04 	ldr.w	pc, [sp], #4
	...

080014b8 <GetUniqueId>:
 80014b8:	4a18      	ldr	r2, [pc, #96]	; (800151c <GetUniqueId+0x64>)
 80014ba:	b538      	push	{r3, r4, r5, lr}
 80014bc:	f8d2 3580 	ldr.w	r3, [r2, #1408]	; 0x580
 80014c0:	1c59      	adds	r1, r3, #1
 80014c2:	4604      	mov	r4, r0
 80014c4:	d116      	bne.n	80014f4 <GetUniqueId+0x3c>
 80014c6:	f000 fb13 	bl	8001af0 <HAL_GetUIDw0>
 80014ca:	4605      	mov	r5, r0
 80014cc:	f000 fb1c 	bl	8001b08 <HAL_GetUIDw2>
 80014d0:	4405      	add	r5, r0
 80014d2:	f000 fb13 	bl	8001afc <HAL_GetUIDw1>
 80014d6:	0e2b      	lsrs	r3, r5, #24
 80014d8:	71e3      	strb	r3, [r4, #7]
 80014da:	0c2b      	lsrs	r3, r5, #16
 80014dc:	71a3      	strb	r3, [r4, #6]
 80014de:	0a2b      	lsrs	r3, r5, #8
 80014e0:	7163      	strb	r3, [r4, #5]
 80014e2:	0e03      	lsrs	r3, r0, #24
 80014e4:	70e3      	strb	r3, [r4, #3]
 80014e6:	0c03      	lsrs	r3, r0, #16
 80014e8:	70a3      	strb	r3, [r4, #2]
 80014ea:	0a03      	lsrs	r3, r0, #8
 80014ec:	7125      	strb	r5, [r4, #4]
 80014ee:	7063      	strb	r3, [r4, #1]
 80014f0:	7020      	strb	r0, [r4, #0]
 80014f2:	bd38      	pop	{r3, r4, r5, pc}
 80014f4:	0a19      	lsrs	r1, r3, #8
 80014f6:	71c3      	strb	r3, [r0, #7]
 80014f8:	7181      	strb	r1, [r0, #6]
 80014fa:	0c19      	lsrs	r1, r3, #16
 80014fc:	0e1b      	lsrs	r3, r3, #24
 80014fe:	7141      	strb	r1, [r0, #5]
 8001500:	7103      	strb	r3, [r0, #4]
 8001502:	f8d2 3584 	ldr.w	r3, [r2, #1412]	; 0x584
 8001506:	70c3      	strb	r3, [r0, #3]
 8001508:	f8d2 3584 	ldr.w	r3, [r2, #1412]	; 0x584
 800150c:	0a1a      	lsrs	r2, r3, #8
 800150e:	7082      	strb	r2, [r0, #2]
 8001510:	0c1a      	lsrs	r2, r3, #16
 8001512:	0e1b      	lsrs	r3, r3, #24
 8001514:	7042      	strb	r2, [r0, #1]
 8001516:	7003      	strb	r3, [r0, #0]
 8001518:	e7eb      	b.n	80014f2 <GetUniqueId+0x3a>
 800151a:	bf00      	nop
 800151c:	1fff7000 	.word	0x1fff7000

08001520 <GetDevAddr>:
 8001520:	4b07      	ldr	r3, [pc, #28]	; (8001540 <GetDevAddr+0x20>)
 8001522:	f8d3 0580 	ldr.w	r0, [r3, #1408]	; 0x580
 8001526:	1c43      	adds	r3, r0, #1
 8001528:	b510      	push	{r4, lr}
 800152a:	d108      	bne.n	800153e <GetDevAddr+0x1e>
 800152c:	f000 fae0 	bl	8001af0 <HAL_GetUIDw0>
 8001530:	4604      	mov	r4, r0
 8001532:	f000 fae3 	bl	8001afc <HAL_GetUIDw1>
 8001536:	4044      	eors	r4, r0
 8001538:	f000 fae6 	bl	8001b08 <HAL_GetUIDw2>
 800153c:	4060      	eors	r0, r4
 800153e:	bd10      	pop	{r4, pc}
 8001540:	1fff7000 	.word	0x1fff7000

08001544 <UTIL_ADV_TRACE_PostSendHook>:
 8001544:	2100      	movs	r1, #0
 8001546:	2002      	movs	r0, #2
 8001548:	f00b bfa4 	b.w	800d494 <UTIL_LPM_SetStopMode>

0800154c <HAL_InitTick>:
 800154c:	2000      	movs	r0, #0
 800154e:	4770      	bx	lr

08001550 <HAL_GetTick>:
 8001550:	4b02      	ldr	r3, [pc, #8]	; (800155c <HAL_GetTick+0xc>)
 8001552:	7818      	ldrb	r0, [r3, #0]
 8001554:	b108      	cbz	r0, 800155a <HAL_GetTick+0xa>
 8001556:	f000 b869 	b.w	800162c <TIMER_IF_GetTimerValue>
 800155a:	4770      	bx	lr
 800155c:	2000024c 	.word	0x2000024c

08001560 <HAL_Delay>:
 8001560:	b082      	sub	sp, #8
 8001562:	9001      	str	r0, [sp, #4]
 8001564:	9801      	ldr	r0, [sp, #4]
 8001566:	b002      	add	sp, #8
 8001568:	f000 b8fc 	b.w	8001764 <TIMER_IF_DelayMs>

0800156c <DBG_Init>:
 800156c:	b508      	push	{r3, lr}
 800156e:	f000 fad1 	bl	8001b14 <HAL_DBGMCU_DisableDBGSleepMode>
 8001572:	f000 fad7 	bl	8001b24 <HAL_DBGMCU_DisableDBGStopMode>
 8001576:	e8bd 4008 	ldmia.w	sp!, {r3, lr}
 800157a:	f000 badb 	b.w	8001b34 <HAL_DBGMCU_DisableDBGStandbyMode>
	...

08001580 <EnvSensors_Read>:
 8001580:	b510      	push	{r4, lr}
 8001582:	4604      	mov	r4, r0
 8001584:	f7ff fc1c 	bl	8000dc0 <SYS_GetTemperatureLevel>
 8001588:	4b07      	ldr	r3, [pc, #28]	; (80015a8 <EnvSensors_Read+0x28>)
 800158a:	60a3      	str	r3, [r4, #8]
 800158c:	f340 200f 	sbfx	r0, r0, #8, #16
 8001590:	f7ff f974 	bl	800087c <__aeabi_i2f>
 8001594:	4b05      	ldr	r3, [pc, #20]	; (80015ac <EnvSensors_Read+0x2c>)
 8001596:	4a06      	ldr	r2, [pc, #24]	; (80015b0 <EnvSensors_Read+0x30>)
 8001598:	6023      	str	r3, [r4, #0]
 800159a:	4b06      	ldr	r3, [pc, #24]	; (80015b4 <EnvSensors_Read+0x34>)
 800159c:	6060      	str	r0, [r4, #4]
 800159e:	e9c4 2303 	strd	r2, r3, [r4, #12]
 80015a2:	2000      	movs	r0, #0
 80015a4:	bd10      	pop	{r4, pc}
 80015a6:	bf00      	nop
 80015a8:	42480000 	.word	0x42480000
 80015ac:	447a0000 	.word	0x447a0000
 80015b0:	003e090d 	.word	0x003e090d
 80015b4:	000503ab 	.word	0x000503ab

080015b8 <EnvSensors_Init>:
 80015b8:	2000      	movs	r0, #0
 80015ba:	4770      	bx	lr

080015bc <SystemInit>:
 80015bc:	4770      	bx	lr
	...

080015c0 <TIMER_IF_GetTimerContext>:
 80015c0:	4b01      	ldr	r3, [pc, #4]	; (80015c8 <TIMER_IF_GetTimerContext+0x8>)
 80015c2:	6818      	ldr	r0, [r3, #0]
 80015c4:	4770      	bx	lr
 80015c6:	bf00      	nop
 80015c8:	20000250 	.word	0x20000250

080015cc <TIMER_IF_GetMinimumTimeout>:
 80015cc:	2003      	movs	r0, #3
 80015ce:	4770      	bx	lr

080015d0 <TIMER_IF_Convert_ms2Tick>:
 80015d0:	b508      	push	{r3, lr}
 80015d2:	4601      	mov	r1, r0
 80015d4:	f44f 727a 	mov.w	r2, #1000	; 0x3e8
 80015d8:	2300      	movs	r3, #0
 80015da:	0280      	lsls	r0, r0, #10
 80015dc:	0d89      	lsrs	r1, r1, #22
 80015de:	f7ff f9c7 	bl	8000970 <__aeabi_uldivmod>
 80015e2:	bd08      	pop	{r3, pc}

080015e4 <TIMER_IF_Convert_Tick2ms>:
 80015e4:	f44f 737a 	mov.w	r3, #1000	; 0x3e8
 80015e8:	fba0 3003 	umull	r3, r0, r0, r3
 80015ec:	0a9b      	lsrs	r3, r3, #10
 80015ee:	ea43 5080 	orr.w	r0, r3, r0, lsl #22
 80015f2:	4770      	bx	lr

080015f4 <GetTimerTicks>:
 80015f4:	4b03      	ldr	r3, [pc, #12]	; (8001604 <GetTimerTicks+0x10>)
 80015f6:	6898      	ldr	r0, [r3, #8]
 80015f8:	689a      	ldr	r2, [r3, #8]
 80015fa:	4290      	cmp	r0, r2
 80015fc:	d1fb      	bne.n	80015f6 <GetTimerTicks+0x2>
 80015fe:	43c0      	mvns	r0, r0
 8001600:	4770      	bx	lr
 8001602:	bf00      	nop
 8001604:	40002800 	.word	0x40002800

08001608 <TIMER_IF_SetTimerContext>:
 8001608:	b508      	push	{r3, lr}
 800160a:	f7ff fff3 	bl	80015f4 <GetTimerTicks>
 800160e:	4b01      	ldr	r3, [pc, #4]	; (8001614 <TIMER_IF_SetTimerContext+0xc>)
 8001610:	6018      	str	r0, [r3, #0]
 8001612:	bd08      	pop	{r3, pc}
 8001614:	20000250 	.word	0x20000250

08001618 <TIMER_IF_GetTimerElapsedTime>:
 8001618:	b508      	push	{r3, lr}
 800161a:	f7ff ffeb 	bl	80015f4 <GetTimerTicks>
 800161e:	4b02      	ldr	r3, [pc, #8]	; (8001628 <TIMER_IF_GetTimerElapsedTime+0x10>)
 8001620:	681b      	ldr	r3, [r3, #0]
 8001622:	1ac0      	subs	r0, r0, r3
 8001624:	bd08      	pop	{r3, pc}
 8001626:	bf00      	nop
 8001628:	20000250 	.word	0x20000250

0800162c <TIMER_IF_GetTimerValue>:
 800162c:	4b02      	ldr	r3, [pc, #8]	; (8001638 <TIMER_IF_GetTimerValue+0xc>)
 800162e:	7818      	ldrb	r0, [r3, #0]
 8001630:	b108      	cbz	r0, 8001636 <TIMER_IF_GetTimerValue+0xa>
 8001632:	f7ff bfdf 	b.w	80015f4 <GetTimerTicks>
 8001636:	4770      	bx	lr
 8001638:	2000024d 	.word	0x2000024d

0800163c <TIMER_IF_StopTimer>:
 800163c:	b510      	push	{r4, lr}
 800163e:	4b07      	ldr	r3, [pc, #28]	; (800165c <TIMER_IF_StopTimer+0x20>)
 8001640:	4c07      	ldr	r4, [pc, #28]	; (8001660 <TIMER_IF_StopTimer+0x24>)
 8001642:	2201      	movs	r2, #1
 8001644:	65da      	str	r2, [r3, #92]	; 0x5c
 8001646:	f44f 7180 	mov.w	r1, #256	; 0x100
 800164a:	4620      	mov	r0, r4
 800164c:	f002 f98c 	bl	8003968 <HAL_RTC_DeactivateAlarm>
 8001650:	f04f 33ff 	mov.w	r3, #4294967295
 8001654:	6323      	str	r3, [r4, #48]	; 0x30
 8001656:	2000      	movs	r0, #0
 8001658:	bd10      	pop	{r4, pc}
 800165a:	bf00      	nop
 800165c:	40002800 	.word	0x40002800
 8001660:	20000208 	.word	0x20000208

08001664 <TIMER_IF_BkUp_Write_Seconds>:
 8001664:	4602      	mov	r2, r0
 8001666:	2100      	movs	r1, #0
 8001668:	4801      	ldr	r0, [pc, #4]	; (8001670 <TIMER_IF_BkUp_Write_Seconds+0xc>)
 800166a:	f002 bb96 	b.w	8003d9a <HAL_RTCEx_BKUPWrite>
 800166e:	bf00      	nop
 8001670:	20000208 	.word	0x20000208

08001674 <TIMER_IF_BkUp_Write_SubSeconds>:
 8001674:	4602      	mov	r2, r0
 8001676:	2101      	movs	r1, #1
 8001678:	4801      	ldr	r0, [pc, #4]	; (8001680 <TIMER_IF_BkUp_Write_SubSeconds+0xc>)
 800167a:	f002 bb8e 	b.w	8003d9a <HAL_RTCEx_BKUPWrite>
 800167e:	bf00      	nop
 8001680:	20000208 	.word	0x20000208

08001684 <TIMER_IF_StartTimer>:
 8001684:	b510      	push	{r4, lr}
 8001686:	b08c      	sub	sp, #48	; 0x30
 8001688:	222c      	movs	r2, #44	; 0x2c
 800168a:	2100      	movs	r1, #0
 800168c:	4604      	mov	r4, r0
 800168e:	a801      	add	r0, sp, #4
 8001690:	f00c fc14 	bl	800debc <memset>
 8001694:	f7ff ffd2 	bl	800163c <TIMER_IF_StopTimer>
 8001698:	4b0c      	ldr	r3, [pc, #48]	; (80016cc <TIMER_IF_StartTimer+0x48>)
 800169a:	6818      	ldr	r0, [r3, #0]
 800169c:	2300      	movs	r3, #0
 800169e:	4404      	add	r4, r0
 80016a0:	9308      	str	r3, [sp, #32]
 80016a2:	9306      	str	r3, [sp, #24]
 80016a4:	f04f 5300 	mov.w	r3, #536870912	; 0x20000000
 80016a8:	43e4      	mvns	r4, r4
 80016aa:	9307      	str	r3, [sp, #28]
 80016ac:	4808      	ldr	r0, [pc, #32]	; (80016d0 <TIMER_IF_StartTimer+0x4c>)
 80016ae:	9402      	str	r4, [sp, #8]
 80016b0:	f44f 7380 	mov.w	r3, #256	; 0x100
 80016b4:	2201      	movs	r2, #1
 80016b6:	a901      	add	r1, sp, #4
 80016b8:	930b      	str	r3, [sp, #44]	; 0x2c
 80016ba:	f002 fa6b 	bl	8003b94 <HAL_RTC_SetAlarm_IT>
 80016be:	b108      	cbz	r0, 80016c4 <TIMER_IF_StartTimer+0x40>
 80016c0:	f7ff fd94 	bl	80011ec <Error_Handler>
 80016c4:	2000      	movs	r0, #0
 80016c6:	b00c      	add	sp, #48	; 0x30
 80016c8:	bd10      	pop	{r4, pc}
 80016ca:	bf00      	nop
 80016cc:	20000250 	.word	0x20000250
 80016d0:	20000208 	.word	0x20000208

080016d4 <TIMER_IF_GetTime>:
 80016d4:	b538      	push	{r3, r4, r5, lr}
 80016d6:	4605      	mov	r5, r0
 80016d8:	f7ff ff8c 	bl	80015f4 <GetTimerTicks>
 80016dc:	2102      	movs	r1, #2
 80016de:	4604      	mov	r4, r0
 80016e0:	4807      	ldr	r0, [pc, #28]	; (8001700 <TIMER_IF_GetTime+0x2c>)
 80016e2:	f002 fb61 	bl	8003da8 <HAL_RTCEx_BKUPRead>
 80016e6:	f3c4 0209 	ubfx	r2, r4, #0, #10
 80016ea:	f44f 717a 	mov.w	r1, #1000	; 0x3e8
 80016ee:	fba2 2101 	umull	r2, r1, r2, r1
 80016f2:	0a92      	lsrs	r2, r2, #10
 80016f4:	0aa3      	lsrs	r3, r4, #10
 80016f6:	802a      	strh	r2, [r5, #0]
 80016f8:	ea43 5080 	orr.w	r0, r3, r0, lsl #22
 80016fc:	bd38      	pop	{r3, r4, r5, pc}
 80016fe:	bf00      	nop
 8001700:	20000208 	.word	0x20000208

08001704 <TIMER_IF_BkUp_Read_Seconds>:
 8001704:	4801      	ldr	r0, [pc, #4]	; (800170c <TIMER_IF_BkUp_Read_Seconds+0x8>)
 8001706:	2100      	movs	r1, #0
 8001708:	f002 bb4e 	b.w	8003da8 <HAL_RTCEx_BKUPRead>
 800170c:	20000208 	.word	0x20000208

08001710 <TIMER_IF_BkUp_Read_SubSeconds>:
 8001710:	4801      	ldr	r0, [pc, #4]	; (8001718 <TIMER_IF_BkUp_Read_SubSeconds+0x8>)
 8001712:	2101      	movs	r1, #1
 8001714:	f002 bb48 	b.w	8003da8 <HAL_RTCEx_BKUPRead>
 8001718:	20000208 	.word	0x20000208

0800171c <TIMER_IF_Init>:
 800171c:	b5f8      	push	{r3, r4, r5, r6, r7, lr}
 800171e:	4d0f      	ldr	r5, [pc, #60]	; (800175c <TIMER_IF_Init+0x40>)
 8001720:	782e      	ldrb	r6, [r5, #0]
 8001722:	b9ce      	cbnz	r6, 8001758 <TIMER_IF_Init+0x3c>
 8001724:	4c0e      	ldr	r4, [pc, #56]	; (8001760 <TIMER_IF_Init+0x44>)
 8001726:	f04f 37ff 	mov.w	r7, #4294967295
 800172a:	6327      	str	r7, [r4, #48]	; 0x30
 800172c:	f7ff fd60 	bl	80011f0 <MX_RTC_Init>
 8001730:	f7ff ff84 	bl	800163c <TIMER_IF_StopTimer>
 8001734:	f44f 7180 	mov.w	r1, #256	; 0x100
 8001738:	4620      	mov	r0, r4
 800173a:	f002 f915 	bl	8003968 <HAL_RTC_DeactivateAlarm>
 800173e:	4620      	mov	r0, r4
 8001740:	6327      	str	r7, [r4, #48]	; 0x30
 8001742:	f002 fad5 	bl	8003cf0 <HAL_RTCEx_EnableBypassShadow>
 8001746:	4632      	mov	r2, r6
 8001748:	4620      	mov	r0, r4
 800174a:	2102      	movs	r1, #2
 800174c:	f002 fb25 	bl	8003d9a <HAL_RTCEx_BKUPWrite>
 8001750:	f7ff ff5a 	bl	8001608 <TIMER_IF_SetTimerContext>
 8001754:	2301      	movs	r3, #1
 8001756:	702b      	strb	r3, [r5, #0]
 8001758:	2000      	movs	r0, #0
 800175a:	bdf8      	pop	{r3, r4, r5, r6, r7, pc}
 800175c:	2000024d 	.word	0x2000024d
 8001760:	20000208 	.word	0x20000208

08001764 <TIMER_IF_DelayMs>:
 8001764:	4601      	mov	r1, r0
 8001766:	b510      	push	{r4, lr}
 8001768:	f44f 727a 	mov.w	r2, #1000	; 0x3e8
 800176c:	2300      	movs	r3, #0
 800176e:	0280      	lsls	r0, r0, #10
 8001770:	0d89      	lsrs	r1, r1, #22
 8001772:	f7ff f8fd 	bl	8000970 <__aeabi_uldivmod>
 8001776:	4601      	mov	r1, r0
 8001778:	f7ff ff3c 	bl	80015f4 <GetTimerTicks>
 800177c:	4604      	mov	r4, r0
 800177e:	f7ff ff39 	bl	80015f4 <GetTimerTicks>
 8001782:	1b03      	subs	r3, r0, r4
 8001784:	428b      	cmp	r3, r1
 8001786:	d300      	bcc.n	800178a <TIMER_IF_DelayMs+0x26>
 8001788:	bd10      	pop	{r4, pc}
 800178a:	bf00      	nop
 800178c:	e7f7      	b.n	800177e <TIMER_IF_DelayMs+0x1a>

0800178e <HAL_RTC_AlarmAEventCallback>:
 800178e:	f00c baad 	b.w	800dcec <UTIL_TIMER_IRQ_Handler>
	...

08001794 <HAL_RTCEx_SSRUEventCallback>:
 8001794:	b510      	push	{r4, lr}
 8001796:	4c06      	ldr	r4, [pc, #24]	; (80017b0 <HAL_RTCEx_SSRUEventCallback+0x1c>)
 8001798:	2102      	movs	r1, #2
 800179a:	4620      	mov	r0, r4
 800179c:	f002 fb04 	bl	8003da8 <HAL_RTCEx_BKUPRead>
 80017a0:	2102      	movs	r1, #2
 80017a2:	1c42      	adds	r2, r0, #1
 80017a4:	4620      	mov	r0, r4
 80017a6:	e8bd 4010 	ldmia.w	sp!, {r4, lr}
 80017aa:	f002 baf6 	b.w	8003d9a <HAL_RTCEx_BKUPWrite>
 80017ae:	bf00      	nop
 80017b0:	20000208 	.word	0x20000208

080017b4 <MX_USART2_UART_Init>:
 80017b4:	4816      	ldr	r0, [pc, #88]	; (8001810 <MX_USART2_UART_Init+0x5c>)
 80017b6:	4a17      	ldr	r2, [pc, #92]	; (8001814 <MX_USART2_UART_Init+0x60>)
 80017b8:	b508      	push	{r3, lr}
 80017ba:	f44f 33e1 	mov.w	r3, #115200	; 0x1c200
 80017be:	e9c0 2300 	strd	r2, r3, [r0]
 80017c2:	2300      	movs	r3, #0
 80017c4:	220c      	movs	r2, #12
 80017c6:	e9c0 3302 	strd	r3, r3, [r0, #8]
 80017ca:	e9c0 2305 	strd	r2, r3, [r0, #20]
 80017ce:	e9c0 3307 	strd	r3, r3, [r0, #28]
 80017d2:	e9c0 3309 	strd	r3, r3, [r0, #36]	; 0x24
 80017d6:	6103      	str	r3, [r0, #16]
 80017d8:	f003 fc26 	bl	8005028 <HAL_UART_Init>
 80017dc:	b108      	cbz	r0, 80017e2 <MX_USART2_UART_Init+0x2e>
 80017de:	f7ff fd05 	bl	80011ec <Error_Handler>
 80017e2:	480b      	ldr	r0, [pc, #44]	; (8001810 <MX_USART2_UART_Init+0x5c>)
 80017e4:	2100      	movs	r1, #0
 80017e6:	f003 fda7 	bl	8005338 <HAL_UARTEx_SetTxFifoThreshold>
 80017ea:	b108      	cbz	r0, 80017f0 <MX_USART2_UART_Init+0x3c>
 80017ec:	f7ff fcfe 	bl	80011ec <Error_Handler>
 80017f0:	4807      	ldr	r0, [pc, #28]	; (8001810 <MX_USART2_UART_Init+0x5c>)
 80017f2:	2100      	movs	r1, #0
 80017f4:	f003 fdc4 	bl	8005380 <HAL_UARTEx_SetRxFifoThreshold>
 80017f8:	b108      	cbz	r0, 80017fe <MX_USART2_UART_Init+0x4a>
 80017fa:	f7ff fcf7 	bl	80011ec <Error_Handler>
 80017fe:	4804      	ldr	r0, [pc, #16]	; (8001810 <MX_USART2_UART_Init+0x5c>)
 8001800:	f003 fd7f 	bl	8005302 <HAL_UARTEx_DisableFifoMode>
 8001804:	b118      	cbz	r0, 800180e <MX_USART2_UART_Init+0x5a>
 8001806:	e8bd 4008 	ldmia.w	sp!, {r3, lr}
 800180a:	f7ff bcef 	b.w	80011ec <Error_Handler>
 800180e:	bd08      	pop	{r3, pc}
 8001810:	200002b4 	.word	0x200002b4
 8001814:	40004400 	.word	0x40004400

08001818 <HAL_UART_MspInit>:
 8001818:	b570      	push	{r4, r5, r6, lr}
 800181a:	b096      	sub	sp, #88	; 0x58
 800181c:	4606      	mov	r6, r0
 800181e:	2214      	movs	r2, #20
 8001820:	2100      	movs	r1, #0
 8001822:	a803      	add	r0, sp, #12
 8001824:	f00c fb4a 	bl	800debc <memset>
 8001828:	2238      	movs	r2, #56	; 0x38
 800182a:	2100      	movs	r1, #0
 800182c:	a808      	add	r0, sp, #32
 800182e:	f00c fb45 	bl	800debc <memset>
 8001832:	6832      	ldr	r2, [r6, #0]
 8001834:	4b27      	ldr	r3, [pc, #156]	; (80018d4 <HAL_UART_MspInit+0xbc>)
 8001836:	429a      	cmp	r2, r3
 8001838:	d14a      	bne.n	80018d0 <HAL_UART_MspInit+0xb8>
 800183a:	2302      	movs	r3, #2
 800183c:	9308      	str	r3, [sp, #32]
 800183e:	a808      	add	r0, sp, #32
 8001840:	f44f 2340 	mov.w	r3, #786432	; 0xc0000
 8001844:	930a      	str	r3, [sp, #40]	; 0x28
 8001846:	f001 ffb9 	bl	80037bc <HAL_RCCEx_PeriphCLKConfig>
 800184a:	b108      	cbz	r0, 8001850 <HAL_UART_MspInit+0x38>
 800184c:	f7ff fcce 	bl	80011ec <Error_Handler>
 8001850:	f04f 43b0 	mov.w	r3, #1476395008	; 0x58000000
 8001854:	2500      	movs	r5, #0
 8001856:	6d9a      	ldr	r2, [r3, #88]	; 0x58
 8001858:	4c1f      	ldr	r4, [pc, #124]	; (80018d8 <HAL_UART_MspInit+0xc0>)
 800185a:	f442 3200 	orr.w	r2, r2, #131072	; 0x20000
 800185e:	659a      	str	r2, [r3, #88]	; 0x58
 8001860:	6d9a      	ldr	r2, [r3, #88]	; 0x58
 8001862:	f402 3200 	and.w	r2, r2, #131072	; 0x20000
 8001866:	9202      	str	r2, [sp, #8]
 8001868:	9a02      	ldr	r2, [sp, #8]
 800186a:	6cda      	ldr	r2, [r3, #76]	; 0x4c
 800186c:	f042 0201 	orr.w	r2, r2, #1
 8001870:	64da      	str	r2, [r3, #76]	; 0x4c
 8001872:	6cdb      	ldr	r3, [r3, #76]	; 0x4c
 8001874:	f003 0301 	and.w	r3, r3, #1
 8001878:	9301      	str	r3, [sp, #4]
 800187a:	9b01      	ldr	r3, [sp, #4]
 800187c:	220c      	movs	r2, #12
 800187e:	2302      	movs	r3, #2
 8001880:	e9cd 2303 	strd	r2, r3, [sp, #12]
 8001884:	a903      	add	r1, sp, #12
 8001886:	2307      	movs	r3, #7
 8001888:	f04f 4090 	mov.w	r0, #1207959552	; 0x48000000
 800188c:	9307      	str	r3, [sp, #28]
 800188e:	e9cd 5505 	strd	r5, r5, [sp, #20]
 8001892:	f001 f92d 	bl	8002af0 <HAL_GPIO_Init>
 8001896:	4911      	ldr	r1, [pc, #68]	; (80018dc <HAL_UART_MspInit+0xc4>)
 8001898:	6225      	str	r5, [r4, #32]
 800189a:	2314      	movs	r3, #20
 800189c:	e9c4 1300 	strd	r1, r3, [r4]
 80018a0:	2310      	movs	r3, #16
 80018a2:	e9c4 3502 	strd	r3, r5, [r4, #8]
 80018a6:	4620      	mov	r0, r4
 80018a8:	2380      	movs	r3, #128	; 0x80
 80018aa:	e9c4 3504 	strd	r3, r5, [r4, #16]
 80018ae:	e9c4 5506 	strd	r5, r5, [r4, #24]
 80018b2:	f000 fe1d 	bl	80024f0 <HAL_DMA_Init>
 80018b6:	b108      	cbz	r0, 80018bc <HAL_UART_MspInit+0xa4>
 80018b8:	f7ff fc98 	bl	80011ec <Error_Handler>
 80018bc:	2025      	movs	r0, #37	; 0x25
 80018be:	67b4      	str	r4, [r6, #120]	; 0x78
 80018c0:	2200      	movs	r2, #0
 80018c2:	2102      	movs	r1, #2
 80018c4:	62a6      	str	r6, [r4, #40]	; 0x28
 80018c6:	f000 fd7f 	bl	80023c8 <HAL_NVIC_SetPriority>
 80018ca:	2025      	movs	r0, #37	; 0x25
 80018cc:	f000 fdae 	bl	800242c <HAL_NVIC_EnableIRQ>
 80018d0:	b016      	add	sp, #88	; 0x58
 80018d2:	bd70      	pop	{r4, r5, r6, pc}
 80018d4:	40004400 	.word	0x40004400
 80018d8:	20000254 	.word	0x20000254
 80018dc:	40020008 	.word	0x40020008

080018e0 <HAL_UART_MspDeInit>:
 80018e0:	6802      	ldr	r2, [r0, #0]
 80018e2:	4b0c      	ldr	r3, [pc, #48]	; (8001914 <HAL_UART_MspDeInit+0x34>)
 80018e4:	429a      	cmp	r2, r3
 80018e6:	b510      	push	{r4, lr}
 80018e8:	4604      	mov	r4, r0
 80018ea:	d112      	bne.n	8001912 <HAL_UART_MspDeInit+0x32>
 80018ec:	f04f 42b0 	mov.w	r2, #1476395008	; 0x58000000
 80018f0:	210c      	movs	r1, #12
 80018f2:	6d93      	ldr	r3, [r2, #88]	; 0x58
 80018f4:	f423 3300 	bic.w	r3, r3, #131072	; 0x20000
 80018f8:	6593      	str	r3, [r2, #88]	; 0x58
 80018fa:	f04f 4090 	mov.w	r0, #1207959552	; 0x48000000
 80018fe:	f001 f9a3 	bl	8002c48 <HAL_GPIO_DeInit>
 8001902:	6fa0      	ldr	r0, [r4, #120]	; 0x78
 8001904:	f000 fe6a 	bl	80025dc <HAL_DMA_DeInit>
 8001908:	e8bd 4010 	ldmia.w	sp!, {r4, lr}
 800190c:	2025      	movs	r0, #37	; 0x25
 800190e:	f000 bd9b 	b.w	8002448 <HAL_NVIC_DisableIRQ>
 8001912:	bd10      	pop	{r4, pc}
 8001914:	40004400 	.word	0x40004400

08001918 <vcom_Trace_DMA>:
 8001918:	b508      	push	{r3, lr}
 800191a:	460a      	mov	r2, r1
 800191c:	4601      	mov	r1, r0
 800191e:	4802      	ldr	r0, [pc, #8]	; (8001928 <vcom_Trace_DMA+0x10>)
 8001920:	f002 fd42 	bl	80043a8 <HAL_UART_Transmit_DMA>
 8001924:	2000      	movs	r0, #0
 8001926:	bd08      	pop	{r3, pc}
 8001928:	200002b4 	.word	0x200002b4

0800192c <vcom_ReceiveInit>:
 800192c:	b513      	push	{r0, r1, r4, lr}
 800192e:	4b11      	ldr	r3, [pc, #68]	; (8001974 <vcom_ReceiveInit+0x48>)
 8001930:	4c11      	ldr	r4, [pc, #68]	; (8001978 <vcom_ReceiveInit+0x4c>)
 8001932:	6018      	str	r0, [r3, #0]
 8001934:	f44f 1300 	mov.w	r3, #2097152	; 0x200000
 8001938:	9300      	str	r3, [sp, #0]
 800193a:	ab02      	add	r3, sp, #8
 800193c:	e913 0006 	ldmdb	r3, {r1, r2}
 8001940:	4620      	mov	r0, r4
 8001942:	f003 fc82 	bl	800524a <HAL_UARTEx_StopModeWakeUpSourceConfig>
 8001946:	6823      	ldr	r3, [r4, #0]
 8001948:	69da      	ldr	r2, [r3, #28]
 800194a:	03d1      	lsls	r1, r2, #15
 800194c:	d4fc      	bmi.n	8001948 <vcom_ReceiveInit+0x1c>
 800194e:	69da      	ldr	r2, [r3, #28]
 8001950:	0252      	lsls	r2, r2, #9
 8001952:	d5fc      	bpl.n	800194e <vcom_ReceiveInit+0x22>
 8001954:	689a      	ldr	r2, [r3, #8]
 8001956:	4808      	ldr	r0, [pc, #32]	; (8001978 <vcom_ReceiveInit+0x4c>)
 8001958:	f442 0280 	orr.w	r2, r2, #4194304	; 0x400000
 800195c:	609a      	str	r2, [r3, #8]
 800195e:	f003 fcba 	bl	80052d6 <HAL_UARTEx_EnableStopMode>
 8001962:	4906      	ldr	r1, [pc, #24]	; (800197c <vcom_ReceiveInit+0x50>)
 8001964:	4804      	ldr	r0, [pc, #16]	; (8001978 <vcom_ReceiveInit+0x4c>)
 8001966:	2201      	movs	r2, #1
 8001968:	f003 fc20 	bl	80051ac <HAL_UART_Receive_IT>
 800196c:	2000      	movs	r0, #0
 800196e:	b002      	add	sp, #8
 8001970:	bd10      	pop	{r4, pc}
 8001972:	bf00      	nop
 8001974:	20000344 	.word	0x20000344
 8001978:	200002b4 	.word	0x200002b4
 800197c:	2000034c 	.word	0x2000034c

08001980 <vcom_Init>:
 8001980:	b508      	push	{r3, lr}
 8001982:	4b07      	ldr	r3, [pc, #28]	; (80019a0 <vcom_Init+0x20>)
 8001984:	6018      	str	r0, [r3, #0]
 8001986:	f7ff fa59 	bl	8000e3c <MX_DMA_Init>
 800198a:	f7ff ff13 	bl	80017b4 <MX_USART2_UART_Init>
 800198e:	4a05      	ldr	r2, [pc, #20]	; (80019a4 <vcom_Init+0x24>)
 8001990:	f8d2 3080 	ldr.w	r3, [r2, #128]	; 0x80
 8001994:	f043 6300 	orr.w	r3, r3, #134217728	; 0x8000000
 8001998:	f8c2 3080 	str.w	r3, [r2, #128]	; 0x80
 800199c:	2000      	movs	r0, #0
 800199e:	bd08      	pop	{r3, pc}
 80019a0:	20000348 	.word	0x20000348
 80019a4:	58000800 	.word	0x58000800

080019a8 <vcom_DeInit>:
 80019a8:	b508      	push	{r3, lr}
 80019aa:	f04f 43b0 	mov.w	r3, #1476395008	; 0x58000000
 80019ae:	4808      	ldr	r0, [pc, #32]	; (80019d0 <vcom_DeInit+0x28>)
 80019b0:	6b9a      	ldr	r2, [r3, #56]	; 0x38
 80019b2:	f442 3200 	orr.w	r2, r2, #131072	; 0x20000
 80019b6:	639a      	str	r2, [r3, #56]	; 0x38
 80019b8:	6b9a      	ldr	r2, [r3, #56]	; 0x38
 80019ba:	f422 3200 	bic.w	r2, r2, #131072	; 0x20000
 80019be:	639a      	str	r2, [r3, #56]	; 0x38
 80019c0:	f7ff ff8e 	bl	80018e0 <HAL_UART_MspDeInit>
 80019c4:	200f      	movs	r0, #15
 80019c6:	f000 fd3f 	bl	8002448 <HAL_NVIC_DisableIRQ>
 80019ca:	2000      	movs	r0, #0
 80019cc:	bd08      	pop	{r3, pc}
 80019ce:	bf00      	nop
 80019d0:	200002b4 	.word	0x200002b4

080019d4 <vcom_Resume>:
 80019d4:	b508      	push	{r3, lr}
 80019d6:	4807      	ldr	r0, [pc, #28]	; (80019f4 <vcom_Resume+0x20>)
 80019d8:	f003 fb26 	bl	8005028 <HAL_UART_Init>
 80019dc:	b108      	cbz	r0, 80019e2 <vcom_Resume+0xe>
 80019de:	f7ff fc05 	bl	80011ec <Error_Handler>
 80019e2:	4805      	ldr	r0, [pc, #20]	; (80019f8 <vcom_Resume+0x24>)
 80019e4:	f000 fd84 	bl	80024f0 <HAL_DMA_Init>
 80019e8:	b118      	cbz	r0, 80019f2 <vcom_Resume+0x1e>
 80019ea:	e8bd 4008 	ldmia.w	sp!, {r3, lr}
 80019ee:	f7ff bbfd 	b.w	80011ec <Error_Handler>
 80019f2:	bd08      	pop	{r3, pc}
 80019f4:	200002b4 	.word	0x200002b4
 80019f8:	20000254 	.word	0x20000254

080019fc <HAL_UART_TxCpltCallback>:
 80019fc:	6802      	ldr	r2, [r0, #0]
 80019fe:	4b04      	ldr	r3, [pc, #16]	; (8001a10 <HAL_UART_TxCpltCallback+0x14>)
 8001a00:	429a      	cmp	r2, r3
 8001a02:	d103      	bne.n	8001a0c <HAL_UART_TxCpltCallback+0x10>
 8001a04:	4b03      	ldr	r3, [pc, #12]	; (8001a14 <HAL_UART_TxCpltCallback+0x18>)
 8001a06:	2000      	movs	r0, #0
 8001a08:	681b      	ldr	r3, [r3, #0]
 8001a0a:	4718      	bx	r3
 8001a0c:	4770      	bx	lr
 8001a0e:	bf00      	nop
 8001a10:	40004400 	.word	0x40004400
 8001a14:	20000348 	.word	0x20000348

08001a18 <HAL_UART_RxCpltCallback>:
 8001a18:	6802      	ldr	r2, [r0, #0]
 8001a1a:	4b0b      	ldr	r3, [pc, #44]	; (8001a48 <HAL_UART_RxCpltCallback+0x30>)
 8001a1c:	429a      	cmp	r2, r3
 8001a1e:	b510      	push	{r4, lr}
 8001a20:	4604      	mov	r4, r0
 8001a22:	d10f      	bne.n	8001a44 <HAL_UART_RxCpltCallback+0x2c>
 8001a24:	4b09      	ldr	r3, [pc, #36]	; (8001a4c <HAL_UART_RxCpltCallback+0x34>)
 8001a26:	681b      	ldr	r3, [r3, #0]
 8001a28:	b12b      	cbz	r3, 8001a36 <HAL_UART_RxCpltCallback+0x1e>
 8001a2a:	f8d0 208c 	ldr.w	r2, [r0, #140]	; 0x8c
 8001a2e:	b912      	cbnz	r2, 8001a36 <HAL_UART_RxCpltCallback+0x1e>
 8001a30:	4807      	ldr	r0, [pc, #28]	; (8001a50 <HAL_UART_RxCpltCallback+0x38>)
 8001a32:	2101      	movs	r1, #1
 8001a34:	4798      	blx	r3
 8001a36:	4620      	mov	r0, r4
 8001a38:	4905      	ldr	r1, [pc, #20]	; (8001a50 <HAL_UART_RxCpltCallback+0x38>)
 8001a3a:	e8bd 4010 	ldmia.w	sp!, {r4, lr}
 8001a3e:	2201      	movs	r2, #1
 8001a40:	f003 bbb4 	b.w	80051ac <HAL_UART_Receive_IT>
 8001a44:	bd10      	pop	{r4, pc}
 8001a46:	bf00      	nop
 8001a48:	40004400 	.word	0x40004400
 8001a4c:	20000344 	.word	0x20000344
 8001a50:	2000034c 	.word	0x2000034c

08001a54 <Reset_Handler>:
 8001a54:	480d      	ldr	r0, [pc, #52]	; (8001a8c <LoopForever+0x2>)
 8001a56:	4685      	mov	sp, r0
 8001a58:	f7ff fdb0 	bl	80015bc <SystemInit>
 8001a5c:	480c      	ldr	r0, [pc, #48]	; (8001a90 <LoopForever+0x6>)
 8001a5e:	490d      	ldr	r1, [pc, #52]	; (8001a94 <LoopForever+0xa>)
 8001a60:	4a0d      	ldr	r2, [pc, #52]	; (8001a98 <LoopForever+0xe>)
 8001a62:	2300      	movs	r3, #0
 8001a64:	e002      	b.n	8001a6c <LoopCopyDataInit>

08001a66 <CopyDataInit>:
 8001a66:	58d4      	ldr	r4, [r2, r3]
 8001a68:	50c4      	str	r4, [r0, r3]
 8001a6a:	3304      	adds	r3, #4

08001a6c <LoopCopyDataInit>:
 8001a6c:	18c4      	adds	r4, r0, r3
 8001a6e:	428c      	cmp	r4, r1
 8001a70:	d3f9      	bcc.n	8001a66 <CopyDataInit>
 8001a72:	4a0a      	ldr	r2, [pc, #40]	; (8001a9c <LoopForever+0x12>)
 8001a74:	4c0a      	ldr	r4, [pc, #40]	; (8001aa0 <LoopForever+0x16>)
 8001a76:	2300      	movs	r3, #0
 8001a78:	e001      	b.n	8001a7e <LoopFillZerobss>

08001a7a <FillZerobss>:
 8001a7a:	6013      	str	r3, [r2, #0]
 8001a7c:	3204      	adds	r2, #4

08001a7e <LoopFillZerobss>:
 8001a7e:	42a2      	cmp	r2, r4
 8001a80:	d3fb      	bcc.n	8001a7a <FillZerobss>
 8001a82:	f00c f9f7 	bl	800de74 <__libc_init_array>
 8001a86:	f7ff fb9f 	bl	80011c8 <main>

08001a8a <LoopForever>:
 8001a8a:	e7fe      	b.n	8001a8a <LoopForever>
 8001a8c:	20010000 	.word	0x20010000
 8001a90:	20000000 	.word	0x20000000
 8001a94:	20000188 	.word	0x20000188
 8001a98:	0800f0d8 	.word	0x0800f0d8
 8001a9c:	20000188 	.word	0x20000188
 8001aa0:	200020b4 	.word	0x200020b4

08001aa4 <ADC_IRQHandler>:
 8001aa4:	e7fe      	b.n	8001aa4 <ADC_IRQHandler>
	...

08001aa8 <HAL_Init>:
 8001aa8:	b510      	push	{r4, lr}
 8001aaa:	2003      	movs	r0, #3
 8001aac:	f000 fc7a 	bl	80023a4 <HAL_NVIC_SetPriorityGrouping>
 8001ab0:	f001 fab2 	bl	8003018 <HAL_RCC_GetHCLKFreq>
 8001ab4:	4b06      	ldr	r3, [pc, #24]	; (8001ad0 <HAL_Init+0x28>)
 8001ab6:	6018      	str	r0, [r3, #0]
 8001ab8:	200f      	movs	r0, #15
 8001aba:	f7ff fd47 	bl	800154c <HAL_InitTick>
 8001abe:	4604      	mov	r4, r0
 8001ac0:	b918      	cbnz	r0, 8001aca <HAL_Init+0x22>
 8001ac2:	f7ff fc30 	bl	8001326 <HAL_MspInit>
 8001ac6:	4620      	mov	r0, r4
 8001ac8:	bd10      	pop	{r4, pc}
 8001aca:	2401      	movs	r4, #1
 8001acc:	e7fb      	b.n	8001ac6 <HAL_Init+0x1e>
 8001ace:	bf00      	nop
 8001ad0:	20000000 	.word	0x20000000

08001ad4 <HAL_SuspendTick>:
 8001ad4:	f04f 22e0 	mov.w	r2, #3758153728	; 0xe000e000
 8001ad8:	6913      	ldr	r3, [r2, #16]
 8001ada:	f023 0302 	bic.w	r3, r3, #2
 8001ade:	6113      	str	r3, [r2, #16]
 8001ae0:	4770      	bx	lr

08001ae2 <HAL_ResumeTick>:
 8001ae2:	f04f 22e0 	mov.w	r2, #3758153728	; 0xe000e000
 8001ae6:	6913      	ldr	r3, [r2, #16]
 8001ae8:	f043 0302 	orr.w	r3, r3, #2
 8001aec:	6113      	str	r3, [r2, #16]
 8001aee:	4770      	bx	lr

08001af0 <HAL_GetUIDw0>:
 8001af0:	4b01      	ldr	r3, [pc, #4]	; (8001af8 <HAL_GetUIDw0+0x8>)
 8001af2:	f8d3 0590 	ldr.w	r0, [r3, #1424]	; 0x590
 8001af6:	4770      	bx	lr
 8001af8:	1fff7000 	.word	0x1fff7000

08001afc <HAL_GetUIDw1>:
 8001afc:	4b01      	ldr	r3, [pc, #4]	; (8001b04 <HAL_GetUIDw1+0x8>)
 8001afe:	f8d3 0594 	ldr.w	r0, [r3, #1428]	; 0x594
 8001b02:	4770      	bx	lr
 8001b04:	1fff7000 	.word	0x1fff7000

08001b08 <HAL_GetUIDw2>:
 8001b08:	4b01      	ldr	r3, [pc, #4]	; (8001b10 <HAL_GetUIDw2+0x8>)
 8001b0a:	f8d3 0598 	ldr.w	r0, [r3, #1432]	; 0x598
 8001b0e:	4770      	bx	lr
 8001b10:	1fff7000 	.word	0x1fff7000

08001b14 <HAL_DBGMCU_DisableDBGSleepMode>:
 8001b14:	4a02      	ldr	r2, [pc, #8]	; (8001b20 <HAL_DBGMCU_DisableDBGSleepMode+0xc>)
 8001b16:	6853      	ldr	r3, [r2, #4]
 8001b18:	f023 0301 	bic.w	r3, r3, #1
 8001b1c:	6053      	str	r3, [r2, #4]
 8001b1e:	4770      	bx	lr
 8001b20:	e0042000 	.word	0xe0042000

08001b24 <HAL_DBGMCU_DisableDBGStopMode>:
 8001b24:	4a02      	ldr	r2, [pc, #8]	; (8001b30 <HAL_DBGMCU_DisableDBGStopMode+0xc>)
 8001b26:	6853      	ldr	r3, [r2, #4]
 8001b28:	f023 0302 	bic.w	r3, r3, #2
 8001b2c:	6053      	str	r3, [r2, #4]
 8001b2e:	4770      	bx	lr
 8001b30:	e0042000 	.word	0xe0042000

08001b34 <HAL_DBGMCU_DisableDBGStandbyMode>:
 8001b34:	4a02      	ldr	r2, [pc, #8]	; (8001b40 <HAL_DBGMCU_DisableDBGStandbyMode+0xc>)
 8001b36:	6853      	ldr	r3, [r2, #4]
 8001b38:	f023 0304 	bic.w	r3, r3, #4
 8001b3c:	6053      	str	r3, [r2, #4]
 8001b3e:	4770      	bx	lr
 8001b40:	e0042000 	.word	0xe0042000

08001b44 <LL_ADC_REG_IsConversionOngoing>:
 8001b44:	6880      	ldr	r0, [r0, #8]
 8001b46:	f3c0 0080 	ubfx	r0, r0, #2, #1
 8001b4a:	4770      	bx	lr

08001b4c <HAL_ADC_Init>:
 8001b4c:	b5f7      	push	{r0, r1, r2, r4, r5, r6, r7, lr}
 8001b4e:	2300      	movs	r3, #0
 8001b50:	9301      	str	r3, [sp, #4]
 8001b52:	4604      	mov	r4, r0
 8001b54:	2800      	cmp	r0, #0
 8001b56:	f000 80f9 	beq.w	8001d4c <HAL_ADC_Init+0x200>
 8001b5a:	6d85      	ldr	r5, [r0, #88]	; 0x58
 8001b5c:	b925      	cbnz	r5, 8001b68 <HAL_ADC_Init+0x1c>
 8001b5e:	f7ff f8b7 	bl	8000cd0 <HAL_ADC_MspInit>
 8001b62:	65e5      	str	r5, [r4, #92]	; 0x5c
 8001b64:	f884 5054 	strb.w	r5, [r4, #84]	; 0x54
 8001b68:	6820      	ldr	r0, [r4, #0]
 8001b6a:	6883      	ldr	r3, [r0, #8]
 8001b6c:	00d9      	lsls	r1, r3, #3
 8001b6e:	f140 80a4 	bpl.w	8001cba <HAL_ADC_Init+0x16e>
 8001b72:	6883      	ldr	r3, [r0, #8]
 8001b74:	00da      	lsls	r2, r3, #3
 8001b76:	f100 80b7 	bmi.w	8001ce8 <HAL_ADC_Init+0x19c>
 8001b7a:	6da3      	ldr	r3, [r4, #88]	; 0x58
 8001b7c:	f043 0310 	orr.w	r3, r3, #16
 8001b80:	65a3      	str	r3, [r4, #88]	; 0x58
 8001b82:	6de3      	ldr	r3, [r4, #92]	; 0x5c
 8001b84:	f043 0301 	orr.w	r3, r3, #1
 8001b88:	65e3      	str	r3, [r4, #92]	; 0x5c
 8001b8a:	2501      	movs	r5, #1
 8001b8c:	f7ff ffda 	bl	8001b44 <LL_ADC_REG_IsConversionOngoing>
 8001b90:	6da3      	ldr	r3, [r4, #88]	; 0x58
 8001b92:	f003 0310 	and.w	r3, r3, #16
 8001b96:	4318      	orrs	r0, r3
 8001b98:	6da3      	ldr	r3, [r4, #88]	; 0x58
 8001b9a:	f040 80d9 	bne.w	8001d50 <HAL_ADC_Init+0x204>
 8001b9e:	f423 7381 	bic.w	r3, r3, #258	; 0x102
 8001ba2:	f043 0302 	orr.w	r3, r3, #2
 8001ba6:	6821      	ldr	r1, [r4, #0]
 8001ba8:	65a3      	str	r3, [r4, #88]	; 0x58
 8001baa:	688b      	ldr	r3, [r1, #8]
 8001bac:	07db      	lsls	r3, r3, #31
 8001bae:	d460      	bmi.n	8001c72 <HAL_ADC_Init+0x126>
 8001bb0:	68e3      	ldr	r3, [r4, #12]
 8001bb2:	68a2      	ldr	r2, [r4, #8]
 8001bb4:	f894 e018 	ldrb.w	lr, [r4, #24]
 8001bb8:	f894 c019 	ldrb.w	ip, [r4, #25]
 8001bbc:	6b27      	ldr	r7, [r4, #48]	; 0x30
 8001bbe:	7ea6      	ldrb	r6, [r4, #26]
 8001bc0:	431a      	orrs	r2, r3
 8001bc2:	ea42 338e 	orr.w	r3, r2, lr, lsl #14
 8001bc6:	ea43 33cc 	orr.w	r3, r3, ip, lsl #15
 8001bca:	6922      	ldr	r2, [r4, #16]
 8001bcc:	f894 c02c 	ldrb.w	ip, [r4, #44]	; 0x2c
 8001bd0:	2f00      	cmp	r7, #0
 8001bd2:	ea43 3346 	orr.w	r3, r3, r6, lsl #13
 8001bd6:	bf18      	it	ne
 8001bd8:	f44f 5780 	movne.w	r7, #4096	; 0x1000
 8001bdc:	ea43 034c 	orr.w	r3, r3, ip, lsl #1
 8001be0:	2a00      	cmp	r2, #0
 8001be2:	bfb4      	ite	lt
 8001be4:	f022 4200 	biclt.w	r2, r2, #2147483648	; 0x80000000
 8001be8:	f44f 1200 	movge.w	r2, #2097152	; 0x200000
 8001bec:	433b      	orrs	r3, r7
 8001bee:	4313      	orrs	r3, r2
 8001bf0:	f894 2020 	ldrb.w	r2, [r4, #32]
 8001bf4:	2a01      	cmp	r2, #1
 8001bf6:	d103      	bne.n	8001c00 <HAL_ADC_Init+0xb4>
 8001bf8:	2e00      	cmp	r6, #0
 8001bfa:	d177      	bne.n	8001cec <HAL_ADC_Init+0x1a0>
 8001bfc:	f443 3380 	orr.w	r3, r3, #65536	; 0x10000
 8001c00:	6a62      	ldr	r2, [r4, #36]	; 0x24
 8001c02:	b122      	cbz	r2, 8001c0e <HAL_ADC_Init+0xc2>
 8001c04:	6aa6      	ldr	r6, [r4, #40]	; 0x28
 8001c06:	f402 72e0 	and.w	r2, r2, #448	; 0x1c0
 8001c0a:	4332      	orrs	r2, r6
 8001c0c:	4313      	orrs	r3, r2
 8001c0e:	68ca      	ldr	r2, [r1, #12]
 8001c10:	f422 32fe 	bic.w	r2, r2, #130048	; 0x1fc00
 8001c14:	f422 72ff 	bic.w	r2, r2, #510	; 0x1fe
 8001c18:	4313      	orrs	r3, r2
 8001c1a:	6862      	ldr	r2, [r4, #4]
 8001c1c:	60cb      	str	r3, [r1, #12]
 8001c1e:	6ce3      	ldr	r3, [r4, #76]	; 0x4c
 8001c20:	f002 4c40 	and.w	ip, r2, #3221225472	; 0xc0000000
 8001c24:	ea4c 0703 	orr.w	r7, ip, r3
 8001c28:	f894 303c 	ldrb.w	r3, [r4, #60]	; 0x3c
 8001c2c:	2b01      	cmp	r3, #1
 8001c2e:	d109      	bne.n	8001c44 <HAL_ADC_Init+0xf8>
 8001c30:	e9d4 3610 	ldrd	r3, r6, [r4, #64]	; 0x40
 8001c34:	4333      	orrs	r3, r6
 8001c36:	6ca6      	ldr	r6, [r4, #72]	; 0x48
 8001c38:	433b      	orrs	r3, r7
 8001c3a:	4333      	orrs	r3, r6
 8001c3c:	ea43 030c 	orr.w	r3, r3, ip
 8001c40:	f043 0701 	orr.w	r7, r3, #1
 8001c44:	690b      	ldr	r3, [r1, #16]
 8001c46:	4e44      	ldr	r6, [pc, #272]	; (8001d58 <HAL_ADC_Init+0x20c>)
 8001c48:	401e      	ands	r6, r3
 8001c4a:	f022 4300 	bic.w	r3, r2, #2147483648	; 0x80000000
 8001c4e:	433e      	orrs	r6, r7
 8001c50:	f1b3 4f80 	cmp.w	r3, #1073741824	; 0x40000000
 8001c54:	610e      	str	r6, [r1, #16]
 8001c56:	d00c      	beq.n	8001c72 <HAL_ADC_Init+0x126>
 8001c58:	f1b2 4f00 	cmp.w	r2, #2147483648	; 0x80000000
 8001c5c:	d009      	beq.n	8001c72 <HAL_ADC_Init+0x126>
 8001c5e:	4e3f      	ldr	r6, [pc, #252]	; (8001d5c <HAL_ADC_Init+0x210>)
 8001c60:	f8d6 3708 	ldr.w	r3, [r6, #1800]	; 0x708
 8001c64:	f402 1270 	and.w	r2, r2, #3932160	; 0x3c0000
 8001c68:	f423 1370 	bic.w	r3, r3, #3932160	; 0x3c0000
 8001c6c:	431a      	orrs	r2, r3
 8001c6e:	f8c6 2708 	str.w	r2, [r6, #1800]	; 0x708
 8001c72:	694b      	ldr	r3, [r1, #20]
 8001c74:	6b66      	ldr	r6, [r4, #52]	; 0x34
 8001c76:	6ba2      	ldr	r2, [r4, #56]	; 0x38
 8001c78:	f023 0307 	bic.w	r3, r3, #7
 8001c7c:	4333      	orrs	r3, r6
 8001c7e:	614b      	str	r3, [r1, #20]
 8001c80:	694b      	ldr	r3, [r1, #20]
 8001c82:	f023 0370 	bic.w	r3, r3, #112	; 0x70
 8001c86:	ea43 1302 	orr.w	r3, r3, r2, lsl #4
 8001c8a:	614b      	str	r3, [r1, #20]
 8001c8c:	6923      	ldr	r3, [r4, #16]
 8001c8e:	2b00      	cmp	r3, #0
 8001c90:	d135      	bne.n	8001cfe <HAL_ADC_Init+0x1b2>
 8001c92:	6a8b      	ldr	r3, [r1, #40]	; 0x28
 8001c94:	f063 030f 	orn	r3, r3, #15
 8001c98:	628b      	str	r3, [r1, #40]	; 0x28
 8001c9a:	694b      	ldr	r3, [r1, #20]
 8001c9c:	f003 0307 	and.w	r3, r3, #7
 8001ca0:	429e      	cmp	r6, r3
 8001ca2:	d149      	bne.n	8001d38 <HAL_ADC_Init+0x1ec>
 8001ca4:	2300      	movs	r3, #0
 8001ca6:	65e3      	str	r3, [r4, #92]	; 0x5c
 8001ca8:	6da3      	ldr	r3, [r4, #88]	; 0x58
 8001caa:	f023 0303 	bic.w	r3, r3, #3
 8001cae:	f043 0301 	orr.w	r3, r3, #1
 8001cb2:	65a3      	str	r3, [r4, #88]	; 0x58
 8001cb4:	4628      	mov	r0, r5
 8001cb6:	b003      	add	sp, #12
 8001cb8:	bdf0      	pop	{r4, r5, r6, r7, pc}
 8001cba:	6883      	ldr	r3, [r0, #8]
 8001cbc:	4a28      	ldr	r2, [pc, #160]	; (8001d60 <HAL_ADC_Init+0x214>)
 8001cbe:	f023 4310 	bic.w	r3, r3, #2415919104	; 0x90000000
 8001cc2:	f023 0317 	bic.w	r3, r3, #23
 8001cc6:	f043 5380 	orr.w	r3, r3, #268435456	; 0x10000000
 8001cca:	6083      	str	r3, [r0, #8]
 8001ccc:	4b25      	ldr	r3, [pc, #148]	; (8001d64 <HAL_ADC_Init+0x218>)
 8001cce:	681b      	ldr	r3, [r3, #0]
 8001cd0:	fbb3 f3f2 	udiv	r3, r3, r2
 8001cd4:	3301      	adds	r3, #1
 8001cd6:	005b      	lsls	r3, r3, #1
 8001cd8:	9301      	str	r3, [sp, #4]
 8001cda:	9b01      	ldr	r3, [sp, #4]
 8001cdc:	2b00      	cmp	r3, #0
 8001cde:	f43f af48 	beq.w	8001b72 <HAL_ADC_Init+0x26>
 8001ce2:	9b01      	ldr	r3, [sp, #4]
 8001ce4:	3b01      	subs	r3, #1
 8001ce6:	e7f7      	b.n	8001cd8 <HAL_ADC_Init+0x18c>
 8001ce8:	2500      	movs	r5, #0
 8001cea:	e74f      	b.n	8001b8c <HAL_ADC_Init+0x40>
 8001cec:	6da2      	ldr	r2, [r4, #88]	; 0x58
 8001cee:	f042 0220 	orr.w	r2, r2, #32
 8001cf2:	65a2      	str	r2, [r4, #88]	; 0x58
 8001cf4:	6de2      	ldr	r2, [r4, #92]	; 0x5c
 8001cf6:	f042 0201 	orr.w	r2, r2, #1
 8001cfa:	65e2      	str	r2, [r4, #92]	; 0x5c
 8001cfc:	e780      	b.n	8001c00 <HAL_ADC_Init+0xb4>
 8001cfe:	f5b3 1f00 	cmp.w	r3, #2097152	; 0x200000
 8001d02:	d1ca      	bne.n	8001c9a <HAL_ADC_Init+0x14e>
 8001d04:	6e27      	ldr	r7, [r4, #96]	; 0x60
 8001d06:	0082      	lsls	r2, r0, #2
 8001d08:	fa27 f202 	lsr.w	r2, r7, r2
 8001d0c:	f002 020f 	and.w	r2, r2, #15
 8001d10:	2a0f      	cmp	r2, #15
 8001d12:	d00e      	beq.n	8001d32 <HAL_ADC_Init+0x1e6>
 8001d14:	3001      	adds	r0, #1
 8001d16:	2808      	cmp	r0, #8
 8001d18:	d1f5      	bne.n	8001d06 <HAL_ADC_Init+0x1ba>
 8001d1a:	6a8b      	ldr	r3, [r1, #40]	; 0x28
 8001d1c:	69e3      	ldr	r3, [r4, #28]
 8001d1e:	3b01      	subs	r3, #1
 8001d20:	009b      	lsls	r3, r3, #2
 8001d22:	f003 031c 	and.w	r3, r3, #28
 8001d26:	f06f 020f 	mvn.w	r2, #15
 8001d2a:	fa02 f303 	lsl.w	r3, r2, r3
 8001d2e:	433b      	orrs	r3, r7
 8001d30:	e7b2      	b.n	8001c98 <HAL_ADC_Init+0x14c>
 8001d32:	2801      	cmp	r0, #1
 8001d34:	d0ad      	beq.n	8001c92 <HAL_ADC_Init+0x146>
 8001d36:	e7f0      	b.n	8001d1a <HAL_ADC_Init+0x1ce>
 8001d38:	6da3      	ldr	r3, [r4, #88]	; 0x58
 8001d3a:	f023 0312 	bic.w	r3, r3, #18
 8001d3e:	f043 0310 	orr.w	r3, r3, #16
 8001d42:	65a3      	str	r3, [r4, #88]	; 0x58
 8001d44:	6de3      	ldr	r3, [r4, #92]	; 0x5c
 8001d46:	f043 0301 	orr.w	r3, r3, #1
 8001d4a:	65e3      	str	r3, [r4, #92]	; 0x5c
 8001d4c:	2501      	movs	r5, #1
 8001d4e:	e7b1      	b.n	8001cb4 <HAL_ADC_Init+0x168>
 8001d50:	f043 0310 	orr.w	r3, r3, #16
 8001d54:	65a3      	str	r3, [r4, #88]	; 0x58
 8001d56:	e7f9      	b.n	8001d4c <HAL_ADC_Init+0x200>
 8001d58:	1ffffc02 	.word	0x1ffffc02
 8001d5c:	40012000 	.word	0x40012000
 8001d60:	00030d40 	.word	0x00030d40
 8001d64:	20000000 	.word	0x20000000

08001d68 <HAL_ADC_PollForConversion>:
 8001d68:	b5f8      	push	{r3, r4, r5, r6, r7, lr}
 8001d6a:	6945      	ldr	r5, [r0, #20]
 8001d6c:	2d08      	cmp	r5, #8
 8001d6e:	4604      	mov	r4, r0
 8001d70:	460e      	mov	r6, r1
 8001d72:	d00a      	beq.n	8001d8a <HAL_ADC_PollForConversion+0x22>
 8001d74:	6803      	ldr	r3, [r0, #0]
 8001d76:	68db      	ldr	r3, [r3, #12]
 8001d78:	07d9      	lsls	r1, r3, #31
 8001d7a:	d505      	bpl.n	8001d88 <HAL_ADC_PollForConversion+0x20>
 8001d7c:	6d83      	ldr	r3, [r0, #88]	; 0x58
 8001d7e:	f043 0320 	orr.w	r3, r3, #32
 8001d82:	6583      	str	r3, [r0, #88]	; 0x58
 8001d84:	2001      	movs	r0, #1
 8001d86:	bdf8      	pop	{r3, r4, r5, r6, r7, pc}
 8001d88:	2504      	movs	r5, #4
 8001d8a:	f7ff fbe1 	bl	8001550 <HAL_GetTick>
 8001d8e:	4607      	mov	r7, r0
 8001d90:	6820      	ldr	r0, [r4, #0]
 8001d92:	6803      	ldr	r3, [r0, #0]
 8001d94:	422b      	tst	r3, r5
 8001d96:	d022      	beq.n	8001dde <HAL_ADC_PollForConversion+0x76>
 8001d98:	6da3      	ldr	r3, [r4, #88]	; 0x58
 8001d9a:	f443 7300 	orr.w	r3, r3, #512	; 0x200
 8001d9e:	65a3      	str	r3, [r4, #88]	; 0x58
 8001da0:	68c3      	ldr	r3, [r0, #12]
 8001da2:	f413 6f40 	tst.w	r3, #3072	; 0xc00
 8001da6:	d114      	bne.n	8001dd2 <HAL_ADC_PollForConversion+0x6a>
 8001da8:	7ea3      	ldrb	r3, [r4, #26]
 8001daa:	b993      	cbnz	r3, 8001dd2 <HAL_ADC_PollForConversion+0x6a>
 8001dac:	6803      	ldr	r3, [r0, #0]
 8001dae:	071b      	lsls	r3, r3, #28
 8001db0:	d50f      	bpl.n	8001dd2 <HAL_ADC_PollForConversion+0x6a>
 8001db2:	f7ff fec7 	bl	8001b44 <LL_ADC_REG_IsConversionOngoing>
 8001db6:	bb38      	cbnz	r0, 8001e08 <HAL_ADC_PollForConversion+0xa0>
 8001db8:	6822      	ldr	r2, [r4, #0]
 8001dba:	6853      	ldr	r3, [r2, #4]
 8001dbc:	f023 030c 	bic.w	r3, r3, #12
 8001dc0:	6053      	str	r3, [r2, #4]
 8001dc2:	6da3      	ldr	r3, [r4, #88]	; 0x58
 8001dc4:	f423 7380 	bic.w	r3, r3, #256	; 0x100
 8001dc8:	f023 0301 	bic.w	r3, r3, #1
 8001dcc:	f043 0301 	orr.w	r3, r3, #1
 8001dd0:	65a3      	str	r3, [r4, #88]	; 0x58
 8001dd2:	7e20      	ldrb	r0, [r4, #24]
 8001dd4:	bb08      	cbnz	r0, 8001e1a <HAL_ADC_PollForConversion+0xb2>
 8001dd6:	6823      	ldr	r3, [r4, #0]
 8001dd8:	220c      	movs	r2, #12
 8001dda:	601a      	str	r2, [r3, #0]
 8001ddc:	e7d3      	b.n	8001d86 <HAL_ADC_PollForConversion+0x1e>
 8001dde:	1c72      	adds	r2, r6, #1
 8001de0:	d0d7      	beq.n	8001d92 <HAL_ADC_PollForConversion+0x2a>
 8001de2:	f7ff fbb5 	bl	8001550 <HAL_GetTick>
 8001de6:	1bc0      	subs	r0, r0, r7
 8001de8:	42b0      	cmp	r0, r6
 8001dea:	d801      	bhi.n	8001df0 <HAL_ADC_PollForConversion+0x88>
 8001dec:	2e00      	cmp	r6, #0
 8001dee:	d1cf      	bne.n	8001d90 <HAL_ADC_PollForConversion+0x28>
 8001df0:	6823      	ldr	r3, [r4, #0]
 8001df2:	681b      	ldr	r3, [r3, #0]
 8001df4:	402b      	ands	r3, r5
 8001df6:	d1cb      	bne.n	8001d90 <HAL_ADC_PollForConversion+0x28>
 8001df8:	6da2      	ldr	r2, [r4, #88]	; 0x58
 8001dfa:	f884 3054 	strb.w	r3, [r4, #84]	; 0x54
 8001dfe:	f042 0204 	orr.w	r2, r2, #4
 8001e02:	65a2      	str	r2, [r4, #88]	; 0x58
 8001e04:	2003      	movs	r0, #3
 8001e06:	e7be      	b.n	8001d86 <HAL_ADC_PollForConversion+0x1e>
 8001e08:	6da3      	ldr	r3, [r4, #88]	; 0x58
 8001e0a:	f043 0320 	orr.w	r3, r3, #32
 8001e0e:	65a3      	str	r3, [r4, #88]	; 0x58
 8001e10:	6de3      	ldr	r3, [r4, #92]	; 0x5c
 8001e12:	f043 0301 	orr.w	r3, r3, #1
 8001e16:	65e3      	str	r3, [r4, #92]	; 0x5c
 8001e18:	e7db      	b.n	8001dd2 <HAL_ADC_PollForConversion+0x6a>
 8001e1a:	2000      	movs	r0, #0
 8001e1c:	e7b3      	b.n	8001d86 <HAL_ADC_PollForConversion+0x1e>

08001e1e <HAL_ADC_GetValue>:
 8001e1e:	6803      	ldr	r3, [r0, #0]
 8001e20:	6c18      	ldr	r0, [r3, #64]	; 0x40
 8001e22:	4770      	bx	lr

08001e24 <HAL_ADC_ConfigChannel>:
 8001e24:	b5f7      	push	{r0, r1, r2, r4, r5, r6, r7, lr}
 8001e26:	2300      	movs	r3, #0
 8001e28:	9301      	str	r3, [sp, #4]
 8001e2a:	f890 3054 	ldrb.w	r3, [r0, #84]	; 0x54
 8001e2e:	2b01      	cmp	r3, #1
 8001e30:	4604      	mov	r4, r0
 8001e32:	f000 80c7 	beq.w	8001fc4 <HAL_ADC_ConfigChannel+0x1a0>
 8001e36:	2301      	movs	r3, #1
 8001e38:	f880 3054 	strb.w	r3, [r0, #84]	; 0x54
 8001e3c:	6800      	ldr	r0, [r0, #0]
 8001e3e:	f7ff fe81 	bl	8001b44 <LL_ADC_REG_IsConversionOngoing>
 8001e42:	2800      	cmp	r0, #0
 8001e44:	f040 80b8 	bne.w	8001fb8 <HAL_ADC_ConfigChannel+0x194>
 8001e48:	e9d1 2000 	ldrd	r2, r0, [r1]
 8001e4c:	6923      	ldr	r3, [r4, #16]
 8001e4e:	2802      	cmp	r0, #2
 8001e50:	f023 0304 	bic.w	r3, r3, #4
 8001e54:	f000 8083 	beq.w	8001f5e <HAL_ADC_ConfigChannel+0x13a>
 8001e58:	f1b3 4f00 	cmp.w	r3, #2147483648	; 0x80000000
 8001e5c:	6825      	ldr	r5, [r4, #0]
 8001e5e:	f3c2 0e11 	ubfx	lr, r2, #0, #18
 8001e62:	d113      	bne.n	8001e8c <HAL_ADC_ConfigChannel+0x68>
 8001e64:	6aab      	ldr	r3, [r5, #40]	; 0x28
 8001e66:	ea43 030e 	orr.w	r3, r3, lr
 8001e6a:	62ab      	str	r3, [r5, #40]	; 0x28
 8001e6c:	688b      	ldr	r3, [r1, #8]
 8001e6e:	6968      	ldr	r0, [r5, #20]
 8001e70:	ea03 2302 	and.w	r3, r3, r2, lsl #8
 8001e74:	f023 437c 	bic.w	r3, r3, #4227858432	; 0xfc000000
 8001e78:	f023 03ff 	bic.w	r3, r3, #255	; 0xff
 8001e7c:	ea20 2102 	bic.w	r1, r0, r2, lsl #8
 8001e80:	430b      	orrs	r3, r1
 8001e82:	2a00      	cmp	r2, #0
 8001e84:	616b      	str	r3, [r5, #20]
 8001e86:	db26      	blt.n	8001ed6 <HAL_ADC_ConfigChannel+0xb2>
 8001e88:	2000      	movs	r0, #0
 8001e8a:	e055      	b.n	8001f38 <HAL_ADC_ConfigChannel+0x114>
 8001e8c:	6e23      	ldr	r3, [r4, #96]	; 0x60
 8001e8e:	f000 071f 	and.w	r7, r0, #31
 8001e92:	f04f 0c0f 	mov.w	ip, #15
 8001e96:	fa0c fc07 	lsl.w	ip, ip, r7
 8001e9a:	ea6f 060c 	mvn.w	r6, ip
 8001e9e:	ea23 0c0c 	bic.w	ip, r3, ip
 8001ea2:	f1be 0f00 	cmp.w	lr, #0
 8001ea6:	d111      	bne.n	8001ecc <HAL_ADC_ConfigChannel+0xa8>
 8001ea8:	f3c2 6384 	ubfx	r3, r2, #26, #5
 8001eac:	40bb      	lsls	r3, r7
 8001eae:	ea43 030c 	orr.w	r3, r3, ip
 8001eb2:	6623      	str	r3, [r4, #96]	; 0x60
 8001eb4:	0880      	lsrs	r0, r0, #2
 8001eb6:	69e3      	ldr	r3, [r4, #28]
 8001eb8:	3001      	adds	r0, #1
 8001eba:	4298      	cmp	r0, r3
 8001ebc:	d8d6      	bhi.n	8001e6c <HAL_ADC_ConfigChannel+0x48>
 8001ebe:	6aa8      	ldr	r0, [r5, #40]	; 0x28
 8001ec0:	f3c2 6383 	ubfx	r3, r2, #26, #4
 8001ec4:	40bb      	lsls	r3, r7
 8001ec6:	4006      	ands	r6, r0
 8001ec8:	4333      	orrs	r3, r6
 8001eca:	e7ce      	b.n	8001e6a <HAL_ADC_ConfigChannel+0x46>
 8001ecc:	fa92 f3a2 	rbit	r3, r2
 8001ed0:	fab3 f383 	clz	r3, r3
 8001ed4:	e7ea      	b.n	8001eac <HAL_ADC_ConfigChannel+0x88>
 8001ed6:	493c      	ldr	r1, [pc, #240]	; (8001fc8 <HAL_ADC_ConfigChannel+0x1a4>)
 8001ed8:	483c      	ldr	r0, [pc, #240]	; (8001fcc <HAL_ADC_ConfigChannel+0x1a8>)
 8001eda:	f8d1 3708 	ldr.w	r3, [r1, #1800]	; 0x708
 8001ede:	4282      	cmp	r2, r0
 8001ee0:	f003 75e0 	and.w	r5, r3, #29360128	; 0x1c00000
 8001ee4:	d119      	bne.n	8001f1a <HAL_ADC_ConfigChannel+0xf6>
 8001ee6:	021b      	lsls	r3, r3, #8
 8001ee8:	d4ce      	bmi.n	8001e88 <HAL_ADC_ConfigChannel+0x64>
 8001eea:	f8d1 3708 	ldr.w	r3, [r1, #1800]	; 0x708
 8001eee:	4a38      	ldr	r2, [pc, #224]	; (8001fd0 <HAL_ADC_ConfigChannel+0x1ac>)
 8001ef0:	f023 73e0 	bic.w	r3, r3, #29360128	; 0x1c00000
 8001ef4:	432b      	orrs	r3, r5
 8001ef6:	f443 0300 	orr.w	r3, r3, #8388608	; 0x800000
 8001efa:	f8c1 3708 	str.w	r3, [r1, #1800]	; 0x708
 8001efe:	4b35      	ldr	r3, [pc, #212]	; (8001fd4 <HAL_ADC_ConfigChannel+0x1b0>)
 8001f00:	681b      	ldr	r3, [r3, #0]
 8001f02:	fbb3 f2f2 	udiv	r2, r3, r2
 8001f06:	230c      	movs	r3, #12
 8001f08:	fb02 3303 	mla	r3, r2, r3, r3
 8001f0c:	9301      	str	r3, [sp, #4]
 8001f0e:	9b01      	ldr	r3, [sp, #4]
 8001f10:	2b00      	cmp	r3, #0
 8001f12:	d0b9      	beq.n	8001e88 <HAL_ADC_ConfigChannel+0x64>
 8001f14:	9b01      	ldr	r3, [sp, #4]
 8001f16:	3b01      	subs	r3, #1
 8001f18:	e7f8      	b.n	8001f0c <HAL_ADC_ConfigChannel+0xe8>
 8001f1a:	482f      	ldr	r0, [pc, #188]	; (8001fd8 <HAL_ADC_ConfigChannel+0x1b4>)
 8001f1c:	4282      	cmp	r2, r0
 8001f1e:	d110      	bne.n	8001f42 <HAL_ADC_ConfigChannel+0x11e>
 8001f20:	f013 7080 	ands.w	r0, r3, #16777216	; 0x1000000
 8001f24:	d1b0      	bne.n	8001e88 <HAL_ADC_ConfigChannel+0x64>
 8001f26:	f8d1 3708 	ldr.w	r3, [r1, #1800]	; 0x708
 8001f2a:	f023 73e0 	bic.w	r3, r3, #29360128	; 0x1c00000
 8001f2e:	432b      	orrs	r3, r5
 8001f30:	f043 7380 	orr.w	r3, r3, #16777216	; 0x1000000
 8001f34:	f8c1 3708 	str.w	r3, [r1, #1800]	; 0x708
 8001f38:	2300      	movs	r3, #0
 8001f3a:	f884 3054 	strb.w	r3, [r4, #84]	; 0x54
 8001f3e:	b003      	add	sp, #12
 8001f40:	bdf0      	pop	{r4, r5, r6, r7, pc}
 8001f42:	4826      	ldr	r0, [pc, #152]	; (8001fdc <HAL_ADC_ConfigChannel+0x1b8>)
 8001f44:	4282      	cmp	r2, r0
 8001f46:	d19f      	bne.n	8001e88 <HAL_ADC_ConfigChannel+0x64>
 8001f48:	f413 0080 	ands.w	r0, r3, #4194304	; 0x400000
 8001f4c:	d19c      	bne.n	8001e88 <HAL_ADC_ConfigChannel+0x64>
 8001f4e:	f8d1 3708 	ldr.w	r3, [r1, #1800]	; 0x708
 8001f52:	f023 73e0 	bic.w	r3, r3, #29360128	; 0x1c00000
 8001f56:	432b      	orrs	r3, r5
 8001f58:	f443 0380 	orr.w	r3, r3, #4194304	; 0x400000
 8001f5c:	e7ea      	b.n	8001f34 <HAL_ADC_ConfigChannel+0x110>
 8001f5e:	f1b3 4f00 	cmp.w	r3, #2147483648	; 0x80000000
 8001f62:	d106      	bne.n	8001f72 <HAL_ADC_ConfigChannel+0x14e>
 8001f64:	6821      	ldr	r1, [r4, #0]
 8001f66:	6a8b      	ldr	r3, [r1, #40]	; 0x28
 8001f68:	f3c2 0011 	ubfx	r0, r2, #0, #18
 8001f6c:	ea23 0300 	bic.w	r3, r3, r0
 8001f70:	628b      	str	r3, [r1, #40]	; 0x28
 8001f72:	2a00      	cmp	r2, #0
 8001f74:	da88      	bge.n	8001e88 <HAL_ADC_ConfigChannel+0x64>
 8001f76:	4815      	ldr	r0, [pc, #84]	; (8001fcc <HAL_ADC_ConfigChannel+0x1a8>)
 8001f78:	4913      	ldr	r1, [pc, #76]	; (8001fc8 <HAL_ADC_ConfigChannel+0x1a4>)
 8001f7a:	4282      	cmp	r2, r0
 8001f7c:	f8d1 3708 	ldr.w	r3, [r1, #1800]	; 0x708
 8001f80:	d109      	bne.n	8001f96 <HAL_ADC_ConfigChannel+0x172>
 8001f82:	f8d1 2708 	ldr.w	r2, [r1, #1800]	; 0x708
 8001f86:	f003 73a0 	and.w	r3, r3, #20971520	; 0x1400000
 8001f8a:	f022 72e0 	bic.w	r2, r2, #29360128	; 0x1c00000
 8001f8e:	4313      	orrs	r3, r2
 8001f90:	f8c1 3708 	str.w	r3, [r1, #1800]	; 0x708
 8001f94:	e778      	b.n	8001e88 <HAL_ADC_ConfigChannel+0x64>
 8001f96:	4810      	ldr	r0, [pc, #64]	; (8001fd8 <HAL_ADC_ConfigChannel+0x1b4>)
 8001f98:	4282      	cmp	r2, r0
 8001f9a:	d104      	bne.n	8001fa6 <HAL_ADC_ConfigChannel+0x182>
 8001f9c:	f8d1 2708 	ldr.w	r2, [r1, #1800]	; 0x708
 8001fa0:	f403 0340 	and.w	r3, r3, #12582912	; 0xc00000
 8001fa4:	e7f1      	b.n	8001f8a <HAL_ADC_ConfigChannel+0x166>
 8001fa6:	480d      	ldr	r0, [pc, #52]	; (8001fdc <HAL_ADC_ConfigChannel+0x1b8>)
 8001fa8:	4282      	cmp	r2, r0
 8001faa:	f47f af6d 	bne.w	8001e88 <HAL_ADC_ConfigChannel+0x64>
 8001fae:	f8d1 2708 	ldr.w	r2, [r1, #1800]	; 0x708
 8001fb2:	f003 73c0 	and.w	r3, r3, #25165824	; 0x1800000
 8001fb6:	e7e8      	b.n	8001f8a <HAL_ADC_ConfigChannel+0x166>
 8001fb8:	6da2      	ldr	r2, [r4, #88]	; 0x58
 8001fba:	f042 0220 	orr.w	r2, r2, #32
 8001fbe:	65a2      	str	r2, [r4, #88]	; 0x58
 8001fc0:	4618      	mov	r0, r3
 8001fc2:	e7b9      	b.n	8001f38 <HAL_ADC_ConfigChannel+0x114>
 8001fc4:	2002      	movs	r0, #2
 8001fc6:	e7ba      	b.n	8001f3e <HAL_ADC_ConfigChannel+0x11a>
 8001fc8:	40012000 	.word	0x40012000
 8001fcc:	b0001000 	.word	0xb0001000
 8001fd0:	00030d40 	.word	0x00030d40
 8001fd4:	20000000 	.word	0x20000000
 8001fd8:	b8004000 	.word	0xb8004000
 8001fdc:	b4002000 	.word	0xb4002000

08001fe0 <ADC_ConversionStop>:
 8001fe0:	b538      	push	{r3, r4, r5, lr}
 8001fe2:	4604      	mov	r4, r0
 8001fe4:	6800      	ldr	r0, [r0, #0]
 8001fe6:	f7ff fdad 	bl	8001b44 <LL_ADC_REG_IsConversionOngoing>
 8001fea:	b908      	cbnz	r0, 8001ff0 <ADC_ConversionStop+0x10>
 8001fec:	2000      	movs	r0, #0
 8001fee:	bd38      	pop	{r3, r4, r5, pc}
 8001ff0:	6822      	ldr	r2, [r4, #0]
 8001ff2:	6893      	ldr	r3, [r2, #8]
 8001ff4:	0799      	lsls	r1, r3, #30
 8001ff6:	d407      	bmi.n	8002008 <ADC_ConversionStop+0x28>
 8001ff8:	6893      	ldr	r3, [r2, #8]
 8001ffa:	f023 4300 	bic.w	r3, r3, #2147483648	; 0x80000000
 8001ffe:	f023 0317 	bic.w	r3, r3, #23
 8002002:	f043 0310 	orr.w	r3, r3, #16
 8002006:	6093      	str	r3, [r2, #8]
 8002008:	f7ff faa2 	bl	8001550 <HAL_GetTick>
 800200c:	4605      	mov	r5, r0
 800200e:	6823      	ldr	r3, [r4, #0]
 8002010:	689b      	ldr	r3, [r3, #8]
 8002012:	075b      	lsls	r3, r3, #29
 8002014:	d5ea      	bpl.n	8001fec <ADC_ConversionStop+0xc>
 8002016:	f7ff fa9b 	bl	8001550 <HAL_GetTick>
 800201a:	1b40      	subs	r0, r0, r5
 800201c:	2802      	cmp	r0, #2
 800201e:	d9f6      	bls.n	800200e <ADC_ConversionStop+0x2e>
 8002020:	6823      	ldr	r3, [r4, #0]
 8002022:	689b      	ldr	r3, [r3, #8]
 8002024:	075a      	lsls	r2, r3, #29
 8002026:	d5f2      	bpl.n	800200e <ADC_ConversionStop+0x2e>
 8002028:	6da3      	ldr	r3, [r4, #88]	; 0x58
 800202a:	f043 0310 	orr.w	r3, r3, #16
 800202e:	65a3      	str	r3, [r4, #88]	; 0x58
 8002030:	6de3      	ldr	r3, [r4, #92]	; 0x5c
 8002032:	f043 0301 	orr.w	r3, r3, #1
 8002036:	65e3      	str	r3, [r4, #92]	; 0x5c
 8002038:	2001      	movs	r0, #1
 800203a:	e7d8      	b.n	8001fee <ADC_ConversionStop+0xe>

0800203c <ADC_Enable>:
 800203c:	b573      	push	{r0, r1, r4, r5, r6, lr}
 800203e:	2300      	movs	r3, #0
 8002040:	6802      	ldr	r2, [r0, #0]
 8002042:	9301      	str	r3, [sp, #4]
 8002044:	6893      	ldr	r3, [r2, #8]
 8002046:	07dd      	lsls	r5, r3, #31
 8002048:	4604      	mov	r4, r0
 800204a:	d502      	bpl.n	8002052 <ADC_Enable+0x16>
 800204c:	2000      	movs	r0, #0
 800204e:	b002      	add	sp, #8
 8002050:	bd70      	pop	{r4, r5, r6, pc}
 8002052:	6891      	ldr	r1, [r2, #8]
 8002054:	4b21      	ldr	r3, [pc, #132]	; (80020dc <ADC_Enable+0xa0>)
 8002056:	4219      	tst	r1, r3
 8002058:	d009      	beq.n	800206e <ADC_Enable+0x32>
 800205a:	6da3      	ldr	r3, [r4, #88]	; 0x58
 800205c:	f043 0310 	orr.w	r3, r3, #16
 8002060:	65a3      	str	r3, [r4, #88]	; 0x58
 8002062:	6de3      	ldr	r3, [r4, #92]	; 0x5c
 8002064:	f043 0301 	orr.w	r3, r3, #1
 8002068:	65e3      	str	r3, [r4, #92]	; 0x5c
 800206a:	2001      	movs	r0, #1
 800206c:	e7ef      	b.n	800204e <ADC_Enable+0x12>
 800206e:	6893      	ldr	r3, [r2, #8]
 8002070:	f023 4300 	bic.w	r3, r3, #2147483648	; 0x80000000
 8002074:	f023 0317 	bic.w	r3, r3, #23
 8002078:	f043 0301 	orr.w	r3, r3, #1
 800207c:	6093      	str	r3, [r2, #8]
 800207e:	4b18      	ldr	r3, [pc, #96]	; (80020e0 <ADC_Enable+0xa4>)
 8002080:	f8d3 3708 	ldr.w	r3, [r3, #1800]	; 0x708
 8002084:	0218      	lsls	r0, r3, #8
 8002086:	d41c      	bmi.n	80020c2 <ADC_Enable+0x86>
 8002088:	7e63      	ldrb	r3, [r4, #25]
 800208a:	2b01      	cmp	r3, #1
 800208c:	d0de      	beq.n	800204c <ADC_Enable+0x10>
 800208e:	f7ff fa5f 	bl	8001550 <HAL_GetTick>
 8002092:	4e14      	ldr	r6, [pc, #80]	; (80020e4 <ADC_Enable+0xa8>)
 8002094:	4605      	mov	r5, r0
 8002096:	6822      	ldr	r2, [r4, #0]
 8002098:	6813      	ldr	r3, [r2, #0]
 800209a:	07db      	lsls	r3, r3, #31
 800209c:	d4d6      	bmi.n	800204c <ADC_Enable+0x10>
 800209e:	6893      	ldr	r3, [r2, #8]
 80020a0:	07d9      	lsls	r1, r3, #31
 80020a2:	bf5f      	itttt	pl
 80020a4:	6893      	ldrpl	r3, [r2, #8]
 80020a6:	4033      	andpl	r3, r6
 80020a8:	f043 0301 	orrpl.w	r3, r3, #1
 80020ac:	6093      	strpl	r3, [r2, #8]
 80020ae:	f7ff fa4f 	bl	8001550 <HAL_GetTick>
 80020b2:	1b40      	subs	r0, r0, r5
 80020b4:	2802      	cmp	r0, #2
 80020b6:	d9ee      	bls.n	8002096 <ADC_Enable+0x5a>
 80020b8:	6823      	ldr	r3, [r4, #0]
 80020ba:	681b      	ldr	r3, [r3, #0]
 80020bc:	07da      	lsls	r2, r3, #31
 80020be:	d4ea      	bmi.n	8002096 <ADC_Enable+0x5a>
 80020c0:	e7cb      	b.n	800205a <ADC_Enable+0x1e>
 80020c2:	4b09      	ldr	r3, [pc, #36]	; (80020e8 <ADC_Enable+0xac>)
 80020c4:	4a09      	ldr	r2, [pc, #36]	; (80020ec <ADC_Enable+0xb0>)
 80020c6:	681b      	ldr	r3, [r3, #0]
 80020c8:	fbb3 f3f2 	udiv	r3, r3, r2
 80020cc:	3301      	adds	r3, #1
 80020ce:	9301      	str	r3, [sp, #4]
 80020d0:	9b01      	ldr	r3, [sp, #4]
 80020d2:	2b00      	cmp	r3, #0
 80020d4:	d0d8      	beq.n	8002088 <ADC_Enable+0x4c>
 80020d6:	9b01      	ldr	r3, [sp, #4]
 80020d8:	3b01      	subs	r3, #1
 80020da:	e7f8      	b.n	80020ce <ADC_Enable+0x92>
 80020dc:	80000017 	.word	0x80000017
 80020e0:	40012000 	.word	0x40012000
 80020e4:	7fffffe8 	.word	0x7fffffe8
 80020e8:	20000000 	.word	0x20000000
 80020ec:	00030d40 	.word	0x00030d40

080020f0 <HAL_ADC_Start>:
 80020f0:	b538      	push	{r3, r4, r5, lr}
 80020f2:	4604      	mov	r4, r0
 80020f4:	6800      	ldr	r0, [r0, #0]
 80020f6:	f7ff fd25 	bl	8001b44 <LL_ADC_REG_IsConversionOngoing>
 80020fa:	4605      	mov	r5, r0
 80020fc:	bb20      	cbnz	r0, 8002148 <HAL_ADC_Start+0x58>
 80020fe:	f894 3054 	ldrb.w	r3, [r4, #84]	; 0x54
 8002102:	2b01      	cmp	r3, #1
 8002104:	d020      	beq.n	8002148 <HAL_ADC_Start+0x58>
 8002106:	2301      	movs	r3, #1
 8002108:	f884 3054 	strb.w	r3, [r4, #84]	; 0x54
 800210c:	4620      	mov	r0, r4
 800210e:	f7ff ff95 	bl	800203c <ADC_Enable>
 8002112:	b9b0      	cbnz	r0, 8002142 <HAL_ADC_Start+0x52>
 8002114:	6da3      	ldr	r3, [r4, #88]	; 0x58
 8002116:	6822      	ldr	r2, [r4, #0]
 8002118:	f423 6370 	bic.w	r3, r3, #3840	; 0xf00
 800211c:	f023 0301 	bic.w	r3, r3, #1
 8002120:	f443 7380 	orr.w	r3, r3, #256	; 0x100
 8002124:	65a3      	str	r3, [r4, #88]	; 0x58
 8002126:	231c      	movs	r3, #28
 8002128:	65e0      	str	r0, [r4, #92]	; 0x5c
 800212a:	6013      	str	r3, [r2, #0]
 800212c:	f884 0054 	strb.w	r0, [r4, #84]	; 0x54
 8002130:	6893      	ldr	r3, [r2, #8]
 8002132:	f023 4300 	bic.w	r3, r3, #2147483648	; 0x80000000
 8002136:	f023 0317 	bic.w	r3, r3, #23
 800213a:	f043 0304 	orr.w	r3, r3, #4
 800213e:	6093      	str	r3, [r2, #8]
 8002140:	bd38      	pop	{r3, r4, r5, pc}
 8002142:	f884 5054 	strb.w	r5, [r4, #84]	; 0x54
 8002146:	e7fb      	b.n	8002140 <HAL_ADC_Start+0x50>
 8002148:	2002      	movs	r0, #2
 800214a:	e7f9      	b.n	8002140 <HAL_ADC_Start+0x50>

0800214c <ADC_Disable>:
 800214c:	6802      	ldr	r2, [r0, #0]
 800214e:	b538      	push	{r3, r4, r5, lr}
 8002150:	6893      	ldr	r3, [r2, #8]
 8002152:	6891      	ldr	r1, [r2, #8]
 8002154:	4604      	mov	r4, r0
 8002156:	07c8      	lsls	r0, r1, #31
 8002158:	d401      	bmi.n	800215e <ADC_Disable+0x12>
 800215a:	2000      	movs	r0, #0
 800215c:	bd38      	pop	{r3, r4, r5, pc}
 800215e:	0799      	lsls	r1, r3, #30
 8002160:	d4fb      	bmi.n	800215a <ADC_Disable+0xe>
 8002162:	6893      	ldr	r3, [r2, #8]
 8002164:	f003 0305 	and.w	r3, r3, #5
 8002168:	2b01      	cmp	r3, #1
 800216a:	d119      	bne.n	80021a0 <ADC_Disable+0x54>
 800216c:	6893      	ldr	r3, [r2, #8]
 800216e:	f023 4300 	bic.w	r3, r3, #2147483648	; 0x80000000
 8002172:	f023 0317 	bic.w	r3, r3, #23
 8002176:	f043 0302 	orr.w	r3, r3, #2
 800217a:	6093      	str	r3, [r2, #8]
 800217c:	2303      	movs	r3, #3
 800217e:	6013      	str	r3, [r2, #0]
 8002180:	f7ff f9e6 	bl	8001550 <HAL_GetTick>
 8002184:	4605      	mov	r5, r0
 8002186:	6823      	ldr	r3, [r4, #0]
 8002188:	689b      	ldr	r3, [r3, #8]
 800218a:	07db      	lsls	r3, r3, #31
 800218c:	d5e5      	bpl.n	800215a <ADC_Disable+0xe>
 800218e:	f7ff f9df 	bl	8001550 <HAL_GetTick>
 8002192:	1b40      	subs	r0, r0, r5
 8002194:	2802      	cmp	r0, #2
 8002196:	d9f6      	bls.n	8002186 <ADC_Disable+0x3a>
 8002198:	6823      	ldr	r3, [r4, #0]
 800219a:	689b      	ldr	r3, [r3, #8]
 800219c:	07da      	lsls	r2, r3, #31
 800219e:	d5f2      	bpl.n	8002186 <ADC_Disable+0x3a>
 80021a0:	6da3      	ldr	r3, [r4, #88]	; 0x58
 80021a2:	f043 0310 	orr.w	r3, r3, #16
 80021a6:	65a3      	str	r3, [r4, #88]	; 0x58
 80021a8:	6de3      	ldr	r3, [r4, #92]	; 0x5c
 80021aa:	f043 0301 	orr.w	r3, r3, #1
 80021ae:	65e3      	str	r3, [r4, #92]	; 0x5c
 80021b0:	2001      	movs	r0, #1
 80021b2:	e7d3      	b.n	800215c <ADC_Disable+0x10>

080021b4 <HAL_ADC_DeInit>:
 80021b4:	b570      	push	{r4, r5, r6, lr}
 80021b6:	4604      	mov	r4, r0
 80021b8:	2800      	cmp	r0, #0
 80021ba:	d043      	beq.n	8002244 <HAL_ADC_DeInit+0x90>
 80021bc:	6d83      	ldr	r3, [r0, #88]	; 0x58
 80021be:	f043 0302 	orr.w	r3, r3, #2
 80021c2:	6583      	str	r3, [r0, #88]	; 0x58
 80021c4:	f7ff ff0c 	bl	8001fe0 <ADC_ConversionStop>
 80021c8:	4605      	mov	r5, r0
 80021ca:	b968      	cbnz	r0, 80021e8 <HAL_ADC_DeInit+0x34>
 80021cc:	4620      	mov	r0, r4
 80021ce:	f7ff ffbd 	bl	800214c <ADC_Disable>
 80021d2:	4605      	mov	r5, r0
 80021d4:	b908      	cbnz	r0, 80021da <HAL_ADC_DeInit+0x26>
 80021d6:	2301      	movs	r3, #1
 80021d8:	65a3      	str	r3, [r4, #88]	; 0x58
 80021da:	6822      	ldr	r2, [r4, #0]
 80021dc:	6893      	ldr	r3, [r2, #8]
 80021de:	f023 4310 	bic.w	r3, r3, #2415919104	; 0x90000000
 80021e2:	f023 0317 	bic.w	r3, r3, #23
 80021e6:	6093      	str	r3, [r2, #8]
 80021e8:	6823      	ldr	r3, [r4, #0]
 80021ea:	685a      	ldr	r2, [r3, #4]
 80021ec:	f422 7267 	bic.w	r2, r2, #924	; 0x39c
 80021f0:	f022 0203 	bic.w	r2, r2, #3
 80021f4:	605a      	str	r2, [r3, #4]
 80021f6:	f240 329f 	movw	r2, #927	; 0x39f
 80021fa:	601a      	str	r2, [r3, #0]
 80021fc:	68d9      	ldr	r1, [r3, #12]
 80021fe:	4a12      	ldr	r2, [pc, #72]	; (8002248 <HAL_ADC_DeInit+0x94>)
 8002200:	400a      	ands	r2, r1
 8002202:	60da      	str	r2, [r3, #12]
 8002204:	691a      	ldr	r2, [r3, #16]
 8002206:	f022 4240 	bic.w	r2, r2, #3221225472	; 0xc0000000
 800220a:	611a      	str	r2, [r3, #16]
 800220c:	695a      	ldr	r2, [r3, #20]
 800220e:	f022 0207 	bic.w	r2, r2, #7
 8002212:	615a      	str	r2, [r3, #20]
 8002214:	6a1a      	ldr	r2, [r3, #32]
 8002216:	f002 22f0 	and.w	r2, r2, #4026593280	; 0xf000f000
 800221a:	621a      	str	r2, [r3, #32]
 800221c:	6a9a      	ldr	r2, [r3, #40]	; 0x28
 800221e:	4a0b      	ldr	r2, [pc, #44]	; (800224c <HAL_ADC_DeInit+0x98>)
 8002220:	2600      	movs	r6, #0
 8002222:	629e      	str	r6, [r3, #40]	; 0x28
 8002224:	f8d2 3708 	ldr.w	r3, [r2, #1800]	; 0x708
 8002228:	f023 73fe 	bic.w	r3, r3, #33292288	; 0x1fc0000
 800222c:	f8c2 3708 	str.w	r3, [r2, #1800]	; 0x708
 8002230:	4620      	mov	r0, r4
 8002232:	f7fe fd61 	bl	8000cf8 <HAL_ADC_MspDeInit>
 8002236:	65e6      	str	r6, [r4, #92]	; 0x5c
 8002238:	6626      	str	r6, [r4, #96]	; 0x60
 800223a:	65a6      	str	r6, [r4, #88]	; 0x58
 800223c:	f884 6054 	strb.w	r6, [r4, #84]	; 0x54
 8002240:	4628      	mov	r0, r5
 8002242:	bd70      	pop	{r4, r5, r6, pc}
 8002244:	2501      	movs	r5, #1
 8002246:	e7fb      	b.n	8002240 <HAL_ADC_DeInit+0x8c>
 8002248:	833e0200 	.word	0x833e0200
 800224c:	40012000 	.word	0x40012000

08002250 <HAL_ADC_Stop>:
 8002250:	b510      	push	{r4, lr}
 8002252:	f890 3054 	ldrb.w	r3, [r0, #84]	; 0x54
 8002256:	2b01      	cmp	r3, #1
 8002258:	4604      	mov	r4, r0
 800225a:	d015      	beq.n	8002288 <HAL_ADC_Stop+0x38>
 800225c:	2301      	movs	r3, #1
 800225e:	f880 3054 	strb.w	r3, [r0, #84]	; 0x54
 8002262:	f7ff febd 	bl	8001fe0 <ADC_ConversionStop>
 8002266:	b958      	cbnz	r0, 8002280 <HAL_ADC_Stop+0x30>
 8002268:	4620      	mov	r0, r4
 800226a:	f7ff ff6f 	bl	800214c <ADC_Disable>
 800226e:	b938      	cbnz	r0, 8002280 <HAL_ADC_Stop+0x30>
 8002270:	6da3      	ldr	r3, [r4, #88]	; 0x58
 8002272:	f423 7380 	bic.w	r3, r3, #256	; 0x100
 8002276:	f023 0301 	bic.w	r3, r3, #1
 800227a:	f043 0301 	orr.w	r3, r3, #1
 800227e:	65a3      	str	r3, [r4, #88]	; 0x58
 8002280:	2300      	movs	r3, #0
 8002282:	f884 3054 	strb.w	r3, [r4, #84]	; 0x54
 8002286:	bd10      	pop	{r4, pc}
 8002288:	2002      	movs	r0, #2
 800228a:	e7fc      	b.n	8002286 <HAL_ADC_Stop+0x36>

0800228c <HAL_ADCEx_Calibration_Start>:
 800228c:	b5f7      	push	{r0, r1, r2, r4, r5, r6, r7, lr}
 800228e:	2300      	movs	r3, #0
 8002290:	9301      	str	r3, [sp, #4]
 8002292:	f890 3054 	ldrb.w	r3, [r0, #84]	; 0x54
 8002296:	2b01      	cmp	r3, #1
 8002298:	4604      	mov	r4, r0
 800229a:	d07f      	beq.n	800239c <HAL_ADCEx_Calibration_Start+0x110>
 800229c:	2301      	movs	r3, #1
 800229e:	f880 3054 	strb.w	r3, [r0, #84]	; 0x54
 80022a2:	f7ff ff53 	bl	800214c <ADC_Disable>
 80022a6:	6823      	ldr	r3, [r4, #0]
 80022a8:	689a      	ldr	r2, [r3, #8]
 80022aa:	f012 0201 	ands.w	r2, r2, #1
 80022ae:	4605      	mov	r5, r0
 80022b0:	d170      	bne.n	8002394 <HAL_ADCEx_Calibration_Start+0x108>
 80022b2:	6da1      	ldr	r1, [r4, #88]	; 0x58
 80022b4:	4f3a      	ldr	r7, [pc, #232]	; (80023a0 <HAL_ADCEx_Calibration_Start+0x114>)
 80022b6:	f421 7181 	bic.w	r1, r1, #258	; 0x102
 80022ba:	f041 0102 	orr.w	r1, r1, #2
 80022be:	65a1      	str	r1, [r4, #88]	; 0x58
 80022c0:	68de      	ldr	r6, [r3, #12]
 80022c2:	68d9      	ldr	r1, [r3, #12]
 80022c4:	f421 4100 	bic.w	r1, r1, #32768	; 0x8000
 80022c8:	f021 0103 	bic.w	r1, r1, #3
 80022cc:	60d9      	str	r1, [r3, #12]
 80022ce:	2008      	movs	r0, #8
 80022d0:	6899      	ldr	r1, [r3, #8]
 80022d2:	4039      	ands	r1, r7
 80022d4:	f041 4100 	orr.w	r1, r1, #2147483648	; 0x80000000
 80022d8:	6099      	str	r1, [r3, #8]
 80022da:	6899      	ldr	r1, [r3, #8]
 80022dc:	2900      	cmp	r1, #0
 80022de:	da13      	bge.n	8002308 <HAL_ADCEx_Calibration_Start+0x7c>
 80022e0:	9901      	ldr	r1, [sp, #4]
 80022e2:	3101      	adds	r1, #1
 80022e4:	9101      	str	r1, [sp, #4]
 80022e6:	9901      	ldr	r1, [sp, #4]
 80022e8:	f5b1 3f2e 	cmp.w	r1, #178176	; 0x2b800
 80022ec:	d3f5      	bcc.n	80022da <HAL_ADCEx_Calibration_Start+0x4e>
 80022ee:	6da3      	ldr	r3, [r4, #88]	; 0x58
 80022f0:	f023 0312 	bic.w	r3, r3, #18
 80022f4:	f043 0310 	orr.w	r3, r3, #16
 80022f8:	65a3      	str	r3, [r4, #88]	; 0x58
 80022fa:	2300      	movs	r3, #0
 80022fc:	f884 3054 	strb.w	r3, [r4, #84]	; 0x54
 8002300:	2501      	movs	r5, #1
 8002302:	4628      	mov	r0, r5
 8002304:	b003      	add	sp, #12
 8002306:	bdf0      	pop	{r4, r5, r6, r7, pc}
 8002308:	f8d3 10b4 	ldr.w	r1, [r3, #180]	; 0xb4
 800230c:	3801      	subs	r0, #1
 800230e:	f001 017f 	and.w	r1, r1, #127	; 0x7f
 8002312:	440a      	add	r2, r1
 8002314:	d1dc      	bne.n	80022d0 <HAL_ADCEx_Calibration_Start+0x44>
 8002316:	6899      	ldr	r1, [r3, #8]
 8002318:	4821      	ldr	r0, [pc, #132]	; (80023a0 <HAL_ADCEx_Calibration_Start+0x114>)
 800231a:	4001      	ands	r1, r0
 800231c:	f041 0101 	orr.w	r1, r1, #1
 8002320:	6099      	str	r1, [r3, #8]
 8002322:	f8d3 10b4 	ldr.w	r1, [r3, #180]	; 0xb4
 8002326:	f021 017f 	bic.w	r1, r1, #127	; 0x7f
 800232a:	ea41 02d2 	orr.w	r2, r1, r2, lsr #3
 800232e:	f8c3 20b4 	str.w	r2, [r3, #180]	; 0xb4
 8002332:	689a      	ldr	r2, [r3, #8]
 8002334:	4002      	ands	r2, r0
 8002336:	f042 0202 	orr.w	r2, r2, #2
 800233a:	609a      	str	r2, [r3, #8]
 800233c:	f7ff f908 	bl	8001550 <HAL_GetTick>
 8002340:	4607      	mov	r7, r0
 8002342:	6823      	ldr	r3, [r4, #0]
 8002344:	689a      	ldr	r2, [r3, #8]
 8002346:	07d2      	lsls	r2, r2, #31
 8002348:	d412      	bmi.n	8002370 <HAL_ADCEx_Calibration_Start+0xe4>
 800234a:	f426 46ff 	bic.w	r6, r6, #32640	; 0x7f80
 800234e:	f026 067c 	bic.w	r6, r6, #124	; 0x7c
 8002352:	68da      	ldr	r2, [r3, #12]
 8002354:	0436      	lsls	r6, r6, #16
 8002356:	0c36      	lsrs	r6, r6, #16
 8002358:	4316      	orrs	r6, r2
 800235a:	60de      	str	r6, [r3, #12]
 800235c:	6da3      	ldr	r3, [r4, #88]	; 0x58
 800235e:	f023 0303 	bic.w	r3, r3, #3
 8002362:	f043 0301 	orr.w	r3, r3, #1
 8002366:	65a3      	str	r3, [r4, #88]	; 0x58
 8002368:	2300      	movs	r3, #0
 800236a:	f884 3054 	strb.w	r3, [r4, #84]	; 0x54
 800236e:	e7c8      	b.n	8002302 <HAL_ADCEx_Calibration_Start+0x76>
 8002370:	f7ff f8ee 	bl	8001550 <HAL_GetTick>
 8002374:	1bc0      	subs	r0, r0, r7
 8002376:	2802      	cmp	r0, #2
 8002378:	d9e3      	bls.n	8002342 <HAL_ADCEx_Calibration_Start+0xb6>
 800237a:	6823      	ldr	r3, [r4, #0]
 800237c:	689b      	ldr	r3, [r3, #8]
 800237e:	07d9      	lsls	r1, r3, #31
 8002380:	d5df      	bpl.n	8002342 <HAL_ADCEx_Calibration_Start+0xb6>
 8002382:	6da3      	ldr	r3, [r4, #88]	; 0x58
 8002384:	f043 0310 	orr.w	r3, r3, #16
 8002388:	65a3      	str	r3, [r4, #88]	; 0x58
 800238a:	6de3      	ldr	r3, [r4, #92]	; 0x5c
 800238c:	f043 0301 	orr.w	r3, r3, #1
 8002390:	65e3      	str	r3, [r4, #92]	; 0x5c
 8002392:	e7b5      	b.n	8002300 <HAL_ADCEx_Calibration_Start+0x74>
 8002394:	6da3      	ldr	r3, [r4, #88]	; 0x58
 8002396:	f043 0310 	orr.w	r3, r3, #16
 800239a:	e7e4      	b.n	8002366 <HAL_ADCEx_Calibration_Start+0xda>
 800239c:	2502      	movs	r5, #2
 800239e:	e7b0      	b.n	8002302 <HAL_ADCEx_Calibration_Start+0x76>
 80023a0:	7fffffe8 	.word	0x7fffffe8

080023a4 <HAL_NVIC_SetPriorityGrouping>:
 80023a4:	4907      	ldr	r1, [pc, #28]	; (80023c4 <HAL_NVIC_SetPriorityGrouping+0x20>)
 80023a6:	68ca      	ldr	r2, [r1, #12]
 80023a8:	f422 62e0 	bic.w	r2, r2, #1792	; 0x700
 80023ac:	0203      	lsls	r3, r0, #8
 80023ae:	0412      	lsls	r2, r2, #16
 80023b0:	f403 63e0 	and.w	r3, r3, #1792	; 0x700
 80023b4:	0c12      	lsrs	r2, r2, #16
 80023b6:	4313      	orrs	r3, r2
 80023b8:	f043 63bf 	orr.w	r3, r3, #100139008	; 0x5f80000
 80023bc:	f443 3300 	orr.w	r3, r3, #131072	; 0x20000
 80023c0:	60cb      	str	r3, [r1, #12]
 80023c2:	4770      	bx	lr
 80023c4:	e000ed00 	.word	0xe000ed00

080023c8 <HAL_NVIC_SetPriority>:
 80023c8:	4b16      	ldr	r3, [pc, #88]	; (8002424 <HAL_NVIC_SetPriority+0x5c>)
 80023ca:	b530      	push	{r4, r5, lr}
 80023cc:	68dc      	ldr	r4, [r3, #12]
 80023ce:	f3c4 2402 	ubfx	r4, r4, #8, #3
 80023d2:	f1c4 0307 	rsb	r3, r4, #7
 80023d6:	1d25      	adds	r5, r4, #4
 80023d8:	2b04      	cmp	r3, #4
 80023da:	bf28      	it	cs
 80023dc:	2304      	movcs	r3, #4
 80023de:	2d06      	cmp	r5, #6
 80023e0:	f04f 35ff 	mov.w	r5, #4294967295
 80023e4:	fa05 f303 	lsl.w	r3, r5, r3
 80023e8:	bf8c      	ite	hi
 80023ea:	3c03      	subhi	r4, #3
 80023ec:	2400      	movls	r4, #0
 80023ee:	ea21 0303 	bic.w	r3, r1, r3
 80023f2:	40a3      	lsls	r3, r4
 80023f4:	fa05 f404 	lsl.w	r4, r5, r4
 80023f8:	ea22 0204 	bic.w	r2, r2, r4
 80023fc:	2800      	cmp	r0, #0
 80023fe:	ea43 0302 	orr.w	r3, r3, r2
 8002402:	bfac      	ite	ge
 8002404:	f100 4060 	addge.w	r0, r0, #3758096384	; 0xe0000000
 8002408:	4a07      	ldrlt	r2, [pc, #28]	; (8002428 <HAL_NVIC_SetPriority+0x60>)
 800240a:	ea4f 1303 	mov.w	r3, r3, lsl #4
 800240e:	bfb8      	it	lt
 8002410:	f000 000f 	andlt.w	r0, r0, #15
 8002414:	b2db      	uxtb	r3, r3
 8002416:	bfaa      	itet	ge
 8002418:	f500 4061 	addge.w	r0, r0, #57600	; 0xe100
 800241c:	5413      	strblt	r3, [r2, r0]
 800241e:	f880 3300 	strbge.w	r3, [r0, #768]	; 0x300
 8002422:	bd30      	pop	{r4, r5, pc}
 8002424:	e000ed00 	.word	0xe000ed00
 8002428:	e000ed14 	.word	0xe000ed14

0800242c <HAL_NVIC_EnableIRQ>:
 800242c:	2800      	cmp	r0, #0
 800242e:	db08      	blt.n	8002442 <HAL_NVIC_EnableIRQ+0x16>
 8002430:	2301      	movs	r3, #1
 8002432:	0942      	lsrs	r2, r0, #5
 8002434:	f000 001f 	and.w	r0, r0, #31
 8002438:	fa03 f000 	lsl.w	r0, r3, r0
 800243c:	4b01      	ldr	r3, [pc, #4]	; (8002444 <HAL_NVIC_EnableIRQ+0x18>)
 800243e:	f843 0022 	str.w	r0, [r3, r2, lsl #2]
 8002442:	4770      	bx	lr
 8002444:	e000e100 	.word	0xe000e100

08002448 <HAL_NVIC_DisableIRQ>:
 8002448:	2800      	cmp	r0, #0
 800244a:	db0d      	blt.n	8002468 <HAL_NVIC_DisableIRQ+0x20>
 800244c:	0943      	lsrs	r3, r0, #5
 800244e:	2201      	movs	r2, #1
 8002450:	f000 001f 	and.w	r0, r0, #31
 8002454:	fa02 f000 	lsl.w	r0, r2, r0
 8002458:	3320      	adds	r3, #32
 800245a:	4a04      	ldr	r2, [pc, #16]	; (800246c <HAL_NVIC_DisableIRQ+0x24>)
 800245c:	f842 0023 	str.w	r0, [r2, r3, lsl #2]
 8002460:	f3bf 8f4f 	dsb	sy
 8002464:	f3bf 8f6f 	isb	sy
 8002468:	4770      	bx	lr
 800246a:	bf00      	nop
 800246c:	e000e100 	.word	0xe000e100

08002470 <DMA_SetConfig>:
 8002470:	b570      	push	{r4, r5, r6, lr}
 8002472:	e9d0 4513 	ldrd	r4, r5, [r0, #76]	; 0x4c
 8002476:	6065      	str	r5, [r4, #4]
 8002478:	6d44      	ldr	r4, [r0, #84]	; 0x54
 800247a:	b114      	cbz	r4, 8002482 <DMA_SetConfig+0x12>
 800247c:	e9d0 4516 	ldrd	r4, r5, [r0, #88]	; 0x58
 8002480:	6065      	str	r5, [r4, #4]
 8002482:	e9d0 5410 	ldrd	r5, r4, [r0, #64]	; 0x40
 8002486:	f004 061c 	and.w	r6, r4, #28
 800248a:	2401      	movs	r4, #1
 800248c:	40b4      	lsls	r4, r6
 800248e:	606c      	str	r4, [r5, #4]
 8002490:	6804      	ldr	r4, [r0, #0]
 8002492:	6063      	str	r3, [r4, #4]
 8002494:	6883      	ldr	r3, [r0, #8]
 8002496:	2b10      	cmp	r3, #16
 8002498:	bf0b      	itete	eq
 800249a:	60a2      	streq	r2, [r4, #8]
 800249c:	60a1      	strne	r1, [r4, #8]
 800249e:	60e1      	streq	r1, [r4, #12]
 80024a0:	60e2      	strne	r2, [r4, #12]
 80024a2:	bd70      	pop	{r4, r5, r6, pc}

080024a4 <DMA_CalcDMAMUXChannelBaseAndMask>:
 80024a4:	6802      	ldr	r2, [r0, #0]
 80024a6:	6c41      	ldr	r1, [r0, #68]	; 0x44
 80024a8:	b2d3      	uxtb	r3, r2
 80024aa:	b510      	push	{r4, lr}
 80024ac:	3b08      	subs	r3, #8
 80024ae:	2414      	movs	r4, #20
 80024b0:	fbb3 f3f4 	udiv	r3, r3, r4
 80024b4:	4c0b      	ldr	r4, [pc, #44]	; (80024e4 <DMA_CalcDMAMUXChannelBaseAndMask+0x40>)
 80024b6:	42a2      	cmp	r2, r4
 80024b8:	bf88      	it	hi
 80024ba:	4a0b      	ldrhi	r2, [pc, #44]	; (80024e8 <DMA_CalcDMAMUXChannelBaseAndMask+0x44>)
 80024bc:	f021 0103 	bic.w	r1, r1, #3
 80024c0:	bf99      	ittee	ls
 80024c2:	f101 4280 	addls.w	r2, r1, #1073741824	; 0x40000000
 80024c6:	f502 3202 	addls.w	r2, r2, #133120	; 0x20800
 80024ca:	1852      	addhi	r2, r2, r1
 80024cc:	3307      	addhi	r3, #7
 80024ce:	6482      	str	r2, [r0, #72]	; 0x48
 80024d0:	4a06      	ldr	r2, [pc, #24]	; (80024ec <DMA_CalcDMAMUXChannelBaseAndMask+0x48>)
 80024d2:	64c2      	str	r2, [r0, #76]	; 0x4c
 80024d4:	f003 031f 	and.w	r3, r3, #31
 80024d8:	2201      	movs	r2, #1
 80024da:	fa02 f303 	lsl.w	r3, r2, r3
 80024de:	6503      	str	r3, [r0, #80]	; 0x50
 80024e0:	bd10      	pop	{r4, pc}
 80024e2:	bf00      	nop
 80024e4:	40020407 	.word	0x40020407
 80024e8:	4002081c 	.word	0x4002081c
 80024ec:	40020880 	.word	0x40020880

080024f0 <HAL_DMA_Init>:
 80024f0:	b510      	push	{r4, lr}
 80024f2:	2800      	cmp	r0, #0
 80024f4:	d061      	beq.n	80025ba <HAL_DMA_Init+0xca>
 80024f6:	6802      	ldr	r2, [r0, #0]
 80024f8:	4b31      	ldr	r3, [pc, #196]	; (80025c0 <HAL_DMA_Init+0xd0>)
 80024fa:	429a      	cmp	r2, r3
 80024fc:	f04f 0414 	mov.w	r4, #20
 8002500:	d84e      	bhi.n	80025a0 <HAL_DMA_Init+0xb0>
 8002502:	4930      	ldr	r1, [pc, #192]	; (80025c4 <HAL_DMA_Init+0xd4>)
 8002504:	4411      	add	r1, r2
 8002506:	fbb1 f1f4 	udiv	r1, r1, r4
 800250a:	0089      	lsls	r1, r1, #2
 800250c:	6441      	str	r1, [r0, #68]	; 0x44
 800250e:	f2a3 4307 	subw	r3, r3, #1031	; 0x407
 8002512:	6403      	str	r3, [r0, #64]	; 0x40
 8002514:	2302      	movs	r3, #2
 8002516:	f880 3025 	strb.w	r3, [r0, #37]	; 0x25
 800251a:	6813      	ldr	r3, [r2, #0]
 800251c:	f423 43ff 	bic.w	r3, r3, #32640	; 0x7f80
 8002520:	f023 0370 	bic.w	r3, r3, #112	; 0x70
 8002524:	6013      	str	r3, [r2, #0]
 8002526:	e9d0 3402 	ldrd	r3, r4, [r0, #8]
 800252a:	4323      	orrs	r3, r4
 800252c:	6904      	ldr	r4, [r0, #16]
 800252e:	6811      	ldr	r1, [r2, #0]
 8002530:	4323      	orrs	r3, r4
 8002532:	6944      	ldr	r4, [r0, #20]
 8002534:	4323      	orrs	r3, r4
 8002536:	6984      	ldr	r4, [r0, #24]
 8002538:	4323      	orrs	r3, r4
 800253a:	69c4      	ldr	r4, [r0, #28]
 800253c:	4323      	orrs	r3, r4
 800253e:	6a04      	ldr	r4, [r0, #32]
 8002540:	4323      	orrs	r3, r4
 8002542:	430b      	orrs	r3, r1
 8002544:	6013      	str	r3, [r2, #0]
 8002546:	f7ff ffad 	bl	80024a4 <DMA_CalcDMAMUXChannelBaseAndMask>
 800254a:	6883      	ldr	r3, [r0, #8]
 800254c:	6c81      	ldr	r1, [r0, #72]	; 0x48
 800254e:	f5b3 4f80 	cmp.w	r3, #16384	; 0x4000
 8002552:	bf04      	itt	eq
 8002554:	2300      	moveq	r3, #0
 8002556:	6043      	streq	r3, [r0, #4]
 8002558:	6842      	ldr	r2, [r0, #4]
 800255a:	f002 037f 	and.w	r3, r2, #127	; 0x7f
 800255e:	600b      	str	r3, [r1, #0]
 8002560:	e9d0 1413 	ldrd	r1, r4, [r0, #76]	; 0x4c
 8002564:	3a01      	subs	r2, #1
 8002566:	2a03      	cmp	r2, #3
 8002568:	604c      	str	r4, [r1, #4]
 800256a:	d821      	bhi.n	80025b0 <HAL_DMA_Init+0xc0>
 800256c:	4a16      	ldr	r2, [pc, #88]	; (80025c8 <HAL_DMA_Init+0xd8>)
 800256e:	4917      	ldr	r1, [pc, #92]	; (80025cc <HAL_DMA_Init+0xdc>)
 8002570:	6581      	str	r1, [r0, #88]	; 0x58
 8002572:	441a      	add	r2, r3
 8002574:	3b01      	subs	r3, #1
 8002576:	0092      	lsls	r2, r2, #2
 8002578:	2101      	movs	r1, #1
 800257a:	f003 0303 	and.w	r3, r3, #3
 800257e:	fa01 f303 	lsl.w	r3, r1, r3
 8002582:	2100      	movs	r1, #0
 8002584:	6542      	str	r2, [r0, #84]	; 0x54
 8002586:	65c3      	str	r3, [r0, #92]	; 0x5c
 8002588:	6011      	str	r1, [r2, #0]
 800258a:	4a11      	ldr	r2, [pc, #68]	; (80025d0 <HAL_DMA_Init+0xe0>)
 800258c:	6453      	str	r3, [r2, #68]	; 0x44
 800258e:	2300      	movs	r3, #0
 8002590:	2201      	movs	r2, #1
 8002592:	63c3      	str	r3, [r0, #60]	; 0x3c
 8002594:	f880 3024 	strb.w	r3, [r0, #36]	; 0x24
 8002598:	f880 2025 	strb.w	r2, [r0, #37]	; 0x25
 800259c:	4618      	mov	r0, r3
 800259e:	bd10      	pop	{r4, pc}
 80025a0:	4b0c      	ldr	r3, [pc, #48]	; (80025d4 <HAL_DMA_Init+0xe4>)
 80025a2:	4413      	add	r3, r2
 80025a4:	fbb3 f3f4 	udiv	r3, r3, r4
 80025a8:	009b      	lsls	r3, r3, #2
 80025aa:	6443      	str	r3, [r0, #68]	; 0x44
 80025ac:	4b0a      	ldr	r3, [pc, #40]	; (80025d8 <HAL_DMA_Init+0xe8>)
 80025ae:	e7b0      	b.n	8002512 <HAL_DMA_Init+0x22>
 80025b0:	2300      	movs	r3, #0
 80025b2:	e9c0 3315 	strd	r3, r3, [r0, #84]	; 0x54
 80025b6:	65c3      	str	r3, [r0, #92]	; 0x5c
 80025b8:	e7e9      	b.n	800258e <HAL_DMA_Init+0x9e>
 80025ba:	2001      	movs	r0, #1
 80025bc:	e7ef      	b.n	800259e <HAL_DMA_Init+0xae>
 80025be:	bf00      	nop
 80025c0:	40020407 	.word	0x40020407
 80025c4:	bffdfff8 	.word	0xbffdfff8
 80025c8:	1000823f 	.word	0x1000823f
 80025cc:	40020940 	.word	0x40020940
 80025d0:	40020900 	.word	0x40020900
 80025d4:	bffdfbf8 	.word	0xbffdfbf8
 80025d8:	40020400 	.word	0x40020400

080025dc <HAL_DMA_DeInit>:
 80025dc:	b538      	push	{r3, r4, r5, lr}
 80025de:	2800      	cmp	r0, #0
 80025e0:	d045      	beq.n	800266e <HAL_DMA_DeInit+0x92>
 80025e2:	6801      	ldr	r1, [r0, #0]
 80025e4:	680b      	ldr	r3, [r1, #0]
 80025e6:	f023 0301 	bic.w	r3, r3, #1
 80025ea:	600b      	str	r3, [r1, #0]
 80025ec:	4b21      	ldr	r3, [pc, #132]	; (8002674 <HAL_DMA_DeInit+0x98>)
 80025ee:	4299      	cmp	r1, r3
 80025f0:	f04f 0414 	mov.w	r4, #20
 80025f4:	d833      	bhi.n	800265e <HAL_DMA_DeInit+0x82>
 80025f6:	4a20      	ldr	r2, [pc, #128]	; (8002678 <HAL_DMA_DeInit+0x9c>)
 80025f8:	440a      	add	r2, r1
 80025fa:	fbb2 f2f4 	udiv	r2, r2, r4
 80025fe:	0092      	lsls	r2, r2, #2
 8002600:	6442      	str	r2, [r0, #68]	; 0x44
 8002602:	f2a3 4307 	subw	r3, r3, #1031	; 0x407
 8002606:	6403      	str	r3, [r0, #64]	; 0x40
 8002608:	e9d0 2310 	ldrd	r2, r3, [r0, #64]	; 0x40
 800260c:	2401      	movs	r4, #1
 800260e:	f003 031c 	and.w	r3, r3, #28
 8002612:	fa04 f303 	lsl.w	r3, r4, r3
 8002616:	2500      	movs	r5, #0
 8002618:	600d      	str	r5, [r1, #0]
 800261a:	6053      	str	r3, [r2, #4]
 800261c:	f7ff ff42 	bl	80024a4 <DMA_CalcDMAMUXChannelBaseAndMask>
 8002620:	6c83      	ldr	r3, [r0, #72]	; 0x48
 8002622:	6841      	ldr	r1, [r0, #4]
 8002624:	601d      	str	r5, [r3, #0]
 8002626:	e9d0 3213 	ldrd	r3, r2, [r0, #76]	; 0x4c
 800262a:	605a      	str	r2, [r3, #4]
 800262c:	1e4a      	subs	r2, r1, #1
 800262e:	2a03      	cmp	r2, #3
 8002630:	d806      	bhi.n	8002640 <HAL_DMA_DeInit+0x64>
 8002632:	4b12      	ldr	r3, [pc, #72]	; (800267c <HAL_DMA_DeInit+0xa0>)
 8002634:	440b      	add	r3, r1
 8002636:	009b      	lsls	r3, r3, #2
 8002638:	4094      	lsls	r4, r2
 800263a:	601d      	str	r5, [r3, #0]
 800263c:	4b10      	ldr	r3, [pc, #64]	; (8002680 <HAL_DMA_DeInit+0xa4>)
 800263e:	645c      	str	r4, [r3, #68]	; 0x44
 8002640:	2300      	movs	r3, #0
 8002642:	63c3      	str	r3, [r0, #60]	; 0x3c
 8002644:	e9c0 3315 	strd	r3, r3, [r0, #84]	; 0x54
 8002648:	e9c0 330b 	strd	r3, r3, [r0, #44]	; 0x2c
 800264c:	e9c0 330d 	strd	r3, r3, [r0, #52]	; 0x34
 8002650:	65c3      	str	r3, [r0, #92]	; 0x5c
 8002652:	f880 3025 	strb.w	r3, [r0, #37]	; 0x25
 8002656:	f880 3024 	strb.w	r3, [r0, #36]	; 0x24
 800265a:	4618      	mov	r0, r3
 800265c:	bd38      	pop	{r3, r4, r5, pc}
 800265e:	4b09      	ldr	r3, [pc, #36]	; (8002684 <HAL_DMA_DeInit+0xa8>)
 8002660:	440b      	add	r3, r1
 8002662:	fbb3 f3f4 	udiv	r3, r3, r4
 8002666:	009b      	lsls	r3, r3, #2
 8002668:	6443      	str	r3, [r0, #68]	; 0x44
 800266a:	4b07      	ldr	r3, [pc, #28]	; (8002688 <HAL_DMA_DeInit+0xac>)
 800266c:	e7cb      	b.n	8002606 <HAL_DMA_DeInit+0x2a>
 800266e:	2001      	movs	r0, #1
 8002670:	e7f4      	b.n	800265c <HAL_DMA_DeInit+0x80>
 8002672:	bf00      	nop
 8002674:	40020407 	.word	0x40020407
 8002678:	bffdfff8 	.word	0xbffdfff8
 800267c:	1000823f 	.word	0x1000823f
 8002680:	40020900 	.word	0x40020900
 8002684:	bffdfbf8 	.word	0xbffdfbf8
 8002688:	40020400 	.word	0x40020400

0800268c <HAL_DMA_Start_IT>:
 800268c:	b570      	push	{r4, r5, r6, lr}
 800268e:	f890 5024 	ldrb.w	r5, [r0, #36]	; 0x24
 8002692:	2d01      	cmp	r5, #1
 8002694:	4604      	mov	r4, r0
 8002696:	d03c      	beq.n	8002712 <HAL_DMA_Start_IT+0x86>
 8002698:	f890 6025 	ldrb.w	r6, [r0, #37]	; 0x25
 800269c:	2501      	movs	r5, #1
 800269e:	42ae      	cmp	r6, r5
 80026a0:	f880 5024 	strb.w	r5, [r0, #36]	; 0x24
 80026a4:	f04f 0600 	mov.w	r6, #0
 80026a8:	d12d      	bne.n	8002706 <HAL_DMA_Start_IT+0x7a>
 80026aa:	2502      	movs	r5, #2
 80026ac:	f880 5025 	strb.w	r5, [r0, #37]	; 0x25
 80026b0:	63c6      	str	r6, [r0, #60]	; 0x3c
 80026b2:	6806      	ldr	r6, [r0, #0]
 80026b4:	6835      	ldr	r5, [r6, #0]
 80026b6:	f025 0501 	bic.w	r5, r5, #1
 80026ba:	6035      	str	r5, [r6, #0]
 80026bc:	f7ff fed8 	bl	8002470 <DMA_SetConfig>
 80026c0:	6b02      	ldr	r2, [r0, #48]	; 0x30
 80026c2:	6803      	ldr	r3, [r0, #0]
 80026c4:	b1ba      	cbz	r2, 80026f6 <HAL_DMA_Start_IT+0x6a>
 80026c6:	681a      	ldr	r2, [r3, #0]
 80026c8:	f042 020e 	orr.w	r2, r2, #14
 80026cc:	601a      	str	r2, [r3, #0]
 80026ce:	6ca2      	ldr	r2, [r4, #72]	; 0x48
 80026d0:	6811      	ldr	r1, [r2, #0]
 80026d2:	03c9      	lsls	r1, r1, #15
 80026d4:	bf42      	ittt	mi
 80026d6:	6811      	ldrmi	r1, [r2, #0]
 80026d8:	f441 7180 	orrmi.w	r1, r1, #256	; 0x100
 80026dc:	6011      	strmi	r1, [r2, #0]
 80026de:	6d62      	ldr	r2, [r4, #84]	; 0x54
 80026e0:	b11a      	cbz	r2, 80026ea <HAL_DMA_Start_IT+0x5e>
 80026e2:	6811      	ldr	r1, [r2, #0]
 80026e4:	f441 7180 	orr.w	r1, r1, #256	; 0x100
 80026e8:	6011      	str	r1, [r2, #0]
 80026ea:	681a      	ldr	r2, [r3, #0]
 80026ec:	f042 0201 	orr.w	r2, r2, #1
 80026f0:	601a      	str	r2, [r3, #0]
 80026f2:	2000      	movs	r0, #0
 80026f4:	bd70      	pop	{r4, r5, r6, pc}
 80026f6:	681a      	ldr	r2, [r3, #0]
 80026f8:	f022 0204 	bic.w	r2, r2, #4
 80026fc:	601a      	str	r2, [r3, #0]
 80026fe:	681a      	ldr	r2, [r3, #0]
 8002700:	f042 020a 	orr.w	r2, r2, #10
 8002704:	e7e2      	b.n	80026cc <HAL_DMA_Start_IT+0x40>
 8002706:	2380      	movs	r3, #128	; 0x80
 8002708:	63c3      	str	r3, [r0, #60]	; 0x3c
 800270a:	f880 6024 	strb.w	r6, [r0, #36]	; 0x24
 800270e:	4628      	mov	r0, r5
 8002710:	e7f0      	b.n	80026f4 <HAL_DMA_Start_IT+0x68>
 8002712:	2002      	movs	r0, #2
 8002714:	e7ee      	b.n	80026f4 <HAL_DMA_Start_IT+0x68>

08002716 <HAL_DMA_Abort>:
 8002716:	b140      	cbz	r0, 800272a <HAL_DMA_Abort+0x14>
 8002718:	f890 3025 	ldrb.w	r3, [r0, #37]	; 0x25
 800271c:	2b02      	cmp	r3, #2
 800271e:	d006      	beq.n	800272e <HAL_DMA_Abort+0x18>
 8002720:	2304      	movs	r3, #4
 8002722:	63c3      	str	r3, [r0, #60]	; 0x3c
 8002724:	2300      	movs	r3, #0
 8002726:	f880 3024 	strb.w	r3, [r0, #36]	; 0x24
 800272a:	2001      	movs	r0, #1
 800272c:	4770      	bx	lr
 800272e:	6803      	ldr	r3, [r0, #0]
 8002730:	6c81      	ldr	r1, [r0, #72]	; 0x48
 8002732:	681a      	ldr	r2, [r3, #0]
 8002734:	f022 020e 	bic.w	r2, r2, #14
 8002738:	601a      	str	r2, [r3, #0]
 800273a:	680a      	ldr	r2, [r1, #0]
 800273c:	f422 7280 	bic.w	r2, r2, #256	; 0x100
 8002740:	600a      	str	r2, [r1, #0]
 8002742:	681a      	ldr	r2, [r3, #0]
 8002744:	f022 0201 	bic.w	r2, r2, #1
 8002748:	601a      	str	r2, [r3, #0]
 800274a:	e9d0 1310 	ldrd	r1, r3, [r0, #64]	; 0x40
 800274e:	f003 021c 	and.w	r2, r3, #28
 8002752:	2301      	movs	r3, #1
 8002754:	4093      	lsls	r3, r2
 8002756:	604b      	str	r3, [r1, #4]
 8002758:	e9d0 3213 	ldrd	r3, r2, [r0, #76]	; 0x4c
 800275c:	605a      	str	r2, [r3, #4]
 800275e:	6d43      	ldr	r3, [r0, #84]	; 0x54
 8002760:	b133      	cbz	r3, 8002770 <HAL_DMA_Abort+0x5a>
 8002762:	681a      	ldr	r2, [r3, #0]
 8002764:	f422 7280 	bic.w	r2, r2, #256	; 0x100
 8002768:	601a      	str	r2, [r3, #0]
 800276a:	e9d0 3216 	ldrd	r3, r2, [r0, #88]	; 0x58
 800276e:	605a      	str	r2, [r3, #4]
 8002770:	2301      	movs	r3, #1
 8002772:	f880 3025 	strb.w	r3, [r0, #37]	; 0x25
 8002776:	2300      	movs	r3, #0
 8002778:	f880 3024 	strb.w	r3, [r0, #36]	; 0x24
 800277c:	4618      	mov	r0, r3
 800277e:	4770      	bx	lr

08002780 <HAL_DMA_Abort_IT>:
 8002780:	b510      	push	{r4, lr}
 8002782:	f890 3025 	ldrb.w	r3, [r0, #37]	; 0x25
 8002786:	2b02      	cmp	r3, #2
 8002788:	d003      	beq.n	8002792 <HAL_DMA_Abort_IT+0x12>
 800278a:	2304      	movs	r3, #4
 800278c:	63c3      	str	r3, [r0, #60]	; 0x3c
 800278e:	2001      	movs	r0, #1
 8002790:	bd10      	pop	{r4, pc}
 8002792:	6803      	ldr	r3, [r0, #0]
 8002794:	681a      	ldr	r2, [r3, #0]
 8002796:	f022 020e 	bic.w	r2, r2, #14
 800279a:	601a      	str	r2, [r3, #0]
 800279c:	681a      	ldr	r2, [r3, #0]
 800279e:	f022 0201 	bic.w	r2, r2, #1
 80027a2:	601a      	str	r2, [r3, #0]
 80027a4:	6c82      	ldr	r2, [r0, #72]	; 0x48
 80027a6:	6813      	ldr	r3, [r2, #0]
 80027a8:	f423 7380 	bic.w	r3, r3, #256	; 0x100
 80027ac:	6013      	str	r3, [r2, #0]
 80027ae:	e9d0 1310 	ldrd	r1, r3, [r0, #64]	; 0x40
 80027b2:	f003 021c 	and.w	r2, r3, #28
 80027b6:	2301      	movs	r3, #1
 80027b8:	4093      	lsls	r3, r2
 80027ba:	604b      	str	r3, [r1, #4]
 80027bc:	e9d0 3213 	ldrd	r3, r2, [r0, #76]	; 0x4c
 80027c0:	605a      	str	r2, [r3, #4]
 80027c2:	6d43      	ldr	r3, [r0, #84]	; 0x54
 80027c4:	b133      	cbz	r3, 80027d4 <HAL_DMA_Abort_IT+0x54>
 80027c6:	681a      	ldr	r2, [r3, #0]
 80027c8:	f422 7280 	bic.w	r2, r2, #256	; 0x100
 80027cc:	601a      	str	r2, [r3, #0]
 80027ce:	e9d0 3216 	ldrd	r3, r2, [r0, #88]	; 0x58
 80027d2:	605a      	str	r2, [r3, #4]
 80027d4:	2301      	movs	r3, #1
 80027d6:	f880 3025 	strb.w	r3, [r0, #37]	; 0x25
 80027da:	6b83      	ldr	r3, [r0, #56]	; 0x38
 80027dc:	2400      	movs	r4, #0
 80027de:	f880 4024 	strb.w	r4, [r0, #36]	; 0x24
 80027e2:	b113      	cbz	r3, 80027ea <HAL_DMA_Abort_IT+0x6a>
 80027e4:	4798      	blx	r3
 80027e6:	4620      	mov	r0, r4
 80027e8:	e7d2      	b.n	8002790 <HAL_DMA_Abort_IT+0x10>
 80027ea:	4618      	mov	r0, r3
 80027ec:	e7d0      	b.n	8002790 <HAL_DMA_Abort_IT+0x10>
	...

080027f0 <HAL_DMA_IRQHandler>:
 80027f0:	b470      	push	{r4, r5, r6}
 80027f2:	6c42      	ldr	r2, [r0, #68]	; 0x44
 80027f4:	6c04      	ldr	r4, [r0, #64]	; 0x40
 80027f6:	6803      	ldr	r3, [r0, #0]
 80027f8:	6826      	ldr	r6, [r4, #0]
 80027fa:	681d      	ldr	r5, [r3, #0]
 80027fc:	f002 021c 	and.w	r2, r2, #28
 8002800:	2104      	movs	r1, #4
 8002802:	4091      	lsls	r1, r2
 8002804:	4231      	tst	r1, r6
 8002806:	d00f      	beq.n	8002828 <HAL_DMA_IRQHandler+0x38>
 8002808:	f015 0f04 	tst.w	r5, #4
 800280c:	d00c      	beq.n	8002828 <HAL_DMA_IRQHandler+0x38>
 800280e:	681a      	ldr	r2, [r3, #0]
 8002810:	0692      	lsls	r2, r2, #26
 8002812:	bf5e      	ittt	pl
 8002814:	681a      	ldrpl	r2, [r3, #0]
 8002816:	f022 0204 	bicpl.w	r2, r2, #4
 800281a:	601a      	strpl	r2, [r3, #0]
 800281c:	6b03      	ldr	r3, [r0, #48]	; 0x30
 800281e:	6061      	str	r1, [r4, #4]
 8002820:	2b00      	cmp	r3, #0
 8002822:	d033      	beq.n	800288c <HAL_DMA_IRQHandler+0x9c>
 8002824:	bc70      	pop	{r4, r5, r6}
 8002826:	4718      	bx	r3
 8002828:	2102      	movs	r1, #2
 800282a:	4091      	lsls	r1, r2
 800282c:	4231      	tst	r1, r6
 800282e:	d017      	beq.n	8002860 <HAL_DMA_IRQHandler+0x70>
 8002830:	f015 0f02 	tst.w	r5, #2
 8002834:	d014      	beq.n	8002860 <HAL_DMA_IRQHandler+0x70>
 8002836:	681a      	ldr	r2, [r3, #0]
 8002838:	0694      	lsls	r4, r2, #26
 800283a:	d406      	bmi.n	800284a <HAL_DMA_IRQHandler+0x5a>
 800283c:	681a      	ldr	r2, [r3, #0]
 800283e:	f022 020a 	bic.w	r2, r2, #10
 8002842:	601a      	str	r2, [r3, #0]
 8002844:	2201      	movs	r2, #1
 8002846:	f880 2025 	strb.w	r2, [r0, #37]	; 0x25
 800284a:	4a11      	ldr	r2, [pc, #68]	; (8002890 <HAL_DMA_IRQHandler+0xa0>)
 800284c:	4293      	cmp	r3, r2
 800284e:	bf8c      	ite	hi
 8002850:	4b10      	ldrhi	r3, [pc, #64]	; (8002894 <HAL_DMA_IRQHandler+0xa4>)
 8002852:	4b11      	ldrls	r3, [pc, #68]	; (8002898 <HAL_DMA_IRQHandler+0xa8>)
 8002854:	6059      	str	r1, [r3, #4]
 8002856:	2300      	movs	r3, #0
 8002858:	f880 3024 	strb.w	r3, [r0, #36]	; 0x24
 800285c:	6ac3      	ldr	r3, [r0, #44]	; 0x2c
 800285e:	e7df      	b.n	8002820 <HAL_DMA_IRQHandler+0x30>
 8002860:	2108      	movs	r1, #8
 8002862:	4091      	lsls	r1, r2
 8002864:	4231      	tst	r1, r6
 8002866:	d011      	beq.n	800288c <HAL_DMA_IRQHandler+0x9c>
 8002868:	0729      	lsls	r1, r5, #28
 800286a:	d50f      	bpl.n	800288c <HAL_DMA_IRQHandler+0x9c>
 800286c:	6819      	ldr	r1, [r3, #0]
 800286e:	f021 010e 	bic.w	r1, r1, #14
 8002872:	6019      	str	r1, [r3, #0]
 8002874:	2301      	movs	r3, #1
 8002876:	fa03 f202 	lsl.w	r2, r3, r2
 800287a:	6062      	str	r2, [r4, #4]
 800287c:	63c3      	str	r3, [r0, #60]	; 0x3c
 800287e:	f880 3025 	strb.w	r3, [r0, #37]	; 0x25
 8002882:	2300      	movs	r3, #0
 8002884:	f880 3024 	strb.w	r3, [r0, #36]	; 0x24
 8002888:	6b43      	ldr	r3, [r0, #52]	; 0x34
 800288a:	e7c9      	b.n	8002820 <HAL_DMA_IRQHandler+0x30>
 800288c:	bc70      	pop	{r4, r5, r6}
 800288e:	4770      	bx	lr
 8002890:	40020080 	.word	0x40020080
 8002894:	40020400 	.word	0x40020400
 8002898:	40020000 	.word	0x40020000

0800289c <FLASH_Program_Fast>:
 800289c:	4a0a      	ldr	r2, [pc, #40]	; (80028c8 <FLASH_Program_Fast+0x2c>)
 800289e:	6953      	ldr	r3, [r2, #20]
 80028a0:	f443 2380 	orr.w	r3, r3, #262144	; 0x40000
 80028a4:	b530      	push	{r4, r5, lr}
 80028a6:	6153      	str	r3, [r2, #20]
 80028a8:	f3ef 8410 	mrs	r4, PRIMASK
 80028ac:	b672      	cpsid	i
 80028ae:	2300      	movs	r3, #0
 80028b0:	58cd      	ldr	r5, [r1, r3]
 80028b2:	50c5      	str	r5, [r0, r3]
 80028b4:	3304      	adds	r3, #4
 80028b6:	f5b3 7f80 	cmp.w	r3, #256	; 0x100
 80028ba:	d1f9      	bne.n	80028b0 <FLASH_Program_Fast+0x14>
 80028bc:	6913      	ldr	r3, [r2, #16]
 80028be:	03db      	lsls	r3, r3, #15
 80028c0:	d4fc      	bmi.n	80028bc <FLASH_Program_Fast+0x20>
 80028c2:	f384 8810 	msr	PRIMASK, r4
 80028c6:	bd30      	pop	{r4, r5, pc}
 80028c8:	58004000 	.word	0x58004000

080028cc <HAL_FLASH_Unlock>:
 80028cc:	4b06      	ldr	r3, [pc, #24]	; (80028e8 <HAL_FLASH_Unlock+0x1c>)
 80028ce:	695a      	ldr	r2, [r3, #20]
 80028d0:	2a00      	cmp	r2, #0
 80028d2:	bfbf      	itttt	lt
 80028d4:	4a05      	ldrlt	r2, [pc, #20]	; (80028ec <HAL_FLASH_Unlock+0x20>)
 80028d6:	609a      	strlt	r2, [r3, #8]
 80028d8:	f102 3288 	addlt.w	r2, r2, #2290649224	; 0x88888888
 80028dc:	609a      	strlt	r2, [r3, #8]
 80028de:	bfba      	itte	lt
 80028e0:	6958      	ldrlt	r0, [r3, #20]
 80028e2:	0fc0      	lsrlt	r0, r0, #31
 80028e4:	2000      	movge	r0, #0
 80028e6:	4770      	bx	lr
 80028e8:	58004000 	.word	0x58004000
 80028ec:	45670123 	.word	0x45670123

080028f0 <HAL_FLASH_Lock>:
 80028f0:	4b04      	ldr	r3, [pc, #16]	; (8002904 <HAL_FLASH_Lock+0x14>)
 80028f2:	695a      	ldr	r2, [r3, #20]
 80028f4:	f042 4200 	orr.w	r2, r2, #2147483648	; 0x80000000
 80028f8:	615a      	str	r2, [r3, #20]
 80028fa:	6958      	ldr	r0, [r3, #20]
 80028fc:	43c0      	mvns	r0, r0
 80028fe:	0fc0      	lsrs	r0, r0, #31
 8002900:	4770      	bx	lr
 8002902:	bf00      	nop
 8002904:	58004000 	.word	0x58004000

08002908 <FLASH_WaitForLastOperation>:
 8002908:	b570      	push	{r4, r5, r6, lr}
 800290a:	4605      	mov	r5, r0
 800290c:	f7fe fe20 	bl	8001550 <HAL_GetTick>
 8002910:	4e12      	ldr	r6, [pc, #72]	; (800295c <FLASH_WaitForLastOperation+0x54>)
 8002912:	4604      	mov	r4, r0
 8002914:	6933      	ldr	r3, [r6, #16]
 8002916:	03d9      	lsls	r1, r3, #15
 8002918:	d413      	bmi.n	8002942 <FLASH_WaitForLastOperation+0x3a>
 800291a:	6933      	ldr	r3, [r6, #16]
 800291c:	07da      	lsls	r2, r3, #31
 800291e:	bf44      	itt	mi
 8002920:	2201      	movmi	r2, #1
 8002922:	6132      	strmi	r2, [r6, #16]
 8002924:	f24c 32fa 	movw	r2, #50170	; 0xc3fa
 8002928:	4013      	ands	r3, r2
 800292a:	d111      	bne.n	8002950 <FLASH_WaitForLastOperation+0x48>
 800292c:	4e0b      	ldr	r6, [pc, #44]	; (800295c <FLASH_WaitForLastOperation+0x54>)
 800292e:	6930      	ldr	r0, [r6, #16]
 8002930:	f410 2080 	ands.w	r0, r0, #262144	; 0x40000
 8002934:	d00b      	beq.n	800294e <FLASH_WaitForLastOperation+0x46>
 8002936:	f7fe fe0b 	bl	8001550 <HAL_GetTick>
 800293a:	1b00      	subs	r0, r0, r4
 800293c:	42a8      	cmp	r0, r5
 800293e:	d3f6      	bcc.n	800292e <FLASH_WaitForLastOperation+0x26>
 8002940:	e004      	b.n	800294c <FLASH_WaitForLastOperation+0x44>
 8002942:	f7fe fe05 	bl	8001550 <HAL_GetTick>
 8002946:	1b00      	subs	r0, r0, r4
 8002948:	42a8      	cmp	r0, r5
 800294a:	d3e3      	bcc.n	8002914 <FLASH_WaitForLastOperation+0xc>
 800294c:	2003      	movs	r0, #3
 800294e:	bd70      	pop	{r4, r5, r6, pc}
 8002950:	4a02      	ldr	r2, [pc, #8]	; (800295c <FLASH_WaitForLastOperation+0x54>)
 8002952:	6113      	str	r3, [r2, #16]
 8002954:	4a02      	ldr	r2, [pc, #8]	; (8002960 <FLASH_WaitForLastOperation+0x58>)
 8002956:	2001      	movs	r0, #1
 8002958:	6053      	str	r3, [r2, #4]
 800295a:	e7f8      	b.n	800294e <FLASH_WaitForLastOperation+0x46>
 800295c:	58004000 	.word	0x58004000
 8002960:	20000350 	.word	0x20000350

08002964 <HAL_FLASH_Program>:
 8002964:	e92d 41f0 	stmdb	sp!, {r4, r5, r6, r7, r8, lr}
 8002968:	4d18      	ldr	r5, [pc, #96]	; (80029cc <HAL_FLASH_Program+0x68>)
 800296a:	4698      	mov	r8, r3
 800296c:	782b      	ldrb	r3, [r5, #0]
 800296e:	2b01      	cmp	r3, #1
 8002970:	4606      	mov	r6, r0
 8002972:	460c      	mov	r4, r1
 8002974:	4617      	mov	r7, r2
 8002976:	d026      	beq.n	80029c6 <HAL_FLASH_Program+0x62>
 8002978:	2301      	movs	r3, #1
 800297a:	702b      	strb	r3, [r5, #0]
 800297c:	f44f 707a 	mov.w	r0, #1000	; 0x3e8
 8002980:	2300      	movs	r3, #0
 8002982:	606b      	str	r3, [r5, #4]
 8002984:	f7ff ffc0 	bl	8002908 <FLASH_WaitForLastOperation>
 8002988:	b9a0      	cbnz	r0, 80029b4 <HAL_FLASH_Program+0x50>
 800298a:	2e01      	cmp	r6, #1
 800298c:	d116      	bne.n	80029bc <HAL_FLASH_Program+0x58>
 800298e:	4a10      	ldr	r2, [pc, #64]	; (80029d0 <HAL_FLASH_Program+0x6c>)
 8002990:	6953      	ldr	r3, [r2, #20]
 8002992:	f043 0301 	orr.w	r3, r3, #1
 8002996:	6153      	str	r3, [r2, #20]
 8002998:	6027      	str	r7, [r4, #0]
 800299a:	f3bf 8f6f 	isb	sy
 800299e:	f8c4 8004 	str.w	r8, [r4, #4]
 80029a2:	f44f 707a 	mov.w	r0, #1000	; 0x3e8
 80029a6:	f7ff ffaf 	bl	8002908 <FLASH_WaitForLastOperation>
 80029aa:	4a09      	ldr	r2, [pc, #36]	; (80029d0 <HAL_FLASH_Program+0x6c>)
 80029ac:	6953      	ldr	r3, [r2, #20]
 80029ae:	ea23 0606 	bic.w	r6, r3, r6
 80029b2:	6156      	str	r6, [r2, #20]
 80029b4:	2300      	movs	r3, #0
 80029b6:	702b      	strb	r3, [r5, #0]
 80029b8:	e8bd 81f0 	ldmia.w	sp!, {r4, r5, r6, r7, r8, pc}
 80029bc:	4639      	mov	r1, r7
 80029be:	4620      	mov	r0, r4
 80029c0:	f7ff ff6c 	bl	800289c <FLASH_Program_Fast>
 80029c4:	e7ed      	b.n	80029a2 <HAL_FLASH_Program+0x3e>
 80029c6:	2002      	movs	r0, #2
 80029c8:	e7f6      	b.n	80029b8 <HAL_FLASH_Program+0x54>
 80029ca:	bf00      	nop
 80029cc:	20000350 	.word	0x20000350
 80029d0:	58004000 	.word	0x58004000

080029d4 <FLASH_PageErase>:
 80029d4:	4a05      	ldr	r2, [pc, #20]	; (80029ec <FLASH_PageErase+0x18>)
 80029d6:	6953      	ldr	r3, [r2, #20]
 80029d8:	f423 737e 	bic.w	r3, r3, #1016	; 0x3f8
 80029dc:	ea43 00c0 	orr.w	r0, r3, r0, lsl #3
 80029e0:	f440 3080 	orr.w	r0, r0, #65536	; 0x10000
 80029e4:	f040 0002 	orr.w	r0, r0, #2
 80029e8:	6150      	str	r0, [r2, #20]
 80029ea:	4770      	bx	lr
 80029ec:	58004000 	.word	0x58004000

080029f0 <HAL_FLASHEx_Erase>:
 80029f0:	e92d 41f0 	stmdb	sp!, {r4, r5, r6, r7, r8, lr}
 80029f4:	4f23      	ldr	r7, [pc, #140]	; (8002a84 <HAL_FLASHEx_Erase+0x94>)
 80029f6:	783b      	ldrb	r3, [r7, #0]
 80029f8:	2b01      	cmp	r3, #1
 80029fa:	4605      	mov	r5, r0
 80029fc:	4688      	mov	r8, r1
 80029fe:	d03f      	beq.n	8002a80 <HAL_FLASHEx_Erase+0x90>
 8002a00:	2301      	movs	r3, #1
 8002a02:	703b      	strb	r3, [r7, #0]
 8002a04:	f44f 707a 	mov.w	r0, #1000	; 0x3e8
 8002a08:	2300      	movs	r3, #0
 8002a0a:	607b      	str	r3, [r7, #4]
 8002a0c:	f7ff ff7c 	bl	8002908 <FLASH_WaitForLastOperation>
 8002a10:	4604      	mov	r4, r0
 8002a12:	b988      	cbnz	r0, 8002a38 <HAL_FLASHEx_Erase+0x48>
 8002a14:	682b      	ldr	r3, [r5, #0]
 8002a16:	2b04      	cmp	r3, #4
 8002a18:	d113      	bne.n	8002a42 <HAL_FLASHEx_Erase+0x52>
 8002a1a:	4a1b      	ldr	r2, [pc, #108]	; (8002a88 <HAL_FLASHEx_Erase+0x98>)
 8002a1c:	6953      	ldr	r3, [r2, #20]
 8002a1e:	f443 3380 	orr.w	r3, r3, #65536	; 0x10000
 8002a22:	f043 0304 	orr.w	r3, r3, #4
 8002a26:	6153      	str	r3, [r2, #20]
 8002a28:	f44f 707a 	mov.w	r0, #1000	; 0x3e8
 8002a2c:	f7ff ff6c 	bl	8002908 <FLASH_WaitForLastOperation>
 8002a30:	4604      	mov	r4, r0
 8002a32:	4b15      	ldr	r3, [pc, #84]	; (8002a88 <HAL_FLASHEx_Erase+0x98>)
 8002a34:	681a      	ldr	r2, [r3, #0]
 8002a36:	681b      	ldr	r3, [r3, #0]
 8002a38:	2300      	movs	r3, #0
 8002a3a:	703b      	strb	r3, [r7, #0]
 8002a3c:	4620      	mov	r0, r4
 8002a3e:	e8bd 81f0 	ldmia.w	sp!, {r4, r5, r6, r7, r8, pc}
 8002a42:	f04f 33ff 	mov.w	r3, #4294967295
 8002a46:	f8c8 3000 	str.w	r3, [r8]
 8002a4a:	686e      	ldr	r6, [r5, #4]
 8002a4c:	e9d5 3201 	ldrd	r3, r2, [r5, #4]
 8002a50:	4413      	add	r3, r2
 8002a52:	42b3      	cmp	r3, r6
 8002a54:	d90a      	bls.n	8002a6c <HAL_FLASHEx_Erase+0x7c>
 8002a56:	4630      	mov	r0, r6
 8002a58:	f7ff ffbc 	bl	80029d4 <FLASH_PageErase>
 8002a5c:	f44f 707a 	mov.w	r0, #1000	; 0x3e8
 8002a60:	f7ff ff52 	bl	8002908 <FLASH_WaitForLastOperation>
 8002a64:	b150      	cbz	r0, 8002a7c <HAL_FLASHEx_Erase+0x8c>
 8002a66:	f8c8 6000 	str.w	r6, [r8]
 8002a6a:	4604      	mov	r4, r0
 8002a6c:	4a06      	ldr	r2, [pc, #24]	; (8002a88 <HAL_FLASHEx_Erase+0x98>)
 8002a6e:	6953      	ldr	r3, [r2, #20]
 8002a70:	f423 737e 	bic.w	r3, r3, #1016	; 0x3f8
 8002a74:	f023 0302 	bic.w	r3, r3, #2
 8002a78:	6153      	str	r3, [r2, #20]
 8002a7a:	e7da      	b.n	8002a32 <HAL_FLASHEx_Erase+0x42>
 8002a7c:	3601      	adds	r6, #1
 8002a7e:	e7e5      	b.n	8002a4c <HAL_FLASHEx_Erase+0x5c>
 8002a80:	2402      	movs	r4, #2
 8002a82:	e7db      	b.n	8002a3c <HAL_FLASHEx_Erase+0x4c>
 8002a84:	20000350 	.word	0x20000350
 8002a88:	58004000 	.word	0x58004000

08002a8c <HAL_FLASHEx_Erase_IT>:
 8002a8c:	b570      	push	{r4, r5, r6, lr}
 8002a8e:	4c16      	ldr	r4, [pc, #88]	; (8002ae8 <HAL_FLASHEx_Erase_IT+0x5c>)
 8002a90:	7823      	ldrb	r3, [r4, #0]
 8002a92:	2b01      	cmp	r3, #1
 8002a94:	4605      	mov	r5, r0
 8002a96:	d025      	beq.n	8002ae4 <HAL_FLASHEx_Erase_IT+0x58>
 8002a98:	2301      	movs	r3, #1
 8002a9a:	7023      	strb	r3, [r4, #0]
 8002a9c:	6803      	ldr	r3, [r0, #0]
 8002a9e:	60a3      	str	r3, [r4, #8]
 8002aa0:	2600      	movs	r6, #0
 8002aa2:	f44f 707a 	mov.w	r0, #1000	; 0x3e8
 8002aa6:	6066      	str	r6, [r4, #4]
 8002aa8:	f7ff ff2e 	bl	8002908 <FLASH_WaitForLastOperation>
 8002aac:	4601      	mov	r1, r0
 8002aae:	b110      	cbz	r0, 8002ab6 <HAL_FLASHEx_Erase_IT+0x2a>
 8002ab0:	7026      	strb	r6, [r4, #0]
 8002ab2:	4608      	mov	r0, r1
 8002ab4:	bd70      	pop	{r4, r5, r6, pc}
 8002ab6:	4a0d      	ldr	r2, [pc, #52]	; (8002aec <HAL_FLASHEx_Erase_IT+0x60>)
 8002ab8:	6953      	ldr	r3, [r2, #20]
 8002aba:	f043 7340 	orr.w	r3, r3, #50331648	; 0x3000000
 8002abe:	6153      	str	r3, [r2, #20]
 8002ac0:	682b      	ldr	r3, [r5, #0]
 8002ac2:	2b04      	cmp	r3, #4
 8002ac4:	d107      	bne.n	8002ad6 <HAL_FLASHEx_Erase_IT+0x4a>
 8002ac6:	6120      	str	r0, [r4, #16]
 8002ac8:	6953      	ldr	r3, [r2, #20]
 8002aca:	f443 3380 	orr.w	r3, r3, #65536	; 0x10000
 8002ace:	f043 0304 	orr.w	r3, r3, #4
 8002ad2:	6153      	str	r3, [r2, #20]
 8002ad4:	e7ed      	b.n	8002ab2 <HAL_FLASHEx_Erase_IT+0x26>
 8002ad6:	68ab      	ldr	r3, [r5, #8]
 8002ad8:	6868      	ldr	r0, [r5, #4]
 8002ada:	6163      	str	r3, [r4, #20]
 8002adc:	6120      	str	r0, [r4, #16]
 8002ade:	f7ff ff79 	bl	80029d4 <FLASH_PageErase>
 8002ae2:	e7e6      	b.n	8002ab2 <HAL_FLASHEx_Erase_IT+0x26>
 8002ae4:	2102      	movs	r1, #2
 8002ae6:	e7e4      	b.n	8002ab2 <HAL_FLASHEx_Erase_IT+0x26>
 8002ae8:	20000350 	.word	0x20000350
 8002aec:	58004000 	.word	0x58004000

08002af0 <HAL_GPIO_Init>:
 8002af0:	e92d 4ff0 	stmdb	sp!, {r4, r5, r6, r7, r8, r9, sl, fp, lr}
 8002af4:	4c52      	ldr	r4, [pc, #328]	; (8002c40 <HAL_GPIO_Init+0x150>)
 8002af6:	2300      	movs	r3, #0
 8002af8:	f04f 090f 	mov.w	r9, #15
 8002afc:	680a      	ldr	r2, [r1, #0]
 8002afe:	fa32 f503 	lsrs.w	r5, r2, r3
 8002b02:	d101      	bne.n	8002b08 <HAL_GPIO_Init+0x18>
 8002b04:	e8bd 8ff0 	ldmia.w	sp!, {r4, r5, r6, r7, r8, r9, sl, fp, pc}
 8002b08:	2501      	movs	r5, #1
 8002b0a:	fa05 f803 	lsl.w	r8, r5, r3
 8002b0e:	ea18 0202 	ands.w	r2, r8, r2
 8002b12:	f000 808e 	beq.w	8002c32 <HAL_GPIO_Init+0x142>
 8002b16:	684e      	ldr	r6, [r1, #4]
 8002b18:	2703      	movs	r7, #3
 8002b1a:	f006 0503 	and.w	r5, r6, #3
 8002b1e:	ea4f 0e43 	mov.w	lr, r3, lsl #1
 8002b22:	fa07 fc0e 	lsl.w	ip, r7, lr
 8002b26:	1e6f      	subs	r7, r5, #1
 8002b28:	2f01      	cmp	r7, #1
 8002b2a:	ea6f 0c0c 	mvn.w	ip, ip
 8002b2e:	d832      	bhi.n	8002b96 <HAL_GPIO_Init+0xa6>
 8002b30:	6887      	ldr	r7, [r0, #8]
 8002b32:	ea07 0a0c 	and.w	sl, r7, ip
 8002b36:	68cf      	ldr	r7, [r1, #12]
 8002b38:	fa07 f70e 	lsl.w	r7, r7, lr
 8002b3c:	ea47 070a 	orr.w	r7, r7, sl
 8002b40:	6087      	str	r7, [r0, #8]
 8002b42:	6847      	ldr	r7, [r0, #4]
 8002b44:	ea27 0808 	bic.w	r8, r7, r8
 8002b48:	f3c6 1700 	ubfx	r7, r6, #4, #1
 8002b4c:	409f      	lsls	r7, r3
 8002b4e:	ea47 0708 	orr.w	r7, r7, r8
 8002b52:	6047      	str	r7, [r0, #4]
 8002b54:	68c7      	ldr	r7, [r0, #12]
 8002b56:	ea07 080c 	and.w	r8, r7, ip
 8002b5a:	688f      	ldr	r7, [r1, #8]
 8002b5c:	fa07 f70e 	lsl.w	r7, r7, lr
 8002b60:	ea47 0708 	orr.w	r7, r7, r8
 8002b64:	2d02      	cmp	r5, #2
 8002b66:	60c7      	str	r7, [r0, #12]
 8002b68:	d117      	bne.n	8002b9a <HAL_GPIO_Init+0xaa>
 8002b6a:	ea4f 08d3 	mov.w	r8, r3, lsr #3
 8002b6e:	eb00 0888 	add.w	r8, r0, r8, lsl #2
 8002b72:	f003 0a07 	and.w	sl, r3, #7
 8002b76:	f8d8 7020 	ldr.w	r7, [r8, #32]
 8002b7a:	ea4f 0a8a 	mov.w	sl, sl, lsl #2
 8002b7e:	fa09 fb0a 	lsl.w	fp, r9, sl
 8002b82:	ea27 0b0b 	bic.w	fp, r7, fp
 8002b86:	690f      	ldr	r7, [r1, #16]
 8002b88:	fa07 f70a 	lsl.w	r7, r7, sl
 8002b8c:	ea47 070b 	orr.w	r7, r7, fp
 8002b90:	f8c8 7020 	str.w	r7, [r8, #32]
 8002b94:	e001      	b.n	8002b9a <HAL_GPIO_Init+0xaa>
 8002b96:	2d03      	cmp	r5, #3
 8002b98:	d1dc      	bne.n	8002b54 <HAL_GPIO_Init+0x64>
 8002b9a:	6807      	ldr	r7, [r0, #0]
 8002b9c:	fa05 f50e 	lsl.w	r5, r5, lr
 8002ba0:	ea07 070c 	and.w	r7, r7, ip
 8002ba4:	432f      	orrs	r7, r5
 8002ba6:	f416 3f40 	tst.w	r6, #196608	; 0x30000
 8002baa:	6007      	str	r7, [r0, #0]
 8002bac:	d041      	beq.n	8002c32 <HAL_GPIO_Init+0x142>
 8002bae:	f023 0703 	bic.w	r7, r3, #3
 8002bb2:	f107 4780 	add.w	r7, r7, #1073741824	; 0x40000000
 8002bb6:	f507 3780 	add.w	r7, r7, #65536	; 0x10000
 8002bba:	f003 0c03 	and.w	ip, r3, #3
 8002bbe:	68bd      	ldr	r5, [r7, #8]
 8002bc0:	ea4f 0c8c 	mov.w	ip, ip, lsl #2
 8002bc4:	f04f 0e07 	mov.w	lr, #7
 8002bc8:	fa0e fe0c 	lsl.w	lr, lr, ip
 8002bcc:	f1b0 4f90 	cmp.w	r0, #1207959552	; 0x48000000
 8002bd0:	ea25 0e0e 	bic.w	lr, r5, lr
 8002bd4:	d02f      	beq.n	8002c36 <HAL_GPIO_Init+0x146>
 8002bd6:	4d1b      	ldr	r5, [pc, #108]	; (8002c44 <HAL_GPIO_Init+0x154>)
 8002bd8:	42a8      	cmp	r0, r5
 8002bda:	d02e      	beq.n	8002c3a <HAL_GPIO_Init+0x14a>
 8002bdc:	f505 6580 	add.w	r5, r5, #1024	; 0x400
 8002be0:	42a8      	cmp	r0, r5
 8002be2:	bf0c      	ite	eq
 8002be4:	2502      	moveq	r5, #2
 8002be6:	2507      	movne	r5, #7
 8002be8:	fa05 f50c 	lsl.w	r5, r5, ip
 8002bec:	ea45 050e 	orr.w	r5, r5, lr
 8002bf0:	60bd      	str	r5, [r7, #8]
 8002bf2:	6825      	ldr	r5, [r4, #0]
 8002bf4:	43d7      	mvns	r7, r2
 8002bf6:	f416 1f80 	tst.w	r6, #1048576	; 0x100000
 8002bfa:	bf0c      	ite	eq
 8002bfc:	403d      	andeq	r5, r7
 8002bfe:	4315      	orrne	r5, r2
 8002c00:	6025      	str	r5, [r4, #0]
 8002c02:	6865      	ldr	r5, [r4, #4]
 8002c04:	f416 1f00 	tst.w	r6, #2097152	; 0x200000
 8002c08:	bf0c      	ite	eq
 8002c0a:	403d      	andeq	r5, r7
 8002c0c:	4315      	orrne	r5, r2
 8002c0e:	6065      	str	r5, [r4, #4]
 8002c10:	f8d4 5080 	ldr.w	r5, [r4, #128]	; 0x80
 8002c14:	f416 3f80 	tst.w	r6, #65536	; 0x10000
 8002c18:	bf0c      	ite	eq
 8002c1a:	403d      	andeq	r5, r7
 8002c1c:	4315      	orrne	r5, r2
 8002c1e:	f8c4 5080 	str.w	r5, [r4, #128]	; 0x80
 8002c22:	f8d4 5084 	ldr.w	r5, [r4, #132]	; 0x84
 8002c26:	03b6      	lsls	r6, r6, #14
 8002c28:	bf54      	ite	pl
 8002c2a:	403d      	andpl	r5, r7
 8002c2c:	4315      	orrmi	r5, r2
 8002c2e:	f8c4 5084 	str.w	r5, [r4, #132]	; 0x84
 8002c32:	3301      	adds	r3, #1
 8002c34:	e762      	b.n	8002afc <HAL_GPIO_Init+0xc>
 8002c36:	2500      	movs	r5, #0
 8002c38:	e7d6      	b.n	8002be8 <HAL_GPIO_Init+0xf8>
 8002c3a:	2501      	movs	r5, #1
 8002c3c:	e7d4      	b.n	8002be8 <HAL_GPIO_Init+0xf8>
 8002c3e:	bf00      	nop
 8002c40:	58000800 	.word	0x58000800
 8002c44:	48000400 	.word	0x48000400

08002c48 <HAL_GPIO_DeInit>:
 8002c48:	4a37      	ldr	r2, [pc, #220]	; (8002d28 <HAL_GPIO_DeInit+0xe0>)
 8002c4a:	e92d 4ff0 	stmdb	sp!, {r4, r5, r6, r7, r8, r9, sl, fp, lr}
 8002c4e:	2300      	movs	r3, #0
 8002c50:	f04f 0a01 	mov.w	sl, #1
 8002c54:	f04f 0b07 	mov.w	fp, #7
 8002c58:	f04f 090f 	mov.w	r9, #15
 8002c5c:	fa31 f403 	lsrs.w	r4, r1, r3
 8002c60:	d101      	bne.n	8002c66 <HAL_GPIO_DeInit+0x1e>
 8002c62:	e8bd 8ff0 	ldmia.w	sp!, {r4, r5, r6, r7, r8, r9, sl, fp, pc}
 8002c66:	fa0a fc03 	lsl.w	ip, sl, r3
 8002c6a:	ea1c 0601 	ands.w	r6, ip, r1
 8002c6e:	d054      	beq.n	8002d1a <HAL_GPIO_DeInit+0xd2>
 8002c70:	f023 0403 	bic.w	r4, r3, #3
 8002c74:	f104 4480 	add.w	r4, r4, #1073741824	; 0x40000000
 8002c78:	f504 3480 	add.w	r4, r4, #65536	; 0x10000
 8002c7c:	f003 0703 	and.w	r7, r3, #3
 8002c80:	68a5      	ldr	r5, [r4, #8]
 8002c82:	00bf      	lsls	r7, r7, #2
 8002c84:	fa0b f807 	lsl.w	r8, fp, r7
 8002c88:	f1b0 4f90 	cmp.w	r0, #1207959552	; 0x48000000
 8002c8c:	ea08 0e05 	and.w	lr, r8, r5
 8002c90:	d045      	beq.n	8002d1e <HAL_GPIO_DeInit+0xd6>
 8002c92:	4d26      	ldr	r5, [pc, #152]	; (8002d2c <HAL_GPIO_DeInit+0xe4>)
 8002c94:	42a8      	cmp	r0, r5
 8002c96:	d044      	beq.n	8002d22 <HAL_GPIO_DeInit+0xda>
 8002c98:	f505 6580 	add.w	r5, r5, #1024	; 0x400
 8002c9c:	42a8      	cmp	r0, r5
 8002c9e:	bf0c      	ite	eq
 8002ca0:	2502      	moveq	r5, #2
 8002ca2:	2507      	movne	r5, #7
 8002ca4:	40bd      	lsls	r5, r7
 8002ca6:	4575      	cmp	r5, lr
 8002ca8:	d117      	bne.n	8002cda <HAL_GPIO_DeInit+0x92>
 8002caa:	f8d2 5080 	ldr.w	r5, [r2, #128]	; 0x80
 8002cae:	ea25 0506 	bic.w	r5, r5, r6
 8002cb2:	f8c2 5080 	str.w	r5, [r2, #128]	; 0x80
 8002cb6:	f8d2 5084 	ldr.w	r5, [r2, #132]	; 0x84
 8002cba:	ea25 0506 	bic.w	r5, r5, r6
 8002cbe:	f8c2 5084 	str.w	r5, [r2, #132]	; 0x84
 8002cc2:	6815      	ldr	r5, [r2, #0]
 8002cc4:	ea25 0506 	bic.w	r5, r5, r6
 8002cc8:	6015      	str	r5, [r2, #0]
 8002cca:	6855      	ldr	r5, [r2, #4]
 8002ccc:	ea25 0506 	bic.w	r5, r5, r6
 8002cd0:	6055      	str	r5, [r2, #4]
 8002cd2:	68a5      	ldr	r5, [r4, #8]
 8002cd4:	ea25 0508 	bic.w	r5, r5, r8
 8002cd8:	60a5      	str	r5, [r4, #8]
 8002cda:	6805      	ldr	r5, [r0, #0]
 8002cdc:	2603      	movs	r6, #3
 8002cde:	005c      	lsls	r4, r3, #1
 8002ce0:	fa06 f404 	lsl.w	r4, r6, r4
 8002ce4:	fa23 f606 	lsr.w	r6, r3, r6
 8002ce8:	4325      	orrs	r5, r4
 8002cea:	eb00 0686 	add.w	r6, r0, r6, lsl #2
 8002cee:	6005      	str	r5, [r0, #0]
 8002cf0:	f003 0507 	and.w	r5, r3, #7
 8002cf4:	6a37      	ldr	r7, [r6, #32]
 8002cf6:	00ad      	lsls	r5, r5, #2
 8002cf8:	fa09 f505 	lsl.w	r5, r9, r5
 8002cfc:	ea27 0505 	bic.w	r5, r7, r5
 8002d00:	6235      	str	r5, [r6, #32]
 8002d02:	6885      	ldr	r5, [r0, #8]
 8002d04:	ea25 0504 	bic.w	r5, r5, r4
 8002d08:	6085      	str	r5, [r0, #8]
 8002d0a:	6845      	ldr	r5, [r0, #4]
 8002d0c:	ea25 050c 	bic.w	r5, r5, ip
 8002d10:	6045      	str	r5, [r0, #4]
 8002d12:	68c5      	ldr	r5, [r0, #12]
 8002d14:	ea25 0404 	bic.w	r4, r5, r4
 8002d18:	60c4      	str	r4, [r0, #12]
 8002d1a:	3301      	adds	r3, #1
 8002d1c:	e79e      	b.n	8002c5c <HAL_GPIO_DeInit+0x14>
 8002d1e:	2500      	movs	r5, #0
 8002d20:	e7c0      	b.n	8002ca4 <HAL_GPIO_DeInit+0x5c>
 8002d22:	2501      	movs	r5, #1
 8002d24:	e7be      	b.n	8002ca4 <HAL_GPIO_DeInit+0x5c>
 8002d26:	bf00      	nop
 8002d28:	58000800 	.word	0x58000800
 8002d2c:	48000400 	.word	0x48000400

08002d30 <HAL_GPIO_WritePin>:
 8002d30:	b10a      	cbz	r2, 8002d36 <HAL_GPIO_WritePin+0x6>
 8002d32:	6181      	str	r1, [r0, #24]
 8002d34:	4770      	bx	lr
 8002d36:	6281      	str	r1, [r0, #40]	; 0x28
 8002d38:	4770      	bx	lr
	...

08002d3c <HAL_PWR_EnableBkUpAccess>:
 8002d3c:	4a02      	ldr	r2, [pc, #8]	; (8002d48 <HAL_PWR_EnableBkUpAccess+0xc>)
 8002d3e:	6813      	ldr	r3, [r2, #0]
 8002d40:	f443 7380 	orr.w	r3, r3, #256	; 0x100
 8002d44:	6013      	str	r3, [r2, #0]
 8002d46:	4770      	bx	lr
 8002d48:	58000400 	.word	0x58000400

08002d4c <HAL_PWR_EnterSLEEPMode>:
 8002d4c:	4b0d      	ldr	r3, [pc, #52]	; (8002d84 <HAL_PWR_EnterSLEEPMode+0x38>)
 8002d4e:	b510      	push	{r4, lr}
 8002d50:	695b      	ldr	r3, [r3, #20]
 8002d52:	460c      	mov	r4, r1
 8002d54:	b928      	cbnz	r0, 8002d62 <HAL_PWR_EnterSLEEPMode+0x16>
 8002d56:	059a      	lsls	r2, r3, #22
 8002d58:	d507      	bpl.n	8002d6a <HAL_PWR_EnterSLEEPMode+0x1e>
 8002d5a:	f000 f827 	bl	8002dac <HAL_PWREx_DisableLowPowerRunMode>
 8002d5e:	b120      	cbz	r0, 8002d6a <HAL_PWR_EnterSLEEPMode+0x1e>
 8002d60:	bd10      	pop	{r4, pc}
 8002d62:	059b      	lsls	r3, r3, #22
 8002d64:	d401      	bmi.n	8002d6a <HAL_PWR_EnterSLEEPMode+0x1e>
 8002d66:	f000 f819 	bl	8002d9c <HAL_PWREx_EnableLowPowerRunMode>
 8002d6a:	4a07      	ldr	r2, [pc, #28]	; (8002d88 <HAL_PWR_EnterSLEEPMode+0x3c>)
 8002d6c:	6913      	ldr	r3, [r2, #16]
 8002d6e:	2c01      	cmp	r4, #1
 8002d70:	f023 0304 	bic.w	r3, r3, #4
 8002d74:	6113      	str	r3, [r2, #16]
 8002d76:	d101      	bne.n	8002d7c <HAL_PWR_EnterSLEEPMode+0x30>
 8002d78:	bf30      	wfi
 8002d7a:	e7f1      	b.n	8002d60 <HAL_PWR_EnterSLEEPMode+0x14>
 8002d7c:	bf40      	sev
 8002d7e:	bf20      	wfe
 8002d80:	bf20      	wfe
 8002d82:	e7ed      	b.n	8002d60 <HAL_PWR_EnterSLEEPMode+0x14>
 8002d84:	58000400 	.word	0x58000400
 8002d88:	e000ed00 	.word	0xe000ed00

08002d8c <HAL_PWREx_GetVoltageRange>:
 8002d8c:	4b02      	ldr	r3, [pc, #8]	; (8002d98 <HAL_PWREx_GetVoltageRange+0xc>)
 8002d8e:	6818      	ldr	r0, [r3, #0]
 8002d90:	f400 60c0 	and.w	r0, r0, #1536	; 0x600
 8002d94:	4770      	bx	lr
 8002d96:	bf00      	nop
 8002d98:	58000400 	.word	0x58000400

08002d9c <HAL_PWREx_EnableLowPowerRunMode>:
 8002d9c:	4a02      	ldr	r2, [pc, #8]	; (8002da8 <HAL_PWREx_EnableLowPowerRunMode+0xc>)
 8002d9e:	6813      	ldr	r3, [r2, #0]
 8002da0:	f443 4380 	orr.w	r3, r3, #16384	; 0x4000
 8002da4:	6013      	str	r3, [r2, #0]
 8002da6:	4770      	bx	lr
 8002da8:	58000400 	.word	0x58000400

08002dac <HAL_PWREx_DisableLowPowerRunMode>:
 8002dac:	4a0c      	ldr	r2, [pc, #48]	; (8002de0 <HAL_PWREx_DisableLowPowerRunMode+0x34>)
 8002dae:	6813      	ldr	r3, [r2, #0]
 8002db0:	f423 4380 	bic.w	r3, r3, #16384	; 0x4000
 8002db4:	6013      	str	r3, [r2, #0]
 8002db6:	4b0b      	ldr	r3, [pc, #44]	; (8002de4 <HAL_PWREx_DisableLowPowerRunMode+0x38>)
 8002db8:	681b      	ldr	r3, [r3, #0]
 8002dba:	2132      	movs	r1, #50	; 0x32
 8002dbc:	434b      	muls	r3, r1
 8002dbe:	490a      	ldr	r1, [pc, #40]	; (8002de8 <HAL_PWREx_DisableLowPowerRunMode+0x3c>)
 8002dc0:	fbb3 f3f1 	udiv	r3, r3, r1
 8002dc4:	6951      	ldr	r1, [r2, #20]
 8002dc6:	0589      	lsls	r1, r1, #22
 8002dc8:	d500      	bpl.n	8002dcc <HAL_PWREx_DisableLowPowerRunMode+0x20>
 8002dca:	b933      	cbnz	r3, 8002dda <HAL_PWREx_DisableLowPowerRunMode+0x2e>
 8002dcc:	6953      	ldr	r3, [r2, #20]
 8002dce:	f413 7f00 	tst.w	r3, #512	; 0x200
 8002dd2:	bf14      	ite	ne
 8002dd4:	2003      	movne	r0, #3
 8002dd6:	2000      	moveq	r0, #0
 8002dd8:	4770      	bx	lr
 8002dda:	3b01      	subs	r3, #1
 8002ddc:	e7f2      	b.n	8002dc4 <HAL_PWREx_DisableLowPowerRunMode+0x18>
 8002dde:	bf00      	nop
 8002de0:	58000400 	.word	0x58000400
 8002de4:	20000000 	.word	0x20000000
 8002de8:	000f4240 	.word	0x000f4240

08002dec <HAL_PWREx_EnterSTOP2Mode>:
 8002dec:	4a0b      	ldr	r2, [pc, #44]	; (8002e1c <HAL_PWREx_EnterSTOP2Mode+0x30>)
 8002dee:	6813      	ldr	r3, [r2, #0]
 8002df0:	f023 0307 	bic.w	r3, r3, #7
 8002df4:	f043 0302 	orr.w	r3, r3, #2
 8002df8:	6013      	str	r3, [r2, #0]
 8002dfa:	4b09      	ldr	r3, [pc, #36]	; (8002e20 <HAL_PWREx_EnterSTOP2Mode+0x34>)
 8002dfc:	691a      	ldr	r2, [r3, #16]
 8002dfe:	2801      	cmp	r0, #1
 8002e00:	f042 0204 	orr.w	r2, r2, #4
 8002e04:	611a      	str	r2, [r3, #16]
 8002e06:	d105      	bne.n	8002e14 <HAL_PWREx_EnterSTOP2Mode+0x28>
 8002e08:	bf30      	wfi
 8002e0a:	691a      	ldr	r2, [r3, #16]
 8002e0c:	f022 0204 	bic.w	r2, r2, #4
 8002e10:	611a      	str	r2, [r3, #16]
 8002e12:	4770      	bx	lr
 8002e14:	bf40      	sev
 8002e16:	bf20      	wfe
 8002e18:	bf20      	wfe
 8002e1a:	e7f6      	b.n	8002e0a <HAL_PWREx_EnterSTOP2Mode+0x1e>
 8002e1c:	58000400 	.word	0x58000400
 8002e20:	e000ed00 	.word	0xe000ed00

08002e24 <LL_RCC_HSE_IsReady>:
 8002e24:	f04f 43b0 	mov.w	r3, #1476395008	; 0x58000000
 8002e28:	6818      	ldr	r0, [r3, #0]
 8002e2a:	f3c0 4040 	ubfx	r0, r0, #17, #1
 8002e2e:	4770      	bx	lr

08002e30 <LL_RCC_HSI_IsReady>:
 8002e30:	f04f 43b0 	mov.w	r3, #1476395008	; 0x58000000
 8002e34:	6818      	ldr	r0, [r3, #0]
 8002e36:	f3c0 2080 	ubfx	r0, r0, #10, #1
 8002e3a:	4770      	bx	lr

08002e3c <LL_RCC_MSI_IsReady>:
 8002e3c:	f04f 43b0 	mov.w	r3, #1476395008	; 0x58000000
 8002e40:	6818      	ldr	r0, [r3, #0]
 8002e42:	f3c0 0040 	ubfx	r0, r0, #1, #1
 8002e46:	4770      	bx	lr

08002e48 <LL_RCC_MSI_SetCalibTrimming>:
 8002e48:	f04f 42b0 	mov.w	r2, #1476395008	; 0x58000000
 8002e4c:	6853      	ldr	r3, [r2, #4]
 8002e4e:	f423 437f 	bic.w	r3, r3, #65280	; 0xff00
 8002e52:	ea43 2300 	orr.w	r3, r3, r0, lsl #8
 8002e56:	6053      	str	r3, [r2, #4]
 8002e58:	4770      	bx	lr

08002e5a <LL_RCC_PLL_IsReady>:
 8002e5a:	f04f 43b0 	mov.w	r3, #1476395008	; 0x58000000
 8002e5e:	6818      	ldr	r0, [r3, #0]
 8002e60:	f3c0 6040 	ubfx	r0, r0, #25, #1
 8002e64:	4770      	bx	lr
	...

08002e68 <RCC_SetFlashLatencyFromMSIRange>:
 8002e68:	b57f      	push	{r0, r1, r2, r3, r4, r5, r6, lr}
 8002e6a:	f04f 43b0 	mov.w	r3, #1476395008	; 0x58000000
 8002e6e:	4a2c      	ldr	r2, [pc, #176]	; (8002f20 <RCC_SetFlashLatencyFromMSIRange+0xb8>)
 8002e70:	f8d3 3108 	ldr.w	r3, [r3, #264]	; 0x108
 8002e74:	f3c0 1003 	ubfx	r0, r0, #4, #4
 8002e78:	f003 030f 	and.w	r3, r3, #15
 8002e7c:	f852 4020 	ldr.w	r4, [r2, r0, lsl #2]
 8002e80:	4a28      	ldr	r2, [pc, #160]	; (8002f24 <RCC_SetFlashLatencyFromMSIRange+0xbc>)
 8002e82:	f852 3023 	ldr.w	r3, [r2, r3, lsl #2]
 8002e86:	fbb4 f4f3 	udiv	r4, r4, r3
 8002e8a:	f7ff ff7f 	bl	8002d8c <HAL_PWREx_GetVoltageRange>
 8002e8e:	4b26      	ldr	r3, [pc, #152]	; (8002f28 <RCC_SetFlashLatencyFromMSIRange+0xc0>)
 8002e90:	4605      	mov	r5, r0
 8002e92:	e893 0007 	ldmia.w	r3, {r0, r1, r2}
 8002e96:	f5b5 7f00 	cmp.w	r5, #512	; 0x200
 8002e9a:	ab04      	add	r3, sp, #16
 8002e9c:	e903 0007 	stmdb	r3, {r0, r1, r2}
 8002ea0:	d010      	beq.n	8002ec4 <RCC_SetFlashLatencyFromMSIRange+0x5c>
 8002ea2:	4b22      	ldr	r3, [pc, #136]	; (8002f2c <RCC_SetFlashLatencyFromMSIRange+0xc4>)
 8002ea4:	429c      	cmp	r4, r3
 8002ea6:	d318      	bcc.n	8002eda <RCC_SetFlashLatencyFromMSIRange+0x72>
 8002ea8:	f503 03b7 	add.w	r3, r3, #5996544	; 0x5b8000
 8002eac:	f603 537f 	addw	r3, r3, #3455	; 0xd7f
 8002eb0:	429c      	cmp	r4, r3
 8002eb2:	d929      	bls.n	8002f08 <RCC_SetFlashLatencyFromMSIRange+0xa0>
 8002eb4:	f503 1374 	add.w	r3, r3, #3997696	; 0x3d0000
 8002eb8:	f503 6310 	add.w	r3, r3, #2304	; 0x900
 8002ebc:	429c      	cmp	r4, r3
 8002ebe:	d825      	bhi.n	8002f0c <RCC_SetFlashLatencyFromMSIRange+0xa4>
 8002ec0:	2302      	movs	r3, #2
 8002ec2:	e00b      	b.n	8002edc <RCC_SetFlashLatencyFromMSIRange+0x74>
 8002ec4:	4b1a      	ldr	r3, [pc, #104]	; (8002f30 <RCC_SetFlashLatencyFromMSIRange+0xc8>)
 8002ec6:	429c      	cmp	r4, r3
 8002ec8:	d907      	bls.n	8002eda <RCC_SetFlashLatencyFromMSIRange+0x72>
 8002eca:	4b1a      	ldr	r3, [pc, #104]	; (8002f34 <RCC_SetFlashLatencyFromMSIRange+0xcc>)
 8002ecc:	429c      	cmp	r4, r3
 8002ece:	d91b      	bls.n	8002f08 <RCC_SetFlashLatencyFromMSIRange+0xa0>
 8002ed0:	f503 0337 	add.w	r3, r3, #11993088	; 0xb70000
 8002ed4:	f503 53d8 	add.w	r3, r3, #6912	; 0x1b00
 8002ed8:	e7f0      	b.n	8002ebc <RCC_SetFlashLatencyFromMSIRange+0x54>
 8002eda:	2300      	movs	r3, #0
 8002edc:	aa04      	add	r2, sp, #16
 8002ede:	eb02 0383 	add.w	r3, r2, r3, lsl #2
 8002ee2:	f853 4c0c 	ldr.w	r4, [r3, #-12]
 8002ee6:	4d14      	ldr	r5, [pc, #80]	; (8002f38 <RCC_SetFlashLatencyFromMSIRange+0xd0>)
 8002ee8:	682b      	ldr	r3, [r5, #0]
 8002eea:	f023 0307 	bic.w	r3, r3, #7
 8002eee:	4323      	orrs	r3, r4
 8002ef0:	602b      	str	r3, [r5, #0]
 8002ef2:	f7fe fb2d 	bl	8001550 <HAL_GetTick>
 8002ef6:	4606      	mov	r6, r0
 8002ef8:	682b      	ldr	r3, [r5, #0]
 8002efa:	f003 0307 	and.w	r3, r3, #7
 8002efe:	429c      	cmp	r4, r3
 8002f00:	d106      	bne.n	8002f10 <RCC_SetFlashLatencyFromMSIRange+0xa8>
 8002f02:	2000      	movs	r0, #0
 8002f04:	b004      	add	sp, #16
 8002f06:	bd70      	pop	{r4, r5, r6, pc}
 8002f08:	2301      	movs	r3, #1
 8002f0a:	e7e7      	b.n	8002edc <RCC_SetFlashLatencyFromMSIRange+0x74>
 8002f0c:	2400      	movs	r4, #0
 8002f0e:	e7ea      	b.n	8002ee6 <RCC_SetFlashLatencyFromMSIRange+0x7e>
 8002f10:	f7fe fb1e 	bl	8001550 <HAL_GetTick>
 8002f14:	1b80      	subs	r0, r0, r6
 8002f16:	2802      	cmp	r0, #2
 8002f18:	d9ee      	bls.n	8002ef8 <RCC_SetFlashLatencyFromMSIRange+0x90>
 8002f1a:	2003      	movs	r0, #3
 8002f1c:	e7f2      	b.n	8002f04 <RCC_SetFlashLatencyFromMSIRange+0x9c>
 8002f1e:	bf00      	nop
 8002f20:	0800e9dc 	.word	0x0800e9dc
 8002f24:	0800e97c 	.word	0x0800e97c
 8002f28:	0800e904 	.word	0x0800e904
 8002f2c:	006acfc0 	.word	0x006acfc0
 8002f30:	0121eabf 	.word	0x0121eabf
 8002f34:	0234933f 	.word	0x0234933f
 8002f38:	58004000 	.word	0x58004000

08002f3c <HAL_RCC_GetSysClockFreq>:
 8002f3c:	f04f 43b0 	mov.w	r3, #1476395008	; 0x58000000
 8002f40:	b510      	push	{r4, lr}
 8002f42:	689a      	ldr	r2, [r3, #8]
 8002f44:	68d9      	ldr	r1, [r3, #12]
 8002f46:	f012 020c 	ands.w	r2, r2, #12
 8002f4a:	d005      	beq.n	8002f58 <HAL_RCC_GetSysClockFreq+0x1c>
 8002f4c:	2a0c      	cmp	r2, #12
 8002f4e:	d14a      	bne.n	8002fe6 <HAL_RCC_GetSysClockFreq+0xaa>
 8002f50:	f001 0303 	and.w	r3, r1, #3
 8002f54:	2b01      	cmp	r3, #1
 8002f56:	d150      	bne.n	8002ffa <HAL_RCC_GetSysClockFreq+0xbe>
 8002f58:	f04f 41b0 	mov.w	r1, #1476395008	; 0x58000000
 8002f5c:	482b      	ldr	r0, [pc, #172]	; (800300c <HAL_RCC_GetSysClockFreq+0xd0>)
 8002f5e:	680b      	ldr	r3, [r1, #0]
 8002f60:	f013 0308 	ands.w	r3, r3, #8
 8002f64:	d006      	beq.n	8002f74 <HAL_RCC_GetSysClockFreq+0x38>
 8002f66:	680b      	ldr	r3, [r1, #0]
 8002f68:	f013 0308 	ands.w	r3, r3, #8
 8002f6c:	d137      	bne.n	8002fde <HAL_RCC_GetSysClockFreq+0xa2>
 8002f6e:	f8d1 1094 	ldr.w	r1, [r1, #148]	; 0x94
 8002f72:	e007      	b.n	8002f84 <HAL_RCC_GetSysClockFreq+0x48>
 8002f74:	680c      	ldr	r4, [r1, #0]
 8002f76:	0724      	lsls	r4, r4, #28
 8002f78:	bf56      	itet	pl
 8002f7a:	f8d1 3094 	ldrpl.w	r3, [r1, #148]	; 0x94
 8002f7e:	6809      	ldrmi	r1, [r1, #0]
 8002f80:	f3c3 2303 	ubfxpl	r3, r3, #8, #4
 8002f84:	f850 3023 	ldr.w	r3, [r0, r3, lsl #2]
 8002f88:	2a00      	cmp	r2, #0
 8002f8a:	bf0c      	ite	eq
 8002f8c:	4618      	moveq	r0, r3
 8002f8e:	2000      	movne	r0, #0
 8002f90:	f04f 41b0 	mov.w	r1, #1476395008	; 0x58000000
 8002f94:	688a      	ldr	r2, [r1, #8]
 8002f96:	f002 020c 	and.w	r2, r2, #12
 8002f9a:	2a0c      	cmp	r2, #12
 8002f9c:	d11e      	bne.n	8002fdc <HAL_RCC_GetSysClockFreq+0xa0>
 8002f9e:	68ca      	ldr	r2, [r1, #12]
 8002fa0:	f002 0203 	and.w	r2, r2, #3
 8002fa4:	2a02      	cmp	r2, #2
 8002fa6:	d02e      	beq.n	8003006 <HAL_RCC_GetSysClockFreq+0xca>
 8002fa8:	2a03      	cmp	r2, #3
 8002faa:	d106      	bne.n	8002fba <HAL_RCC_GetSysClockFreq+0x7e>
 8002fac:	680b      	ldr	r3, [r1, #0]
 8002fae:	4a18      	ldr	r2, [pc, #96]	; (8003010 <HAL_RCC_GetSysClockFreq+0xd4>)
 8002fb0:	f413 1f80 	tst.w	r3, #1048576	; 0x100000
 8002fb4:	4b17      	ldr	r3, [pc, #92]	; (8003014 <HAL_RCC_GetSysClockFreq+0xd8>)
 8002fb6:	bf18      	it	ne
 8002fb8:	4613      	movne	r3, r2
 8002fba:	f04f 42b0 	mov.w	r2, #1476395008	; 0x58000000
 8002fbe:	68d0      	ldr	r0, [r2, #12]
 8002fc0:	68d1      	ldr	r1, [r2, #12]
 8002fc2:	68d2      	ldr	r2, [r2, #12]
 8002fc4:	f3c0 2006 	ubfx	r0, r0, #8, #7
 8002fc8:	4358      	muls	r0, r3
 8002fca:	f3c1 1302 	ubfx	r3, r1, #4, #3
 8002fce:	3301      	adds	r3, #1
 8002fd0:	fbb0 f0f3 	udiv	r0, r0, r3
 8002fd4:	0f53      	lsrs	r3, r2, #29
 8002fd6:	3301      	adds	r3, #1
 8002fd8:	fbb0 f0f3 	udiv	r0, r0, r3
 8002fdc:	bd10      	pop	{r4, pc}
 8002fde:	680b      	ldr	r3, [r1, #0]
 8002fe0:	f3c3 1303 	ubfx	r3, r3, #4, #4
 8002fe4:	e7ce      	b.n	8002f84 <HAL_RCC_GetSysClockFreq+0x48>
 8002fe6:	2a04      	cmp	r2, #4
 8002fe8:	d00a      	beq.n	8003000 <HAL_RCC_GetSysClockFreq+0xc4>
 8002fea:	2a08      	cmp	r2, #8
 8002fec:	d105      	bne.n	8002ffa <HAL_RCC_GetSysClockFreq+0xbe>
 8002fee:	681b      	ldr	r3, [r3, #0]
 8002ff0:	f413 1380 	ands.w	r3, r3, #1048576	; 0x100000
 8002ff4:	d104      	bne.n	8003000 <HAL_RCC_GetSysClockFreq+0xc4>
 8002ff6:	4807      	ldr	r0, [pc, #28]	; (8003014 <HAL_RCC_GetSysClockFreq+0xd8>)
 8002ff8:	e7ca      	b.n	8002f90 <HAL_RCC_GetSysClockFreq+0x54>
 8002ffa:	2300      	movs	r3, #0
 8002ffc:	4618      	mov	r0, r3
 8002ffe:	e7c7      	b.n	8002f90 <HAL_RCC_GetSysClockFreq+0x54>
 8003000:	4803      	ldr	r0, [pc, #12]	; (8003010 <HAL_RCC_GetSysClockFreq+0xd4>)
 8003002:	2300      	movs	r3, #0
 8003004:	e7c4      	b.n	8002f90 <HAL_RCC_GetSysClockFreq+0x54>
 8003006:	4b02      	ldr	r3, [pc, #8]	; (8003010 <HAL_RCC_GetSysClockFreq+0xd4>)
 8003008:	e7d7      	b.n	8002fba <HAL_RCC_GetSysClockFreq+0x7e>
 800300a:	bf00      	nop
 800300c:	0800e9dc 	.word	0x0800e9dc
 8003010:	00f42400 	.word	0x00f42400
 8003014:	01e84800 	.word	0x01e84800

08003018 <HAL_RCC_GetHCLKFreq>:
 8003018:	b508      	push	{r3, lr}
 800301a:	f7ff ff8f 	bl	8002f3c <HAL_RCC_GetSysClockFreq>
 800301e:	f04f 43b0 	mov.w	r3, #1476395008	; 0x58000000
 8003022:	4a04      	ldr	r2, [pc, #16]	; (8003034 <HAL_RCC_GetHCLKFreq+0x1c>)
 8003024:	689b      	ldr	r3, [r3, #8]
 8003026:	f3c3 1303 	ubfx	r3, r3, #4, #4
 800302a:	f852 3023 	ldr.w	r3, [r2, r3, lsl #2]
 800302e:	fbb0 f0f3 	udiv	r0, r0, r3
 8003032:	bd08      	pop	{r3, pc}
 8003034:	0800e97c 	.word	0x0800e97c

08003038 <HAL_RCC_OscConfig>:
 8003038:	e92d 41f0 	stmdb	sp!, {r4, r5, r6, r7, r8, lr}
 800303c:	4604      	mov	r4, r0
 800303e:	2800      	cmp	r0, #0
 8003040:	d055      	beq.n	80030ee <HAL_RCC_OscConfig+0xb6>
 8003042:	f04f 43b0 	mov.w	r3, #1476395008	; 0x58000000
 8003046:	689d      	ldr	r5, [r3, #8]
 8003048:	68de      	ldr	r6, [r3, #12]
 800304a:	6803      	ldr	r3, [r0, #0]
 800304c:	0699      	lsls	r1, r3, #26
 800304e:	f005 050c 	and.w	r5, r5, #12
 8003052:	f006 0603 	and.w	r6, r6, #3
 8003056:	d56b      	bpl.n	8003130 <HAL_RCC_OscConfig+0xf8>
 8003058:	b11d      	cbz	r5, 8003062 <HAL_RCC_OscConfig+0x2a>
 800305a:	2d0c      	cmp	r5, #12
 800305c:	d149      	bne.n	80030f2 <HAL_RCC_OscConfig+0xba>
 800305e:	2e01      	cmp	r6, #1
 8003060:	d147      	bne.n	80030f2 <HAL_RCC_OscConfig+0xba>
 8003062:	f7ff feeb 	bl	8002e3c <LL_RCC_MSI_IsReady>
 8003066:	b110      	cbz	r0, 800306e <HAL_RCC_OscConfig+0x36>
 8003068:	6a23      	ldr	r3, [r4, #32]
 800306a:	2b00      	cmp	r3, #0
 800306c:	d03f      	beq.n	80030ee <HAL_RCC_OscConfig+0xb6>
 800306e:	f04f 43b0 	mov.w	r3, #1476395008	; 0x58000000
 8003072:	6aa0      	ldr	r0, [r4, #40]	; 0x28
 8003074:	681a      	ldr	r2, [r3, #0]
 8003076:	0712      	lsls	r2, r2, #28
 8003078:	bf56      	itet	pl
 800307a:	f8d3 3094 	ldrpl.w	r3, [r3, #148]	; 0x94
 800307e:	681b      	ldrmi	r3, [r3, #0]
 8003080:	091b      	lsrpl	r3, r3, #4
 8003082:	f003 03f0 	and.w	r3, r3, #240	; 0xf0
 8003086:	4298      	cmp	r0, r3
 8003088:	d91e      	bls.n	80030c8 <HAL_RCC_OscConfig+0x90>
 800308a:	f7ff feed 	bl	8002e68 <RCC_SetFlashLatencyFromMSIRange>
 800308e:	2800      	cmp	r0, #0
 8003090:	d12d      	bne.n	80030ee <HAL_RCC_OscConfig+0xb6>
 8003092:	f04f 42b0 	mov.w	r2, #1476395008	; 0x58000000
 8003096:	6813      	ldr	r3, [r2, #0]
 8003098:	f043 0308 	orr.w	r3, r3, #8
 800309c:	6013      	str	r3, [r2, #0]
 800309e:	6813      	ldr	r3, [r2, #0]
 80030a0:	6aa1      	ldr	r1, [r4, #40]	; 0x28
 80030a2:	f023 03f0 	bic.w	r3, r3, #240	; 0xf0
 80030a6:	430b      	orrs	r3, r1
 80030a8:	6013      	str	r3, [r2, #0]
 80030aa:	6a60      	ldr	r0, [r4, #36]	; 0x24
 80030ac:	f7ff fecc 	bl	8002e48 <LL_RCC_MSI_SetCalibTrimming>
 80030b0:	f7ff ffb2 	bl	8003018 <HAL_RCC_GetHCLKFreq>
 80030b4:	4bac      	ldr	r3, [pc, #688]	; (8003368 <HAL_RCC_OscConfig+0x330>)
 80030b6:	6018      	str	r0, [r3, #0]
 80030b8:	4bac      	ldr	r3, [pc, #688]	; (800336c <HAL_RCC_OscConfig+0x334>)
 80030ba:	6818      	ldr	r0, [r3, #0]
 80030bc:	f7fe fa46 	bl	800154c <HAL_InitTick>
 80030c0:	2800      	cmp	r0, #0
 80030c2:	d035      	beq.n	8003130 <HAL_RCC_OscConfig+0xf8>
 80030c4:	e8bd 81f0 	ldmia.w	sp!, {r4, r5, r6, r7, r8, pc}
 80030c8:	f04f 42b0 	mov.w	r2, #1476395008	; 0x58000000
 80030cc:	6813      	ldr	r3, [r2, #0]
 80030ce:	f043 0308 	orr.w	r3, r3, #8
 80030d2:	6013      	str	r3, [r2, #0]
 80030d4:	6813      	ldr	r3, [r2, #0]
 80030d6:	f023 03f0 	bic.w	r3, r3, #240	; 0xf0
 80030da:	4303      	orrs	r3, r0
 80030dc:	6013      	str	r3, [r2, #0]
 80030de:	6a60      	ldr	r0, [r4, #36]	; 0x24
 80030e0:	f7ff feb2 	bl	8002e48 <LL_RCC_MSI_SetCalibTrimming>
 80030e4:	6aa0      	ldr	r0, [r4, #40]	; 0x28
 80030e6:	f7ff febf 	bl	8002e68 <RCC_SetFlashLatencyFromMSIRange>
 80030ea:	2800      	cmp	r0, #0
 80030ec:	d0e0      	beq.n	80030b0 <HAL_RCC_OscConfig+0x78>
 80030ee:	2001      	movs	r0, #1
 80030f0:	e7e8      	b.n	80030c4 <HAL_RCC_OscConfig+0x8c>
 80030f2:	6a22      	ldr	r2, [r4, #32]
 80030f4:	f04f 43b0 	mov.w	r3, #1476395008	; 0x58000000
 80030f8:	2a00      	cmp	r2, #0
 80030fa:	d054      	beq.n	80031a6 <HAL_RCC_OscConfig+0x16e>
 80030fc:	681a      	ldr	r2, [r3, #0]
 80030fe:	f042 0201 	orr.w	r2, r2, #1
 8003102:	601a      	str	r2, [r3, #0]
 8003104:	f7fe fa24 	bl	8001550 <HAL_GetTick>
 8003108:	4607      	mov	r7, r0
 800310a:	f7ff fe97 	bl	8002e3c <LL_RCC_MSI_IsReady>
 800310e:	2800      	cmp	r0, #0
 8003110:	d042      	beq.n	8003198 <HAL_RCC_OscConfig+0x160>
 8003112:	f04f 42b0 	mov.w	r2, #1476395008	; 0x58000000
 8003116:	6813      	ldr	r3, [r2, #0]
 8003118:	f043 0308 	orr.w	r3, r3, #8
 800311c:	6013      	str	r3, [r2, #0]
 800311e:	6813      	ldr	r3, [r2, #0]
 8003120:	6aa1      	ldr	r1, [r4, #40]	; 0x28
 8003122:	f023 03f0 	bic.w	r3, r3, #240	; 0xf0
 8003126:	430b      	orrs	r3, r1
 8003128:	6013      	str	r3, [r2, #0]
 800312a:	6a60      	ldr	r0, [r4, #36]	; 0x24
 800312c:	f7ff fe8c 	bl	8002e48 <LL_RCC_MSI_SetCalibTrimming>
 8003130:	6823      	ldr	r3, [r4, #0]
 8003132:	07db      	lsls	r3, r3, #31
 8003134:	d448      	bmi.n	80031c8 <HAL_RCC_OscConfig+0x190>
 8003136:	6823      	ldr	r3, [r4, #0]
 8003138:	079f      	lsls	r7, r3, #30
 800313a:	f100 8090 	bmi.w	800325e <HAL_RCC_OscConfig+0x226>
 800313e:	6823      	ldr	r3, [r4, #0]
 8003140:	071e      	lsls	r6, r3, #28
 8003142:	f140 80fc 	bpl.w	800333e <HAL_RCC_OscConfig+0x306>
 8003146:	69a3      	ldr	r3, [r4, #24]
 8003148:	f04f 46b0 	mov.w	r6, #1476395008	; 0x58000000
 800314c:	2b00      	cmp	r3, #0
 800314e:	f000 80e3 	beq.w	8003318 <HAL_RCC_OscConfig+0x2e0>
 8003152:	f8d6 3094 	ldr.w	r3, [r6, #148]	; 0x94
 8003156:	69e1      	ldr	r1, [r4, #28]
 8003158:	f003 0210 	and.w	r2, r3, #16
 800315c:	4291      	cmp	r1, r2
 800315e:	f000 80c6 	beq.w	80032ee <HAL_RCC_OscConfig+0x2b6>
 8003162:	f003 0203 	and.w	r2, r3, #3
 8003166:	2a02      	cmp	r2, #2
 8003168:	d0c1      	beq.n	80030ee <HAL_RCC_OscConfig+0xb6>
 800316a:	07d8      	lsls	r0, r3, #31
 800316c:	f140 80b5 	bpl.w	80032da <HAL_RCC_OscConfig+0x2a2>
 8003170:	f8d6 3094 	ldr.w	r3, [r6, #148]	; 0x94
 8003174:	f023 0301 	bic.w	r3, r3, #1
 8003178:	f8c6 3094 	str.w	r3, [r6, #148]	; 0x94
 800317c:	f7fe f9e8 	bl	8001550 <HAL_GetTick>
 8003180:	4607      	mov	r7, r0
 8003182:	f8d6 3094 	ldr.w	r3, [r6, #148]	; 0x94
 8003186:	0799      	lsls	r1, r3, #30
 8003188:	f140 80a7 	bpl.w	80032da <HAL_RCC_OscConfig+0x2a2>
 800318c:	f7fe f9e0 	bl	8001550 <HAL_GetTick>
 8003190:	1bc3      	subs	r3, r0, r7
 8003192:	2b11      	cmp	r3, #17
 8003194:	d9f5      	bls.n	8003182 <HAL_RCC_OscConfig+0x14a>
 8003196:	e004      	b.n	80031a2 <HAL_RCC_OscConfig+0x16a>
 8003198:	f7fe f9da 	bl	8001550 <HAL_GetTick>
 800319c:	1bc0      	subs	r0, r0, r7
 800319e:	2802      	cmp	r0, #2
 80031a0:	d9b3      	bls.n	800310a <HAL_RCC_OscConfig+0xd2>
 80031a2:	2003      	movs	r0, #3
 80031a4:	e78e      	b.n	80030c4 <HAL_RCC_OscConfig+0x8c>
 80031a6:	681a      	ldr	r2, [r3, #0]
 80031a8:	f022 0201 	bic.w	r2, r2, #1
 80031ac:	601a      	str	r2, [r3, #0]
 80031ae:	f7fe f9cf 	bl	8001550 <HAL_GetTick>
 80031b2:	4607      	mov	r7, r0
 80031b4:	f7ff fe42 	bl	8002e3c <LL_RCC_MSI_IsReady>
 80031b8:	2800      	cmp	r0, #0
 80031ba:	d0b9      	beq.n	8003130 <HAL_RCC_OscConfig+0xf8>
 80031bc:	f7fe f9c8 	bl	8001550 <HAL_GetTick>
 80031c0:	1bc0      	subs	r0, r0, r7
 80031c2:	2802      	cmp	r0, #2
 80031c4:	d9f6      	bls.n	80031b4 <HAL_RCC_OscConfig+0x17c>
 80031c6:	e7ec      	b.n	80031a2 <HAL_RCC_OscConfig+0x16a>
 80031c8:	2d08      	cmp	r5, #8
 80031ca:	d003      	beq.n	80031d4 <HAL_RCC_OscConfig+0x19c>
 80031cc:	2d0c      	cmp	r5, #12
 80031ce:	d109      	bne.n	80031e4 <HAL_RCC_OscConfig+0x1ac>
 80031d0:	2e03      	cmp	r6, #3
 80031d2:	d107      	bne.n	80031e4 <HAL_RCC_OscConfig+0x1ac>
 80031d4:	f7ff fe26 	bl	8002e24 <LL_RCC_HSE_IsReady>
 80031d8:	2800      	cmp	r0, #0
 80031da:	d0ac      	beq.n	8003136 <HAL_RCC_OscConfig+0xfe>
 80031dc:	6863      	ldr	r3, [r4, #4]
 80031de:	2b00      	cmp	r3, #0
 80031e0:	d1a9      	bne.n	8003136 <HAL_RCC_OscConfig+0xfe>
 80031e2:	e784      	b.n	80030ee <HAL_RCC_OscConfig+0xb6>
 80031e4:	f04f 43b0 	mov.w	r3, #1476395008	; 0x58000000
 80031e8:	68a1      	ldr	r1, [r4, #8]
 80031ea:	681a      	ldr	r2, [r3, #0]
 80031ec:	f422 1280 	bic.w	r2, r2, #1048576	; 0x100000
 80031f0:	430a      	orrs	r2, r1
 80031f2:	601a      	str	r2, [r3, #0]
 80031f4:	6862      	ldr	r2, [r4, #4]
 80031f6:	f5b2 3f80 	cmp.w	r2, #65536	; 0x10000
 80031fa:	d110      	bne.n	800321e <HAL_RCC_OscConfig+0x1e6>
 80031fc:	681a      	ldr	r2, [r3, #0]
 80031fe:	f442 3280 	orr.w	r2, r2, #65536	; 0x10000
 8003202:	601a      	str	r2, [r3, #0]
 8003204:	f7fe f9a4 	bl	8001550 <HAL_GetTick>
 8003208:	4607      	mov	r7, r0
 800320a:	f7ff fe0b 	bl	8002e24 <LL_RCC_HSE_IsReady>
 800320e:	2800      	cmp	r0, #0
 8003210:	d191      	bne.n	8003136 <HAL_RCC_OscConfig+0xfe>
 8003212:	f7fe f99d 	bl	8001550 <HAL_GetTick>
 8003216:	1bc0      	subs	r0, r0, r7
 8003218:	2864      	cmp	r0, #100	; 0x64
 800321a:	d9f6      	bls.n	800320a <HAL_RCC_OscConfig+0x1d2>
 800321c:	e7c1      	b.n	80031a2 <HAL_RCC_OscConfig+0x16a>
 800321e:	f5b2 1f04 	cmp.w	r2, #2162688	; 0x210000
 8003222:	d104      	bne.n	800322e <HAL_RCC_OscConfig+0x1f6>
 8003224:	681a      	ldr	r2, [r3, #0]
 8003226:	f442 1200 	orr.w	r2, r2, #2097152	; 0x200000
 800322a:	601a      	str	r2, [r3, #0]
 800322c:	e7e6      	b.n	80031fc <HAL_RCC_OscConfig+0x1c4>
 800322e:	6819      	ldr	r1, [r3, #0]
 8003230:	f421 3180 	bic.w	r1, r1, #65536	; 0x10000
 8003234:	6019      	str	r1, [r3, #0]
 8003236:	6819      	ldr	r1, [r3, #0]
 8003238:	f421 1100 	bic.w	r1, r1, #2097152	; 0x200000
 800323c:	6019      	str	r1, [r3, #0]
 800323e:	2a00      	cmp	r2, #0
 8003240:	d1e0      	bne.n	8003204 <HAL_RCC_OscConfig+0x1cc>
 8003242:	f7fe f985 	bl	8001550 <HAL_GetTick>
 8003246:	4607      	mov	r7, r0
 8003248:	f7ff fdec 	bl	8002e24 <LL_RCC_HSE_IsReady>
 800324c:	2800      	cmp	r0, #0
 800324e:	f43f af72 	beq.w	8003136 <HAL_RCC_OscConfig+0xfe>
 8003252:	f7fe f97d 	bl	8001550 <HAL_GetTick>
 8003256:	1bc0      	subs	r0, r0, r7
 8003258:	2864      	cmp	r0, #100	; 0x64
 800325a:	d9f5      	bls.n	8003248 <HAL_RCC_OscConfig+0x210>
 800325c:	e7a1      	b.n	80031a2 <HAL_RCC_OscConfig+0x16a>
 800325e:	2d04      	cmp	r5, #4
 8003260:	d003      	beq.n	800326a <HAL_RCC_OscConfig+0x232>
 8003262:	2d0c      	cmp	r5, #12
 8003264:	d112      	bne.n	800328c <HAL_RCC_OscConfig+0x254>
 8003266:	2e02      	cmp	r6, #2
 8003268:	d110      	bne.n	800328c <HAL_RCC_OscConfig+0x254>
 800326a:	f7ff fde1 	bl	8002e30 <LL_RCC_HSI_IsReady>
 800326e:	b118      	cbz	r0, 8003278 <HAL_RCC_OscConfig+0x240>
 8003270:	6923      	ldr	r3, [r4, #16]
 8003272:	2b00      	cmp	r3, #0
 8003274:	f43f af3b 	beq.w	80030ee <HAL_RCC_OscConfig+0xb6>
 8003278:	f04f 42b0 	mov.w	r2, #1476395008	; 0x58000000
 800327c:	6961      	ldr	r1, [r4, #20]
 800327e:	6853      	ldr	r3, [r2, #4]
 8003280:	f023 43fe 	bic.w	r3, r3, #2130706432	; 0x7f000000
 8003284:	ea43 6301 	orr.w	r3, r3, r1, lsl #24
 8003288:	6053      	str	r3, [r2, #4]
 800328a:	e758      	b.n	800313e <HAL_RCC_OscConfig+0x106>
 800328c:	6922      	ldr	r2, [r4, #16]
 800328e:	f04f 43b0 	mov.w	r3, #1476395008	; 0x58000000
 8003292:	b182      	cbz	r2, 80032b6 <HAL_RCC_OscConfig+0x27e>
 8003294:	681a      	ldr	r2, [r3, #0]
 8003296:	f442 7280 	orr.w	r2, r2, #256	; 0x100
 800329a:	601a      	str	r2, [r3, #0]
 800329c:	f7fe f958 	bl	8001550 <HAL_GetTick>
 80032a0:	4606      	mov	r6, r0
 80032a2:	f7ff fdc5 	bl	8002e30 <LL_RCC_HSI_IsReady>
 80032a6:	2800      	cmp	r0, #0
 80032a8:	d1e6      	bne.n	8003278 <HAL_RCC_OscConfig+0x240>
 80032aa:	f7fe f951 	bl	8001550 <HAL_GetTick>
 80032ae:	1b80      	subs	r0, r0, r6
 80032b0:	2802      	cmp	r0, #2
 80032b2:	d9f6      	bls.n	80032a2 <HAL_RCC_OscConfig+0x26a>
 80032b4:	e775      	b.n	80031a2 <HAL_RCC_OscConfig+0x16a>
 80032b6:	681a      	ldr	r2, [r3, #0]
 80032b8:	f422 7280 	bic.w	r2, r2, #256	; 0x100
 80032bc:	601a      	str	r2, [r3, #0]
 80032be:	f7fe f947 	bl	8001550 <HAL_GetTick>
 80032c2:	4606      	mov	r6, r0
 80032c4:	f7ff fdb4 	bl	8002e30 <LL_RCC_HSI_IsReady>
 80032c8:	2800      	cmp	r0, #0
 80032ca:	f43f af38 	beq.w	800313e <HAL_RCC_OscConfig+0x106>
 80032ce:	f7fe f93f 	bl	8001550 <HAL_GetTick>
 80032d2:	1b80      	subs	r0, r0, r6
 80032d4:	2802      	cmp	r0, #2
 80032d6:	d9f5      	bls.n	80032c4 <HAL_RCC_OscConfig+0x28c>
 80032d8:	e763      	b.n	80031a2 <HAL_RCC_OscConfig+0x16a>
 80032da:	f04f 42b0 	mov.w	r2, #1476395008	; 0x58000000
 80032de:	69e1      	ldr	r1, [r4, #28]
 80032e0:	f8d2 3094 	ldr.w	r3, [r2, #148]	; 0x94
 80032e4:	f023 0310 	bic.w	r3, r3, #16
 80032e8:	430b      	orrs	r3, r1
 80032ea:	f8c2 3094 	str.w	r3, [r2, #148]	; 0x94
 80032ee:	f04f 47b0 	mov.w	r7, #1476395008	; 0x58000000
 80032f2:	f8d7 3094 	ldr.w	r3, [r7, #148]	; 0x94
 80032f6:	f043 0301 	orr.w	r3, r3, #1
 80032fa:	f8c7 3094 	str.w	r3, [r7, #148]	; 0x94
 80032fe:	f7fe f927 	bl	8001550 <HAL_GetTick>
 8003302:	4606      	mov	r6, r0
 8003304:	f8d7 3094 	ldr.w	r3, [r7, #148]	; 0x94
 8003308:	079a      	lsls	r2, r3, #30
 800330a:	d418      	bmi.n	800333e <HAL_RCC_OscConfig+0x306>
 800330c:	f7fe f920 	bl	8001550 <HAL_GetTick>
 8003310:	1b83      	subs	r3, r0, r6
 8003312:	2b11      	cmp	r3, #17
 8003314:	d9f6      	bls.n	8003304 <HAL_RCC_OscConfig+0x2cc>
 8003316:	e744      	b.n	80031a2 <HAL_RCC_OscConfig+0x16a>
 8003318:	f8d6 3094 	ldr.w	r3, [r6, #148]	; 0x94
 800331c:	f023 0301 	bic.w	r3, r3, #1
 8003320:	f8c6 3094 	str.w	r3, [r6, #148]	; 0x94
 8003324:	f7fe f914 	bl	8001550 <HAL_GetTick>
 8003328:	4607      	mov	r7, r0
 800332a:	f8d6 3094 	ldr.w	r3, [r6, #148]	; 0x94
 800332e:	079b      	lsls	r3, r3, #30
 8003330:	d505      	bpl.n	800333e <HAL_RCC_OscConfig+0x306>
 8003332:	f7fe f90d 	bl	8001550 <HAL_GetTick>
 8003336:	1bc3      	subs	r3, r0, r7
 8003338:	2b11      	cmp	r3, #17
 800333a:	d9f6      	bls.n	800332a <HAL_RCC_OscConfig+0x2f2>
 800333c:	e731      	b.n	80031a2 <HAL_RCC_OscConfig+0x16a>
 800333e:	6823      	ldr	r3, [r4, #0]
 8003340:	0758      	lsls	r0, r3, #29
 8003342:	d553      	bpl.n	80033ec <HAL_RCC_OscConfig+0x3b4>
 8003344:	4f0a      	ldr	r7, [pc, #40]	; (8003370 <HAL_RCC_OscConfig+0x338>)
 8003346:	683b      	ldr	r3, [r7, #0]
 8003348:	05d9      	lsls	r1, r3, #23
 800334a:	d413      	bmi.n	8003374 <HAL_RCC_OscConfig+0x33c>
 800334c:	f7ff fcf6 	bl	8002d3c <HAL_PWR_EnableBkUpAccess>
 8003350:	f7fe f8fe 	bl	8001550 <HAL_GetTick>
 8003354:	4606      	mov	r6, r0
 8003356:	683b      	ldr	r3, [r7, #0]
 8003358:	05da      	lsls	r2, r3, #23
 800335a:	d40b      	bmi.n	8003374 <HAL_RCC_OscConfig+0x33c>
 800335c:	f7fe f8f8 	bl	8001550 <HAL_GetTick>
 8003360:	1b83      	subs	r3, r0, r6
 8003362:	2b02      	cmp	r3, #2
 8003364:	d9f7      	bls.n	8003356 <HAL_RCC_OscConfig+0x31e>
 8003366:	e71c      	b.n	80031a2 <HAL_RCC_OscConfig+0x16a>
 8003368:	20000000 	.word	0x20000000
 800336c:	20000004 	.word	0x20000004
 8003370:	58000400 	.word	0x58000400
 8003374:	68e3      	ldr	r3, [r4, #12]
 8003376:	f04f 46b0 	mov.w	r6, #1476395008	; 0x58000000
 800337a:	2b00      	cmp	r3, #0
 800337c:	d058      	beq.n	8003430 <HAL_RCC_OscConfig+0x3f8>
 800337e:	f023 0380 	bic.w	r3, r3, #128	; 0x80
 8003382:	2b05      	cmp	r3, #5
 8003384:	bf02      	ittt	eq
 8003386:	f8d6 3090 	ldreq.w	r3, [r6, #144]	; 0x90
 800338a:	f043 0304 	orreq.w	r3, r3, #4
 800338e:	f8c6 3090 	streq.w	r3, [r6, #144]	; 0x90
 8003392:	f04f 46b0 	mov.w	r6, #1476395008	; 0x58000000
 8003396:	f7fe f8db 	bl	8001550 <HAL_GetTick>
 800339a:	f8d6 3090 	ldr.w	r3, [r6, #144]	; 0x90
 800339e:	f043 0301 	orr.w	r3, r3, #1
 80033a2:	4607      	mov	r7, r0
 80033a4:	f8c6 3090 	str.w	r3, [r6, #144]	; 0x90
 80033a8:	f241 3888 	movw	r8, #5000	; 0x1388
 80033ac:	f8d6 3090 	ldr.w	r3, [r6, #144]	; 0x90
 80033b0:	079b      	lsls	r3, r3, #30
 80033b2:	d405      	bmi.n	80033c0 <HAL_RCC_OscConfig+0x388>
 80033b4:	f7fe f8cc 	bl	8001550 <HAL_GetTick>
 80033b8:	1bc3      	subs	r3, r0, r7
 80033ba:	4543      	cmp	r3, r8
 80033bc:	d9f6      	bls.n	80033ac <HAL_RCC_OscConfig+0x374>
 80033be:	e6f0      	b.n	80031a2 <HAL_RCC_OscConfig+0x16a>
 80033c0:	68e3      	ldr	r3, [r4, #12]
 80033c2:	f023 0304 	bic.w	r3, r3, #4
 80033c6:	2b81      	cmp	r3, #129	; 0x81
 80033c8:	d11b      	bne.n	8003402 <HAL_RCC_OscConfig+0x3ca>
 80033ca:	f7fe f8c1 	bl	8001550 <HAL_GetTick>
 80033ce:	f8d6 3090 	ldr.w	r3, [r6, #144]	; 0x90
 80033d2:	f043 0380 	orr.w	r3, r3, #128	; 0x80
 80033d6:	f8c6 3090 	str.w	r3, [r6, #144]	; 0x90
 80033da:	4607      	mov	r7, r0
 80033dc:	f04f 46b0 	mov.w	r6, #1476395008	; 0x58000000
 80033e0:	f241 3888 	movw	r8, #5000	; 0x1388
 80033e4:	f8d6 3090 	ldr.w	r3, [r6, #144]	; 0x90
 80033e8:	0518      	lsls	r0, r3, #20
 80033ea:	d504      	bpl.n	80033f6 <HAL_RCC_OscConfig+0x3be>
 80033ec:	6ae0      	ldr	r0, [r4, #44]	; 0x2c
 80033ee:	2800      	cmp	r0, #0
 80033f0:	d14a      	bne.n	8003488 <HAL_RCC_OscConfig+0x450>
 80033f2:	2000      	movs	r0, #0
 80033f4:	e666      	b.n	80030c4 <HAL_RCC_OscConfig+0x8c>
 80033f6:	f7fe f8ab 	bl	8001550 <HAL_GetTick>
 80033fa:	1bc0      	subs	r0, r0, r7
 80033fc:	4540      	cmp	r0, r8
 80033fe:	d9f1      	bls.n	80033e4 <HAL_RCC_OscConfig+0x3ac>
 8003400:	e6cf      	b.n	80031a2 <HAL_RCC_OscConfig+0x16a>
 8003402:	f7fe f8a5 	bl	8001550 <HAL_GetTick>
 8003406:	f8d6 3090 	ldr.w	r3, [r6, #144]	; 0x90
 800340a:	f023 0380 	bic.w	r3, r3, #128	; 0x80
 800340e:	f8c6 3090 	str.w	r3, [r6, #144]	; 0x90
 8003412:	4607      	mov	r7, r0
 8003414:	f04f 46b0 	mov.w	r6, #1476395008	; 0x58000000
 8003418:	f241 3888 	movw	r8, #5000	; 0x1388
 800341c:	f8d6 3090 	ldr.w	r3, [r6, #144]	; 0x90
 8003420:	0519      	lsls	r1, r3, #20
 8003422:	d5e3      	bpl.n	80033ec <HAL_RCC_OscConfig+0x3b4>
 8003424:	f7fe f894 	bl	8001550 <HAL_GetTick>
 8003428:	1bc0      	subs	r0, r0, r7
 800342a:	4540      	cmp	r0, r8
 800342c:	d9f6      	bls.n	800341c <HAL_RCC_OscConfig+0x3e4>
 800342e:	e6b8      	b.n	80031a2 <HAL_RCC_OscConfig+0x16a>
 8003430:	f7fe f88e 	bl	8001550 <HAL_GetTick>
 8003434:	f8d6 3090 	ldr.w	r3, [r6, #144]	; 0x90
 8003438:	f023 0380 	bic.w	r3, r3, #128	; 0x80
 800343c:	4607      	mov	r7, r0
 800343e:	f8c6 3090 	str.w	r3, [r6, #144]	; 0x90
 8003442:	f241 3888 	movw	r8, #5000	; 0x1388
 8003446:	f8d6 3090 	ldr.w	r3, [r6, #144]	; 0x90
 800344a:	051a      	lsls	r2, r3, #20
 800344c:	d416      	bmi.n	800347c <HAL_RCC_OscConfig+0x444>
 800344e:	f7fe f87f 	bl	8001550 <HAL_GetTick>
 8003452:	f8d6 3090 	ldr.w	r3, [r6, #144]	; 0x90
 8003456:	f023 0301 	bic.w	r3, r3, #1
 800345a:	f8c6 3090 	str.w	r3, [r6, #144]	; 0x90
 800345e:	4607      	mov	r7, r0
 8003460:	f04f 48b0 	mov.w	r8, #1476395008	; 0x58000000
 8003464:	f241 3688 	movw	r6, #5000	; 0x1388
 8003468:	f8d8 3090 	ldr.w	r3, [r8, #144]	; 0x90
 800346c:	079b      	lsls	r3, r3, #30
 800346e:	d5bd      	bpl.n	80033ec <HAL_RCC_OscConfig+0x3b4>
 8003470:	f7fe f86e 	bl	8001550 <HAL_GetTick>
 8003474:	1bc3      	subs	r3, r0, r7
 8003476:	42b3      	cmp	r3, r6
 8003478:	d9f6      	bls.n	8003468 <HAL_RCC_OscConfig+0x430>
 800347a:	e692      	b.n	80031a2 <HAL_RCC_OscConfig+0x16a>
 800347c:	f7fe f868 	bl	8001550 <HAL_GetTick>
 8003480:	1bc0      	subs	r0, r0, r7
 8003482:	4540      	cmp	r0, r8
 8003484:	d9df      	bls.n	8003446 <HAL_RCC_OscConfig+0x40e>
 8003486:	e68c      	b.n	80031a2 <HAL_RCC_OscConfig+0x16a>
 8003488:	2d0c      	cmp	r5, #12
 800348a:	d053      	beq.n	8003534 <HAL_RCC_OscConfig+0x4fc>
 800348c:	f04f 43b0 	mov.w	r3, #1476395008	; 0x58000000
 8003490:	2802      	cmp	r0, #2
 8003492:	681a      	ldr	r2, [r3, #0]
 8003494:	f022 7280 	bic.w	r2, r2, #16777216	; 0x1000000
 8003498:	601a      	str	r2, [r3, #0]
 800349a:	d133      	bne.n	8003504 <HAL_RCC_OscConfig+0x4cc>
 800349c:	f7fe f858 	bl	8001550 <HAL_GetTick>
 80034a0:	4605      	mov	r5, r0
 80034a2:	f7ff fcda 	bl	8002e5a <LL_RCC_PLL_IsReady>
 80034a6:	bb38      	cbnz	r0, 80034f8 <HAL_RCC_OscConfig+0x4c0>
 80034a8:	e9d4 310c 	ldrd	r3, r1, [r4, #48]	; 0x30
 80034ac:	f04f 42b0 	mov.w	r2, #1476395008	; 0x58000000
 80034b0:	430b      	orrs	r3, r1
 80034b2:	68d0      	ldr	r0, [r2, #12]
 80034b4:	492f      	ldr	r1, [pc, #188]	; (8003574 <HAL_RCC_OscConfig+0x53c>)
 80034b6:	4001      	ands	r1, r0
 80034b8:	430b      	orrs	r3, r1
 80034ba:	6be1      	ldr	r1, [r4, #60]	; 0x3c
 80034bc:	430b      	orrs	r3, r1
 80034be:	6c21      	ldr	r1, [r4, #64]	; 0x40
 80034c0:	430b      	orrs	r3, r1
 80034c2:	6c61      	ldr	r1, [r4, #68]	; 0x44
 80034c4:	430b      	orrs	r3, r1
 80034c6:	6ba1      	ldr	r1, [r4, #56]	; 0x38
 80034c8:	ea43 2301 	orr.w	r3, r3, r1, lsl #8
 80034cc:	60d3      	str	r3, [r2, #12]
 80034ce:	6813      	ldr	r3, [r2, #0]
 80034d0:	f043 7380 	orr.w	r3, r3, #16777216	; 0x1000000
 80034d4:	6013      	str	r3, [r2, #0]
 80034d6:	68d3      	ldr	r3, [r2, #12]
 80034d8:	f043 5380 	orr.w	r3, r3, #268435456	; 0x10000000
 80034dc:	60d3      	str	r3, [r2, #12]
 80034de:	f7fe f837 	bl	8001550 <HAL_GetTick>
 80034e2:	4604      	mov	r4, r0
 80034e4:	f7ff fcb9 	bl	8002e5a <LL_RCC_PLL_IsReady>
 80034e8:	2800      	cmp	r0, #0
 80034ea:	d182      	bne.n	80033f2 <HAL_RCC_OscConfig+0x3ba>
 80034ec:	f7fe f830 	bl	8001550 <HAL_GetTick>
 80034f0:	1b00      	subs	r0, r0, r4
 80034f2:	280a      	cmp	r0, #10
 80034f4:	d9f6      	bls.n	80034e4 <HAL_RCC_OscConfig+0x4ac>
 80034f6:	e654      	b.n	80031a2 <HAL_RCC_OscConfig+0x16a>
 80034f8:	f7fe f82a 	bl	8001550 <HAL_GetTick>
 80034fc:	1b40      	subs	r0, r0, r5
 80034fe:	280a      	cmp	r0, #10
 8003500:	d9cf      	bls.n	80034a2 <HAL_RCC_OscConfig+0x46a>
 8003502:	e64e      	b.n	80031a2 <HAL_RCC_OscConfig+0x16a>
 8003504:	68da      	ldr	r2, [r3, #12]
 8003506:	f022 0203 	bic.w	r2, r2, #3
 800350a:	60da      	str	r2, [r3, #12]
 800350c:	68da      	ldr	r2, [r3, #12]
 800350e:	f022 5288 	bic.w	r2, r2, #285212672	; 0x11000000
 8003512:	f422 3280 	bic.w	r2, r2, #65536	; 0x10000
 8003516:	60da      	str	r2, [r3, #12]
 8003518:	f7fe f81a 	bl	8001550 <HAL_GetTick>
 800351c:	4604      	mov	r4, r0
 800351e:	f7ff fc9c 	bl	8002e5a <LL_RCC_PLL_IsReady>
 8003522:	2800      	cmp	r0, #0
 8003524:	f43f af65 	beq.w	80033f2 <HAL_RCC_OscConfig+0x3ba>
 8003528:	f7fe f812 	bl	8001550 <HAL_GetTick>
 800352c:	1b00      	subs	r0, r0, r4
 800352e:	280a      	cmp	r0, #10
 8003530:	d9f5      	bls.n	800351e <HAL_RCC_OscConfig+0x4e6>
 8003532:	e636      	b.n	80031a2 <HAL_RCC_OscConfig+0x16a>
 8003534:	2801      	cmp	r0, #1
 8003536:	f43f adc5 	beq.w	80030c4 <HAL_RCC_OscConfig+0x8c>
 800353a:	f04f 43b0 	mov.w	r3, #1476395008	; 0x58000000
 800353e:	6b22      	ldr	r2, [r4, #48]	; 0x30
 8003540:	68db      	ldr	r3, [r3, #12]
 8003542:	f003 0103 	and.w	r1, r3, #3
 8003546:	4291      	cmp	r1, r2
 8003548:	f47f add1 	bne.w	80030ee <HAL_RCC_OscConfig+0xb6>
 800354c:	6b61      	ldr	r1, [r4, #52]	; 0x34
 800354e:	f003 0270 	and.w	r2, r3, #112	; 0x70
 8003552:	428a      	cmp	r2, r1
 8003554:	f47f adcb 	bne.w	80030ee <HAL_RCC_OscConfig+0xb6>
 8003558:	6ba1      	ldr	r1, [r4, #56]	; 0x38
 800355a:	f403 42fe 	and.w	r2, r3, #32512	; 0x7f00
 800355e:	ebb2 2f01 	cmp.w	r2, r1, lsl #8
 8003562:	f47f adc4 	bne.w	80030ee <HAL_RCC_OscConfig+0xb6>
 8003566:	6c62      	ldr	r2, [r4, #68]	; 0x44
 8003568:	f003 4360 	and.w	r3, r3, #3758096384	; 0xe0000000
 800356c:	4293      	cmp	r3, r2
 800356e:	f43f af40 	beq.w	80033f2 <HAL_RCC_OscConfig+0x3ba>
 8003572:	e5bc      	b.n	80030ee <HAL_RCC_OscConfig+0xb6>
 8003574:	11c1808c 	.word	0x11c1808c

08003578 <HAL_RCC_ClockConfig>:
 8003578:	e92d 41f0 	stmdb	sp!, {r4, r5, r6, r7, r8, lr}
 800357c:	460d      	mov	r5, r1
 800357e:	4604      	mov	r4, r0
 8003580:	b910      	cbnz	r0, 8003588 <HAL_RCC_ClockConfig+0x10>
 8003582:	2001      	movs	r0, #1
 8003584:	e8bd 81f0 	ldmia.w	sp!, {r4, r5, r6, r7, r8, pc}
 8003588:	4e67      	ldr	r6, [pc, #412]	; (8003728 <HAL_RCC_ClockConfig+0x1b0>)
 800358a:	6833      	ldr	r3, [r6, #0]
 800358c:	f003 0307 	and.w	r3, r3, #7
 8003590:	428b      	cmp	r3, r1
 8003592:	d316      	bcc.n	80035c2 <HAL_RCC_ClockConfig+0x4a>
 8003594:	6823      	ldr	r3, [r4, #0]
 8003596:	0798      	lsls	r0, r3, #30
 8003598:	d527      	bpl.n	80035ea <HAL_RCC_ClockConfig+0x72>
 800359a:	f04f 47b0 	mov.w	r7, #1476395008	; 0x58000000
 800359e:	68a2      	ldr	r2, [r4, #8]
 80035a0:	68bb      	ldr	r3, [r7, #8]
 80035a2:	f023 03f0 	bic.w	r3, r3, #240	; 0xf0
 80035a6:	4313      	orrs	r3, r2
 80035a8:	60bb      	str	r3, [r7, #8]
 80035aa:	f7fd ffd1 	bl	8001550 <HAL_GetTick>
 80035ae:	4606      	mov	r6, r0
 80035b0:	68bb      	ldr	r3, [r7, #8]
 80035b2:	03d9      	lsls	r1, r3, #15
 80035b4:	d419      	bmi.n	80035ea <HAL_RCC_ClockConfig+0x72>
 80035b6:	f7fd ffcb 	bl	8001550 <HAL_GetTick>
 80035ba:	1b83      	subs	r3, r0, r6
 80035bc:	2b02      	cmp	r3, #2
 80035be:	d9f7      	bls.n	80035b0 <HAL_RCC_ClockConfig+0x38>
 80035c0:	e011      	b.n	80035e6 <HAL_RCC_ClockConfig+0x6e>
 80035c2:	6833      	ldr	r3, [r6, #0]
 80035c4:	f023 0307 	bic.w	r3, r3, #7
 80035c8:	430b      	orrs	r3, r1
 80035ca:	6033      	str	r3, [r6, #0]
 80035cc:	f7fd ffc0 	bl	8001550 <HAL_GetTick>
 80035d0:	4607      	mov	r7, r0
 80035d2:	6833      	ldr	r3, [r6, #0]
 80035d4:	f003 0307 	and.w	r3, r3, #7
 80035d8:	42ab      	cmp	r3, r5
 80035da:	d0db      	beq.n	8003594 <HAL_RCC_ClockConfig+0x1c>
 80035dc:	f7fd ffb8 	bl	8001550 <HAL_GetTick>
 80035e0:	1bc0      	subs	r0, r0, r7
 80035e2:	2802      	cmp	r0, #2
 80035e4:	d9f5      	bls.n	80035d2 <HAL_RCC_ClockConfig+0x5a>
 80035e6:	2003      	movs	r0, #3
 80035e8:	e7cc      	b.n	8003584 <HAL_RCC_ClockConfig+0xc>
 80035ea:	6823      	ldr	r3, [r4, #0]
 80035ec:	065a      	lsls	r2, r3, #25
 80035ee:	d517      	bpl.n	8003620 <HAL_RCC_ClockConfig+0xa8>
 80035f0:	f04f 47b0 	mov.w	r7, #1476395008	; 0x58000000
 80035f4:	6962      	ldr	r2, [r4, #20]
 80035f6:	f8d7 3108 	ldr.w	r3, [r7, #264]	; 0x108
 80035fa:	f023 030f 	bic.w	r3, r3, #15
 80035fe:	ea43 1312 	orr.w	r3, r3, r2, lsr #4
 8003602:	f8c7 3108 	str.w	r3, [r7, #264]	; 0x108
 8003606:	f7fd ffa3 	bl	8001550 <HAL_GetTick>
 800360a:	4606      	mov	r6, r0
 800360c:	f8d7 3108 	ldr.w	r3, [r7, #264]	; 0x108
 8003610:	03db      	lsls	r3, r3, #15
 8003612:	d405      	bmi.n	8003620 <HAL_RCC_ClockConfig+0xa8>
 8003614:	f7fd ff9c 	bl	8001550 <HAL_GetTick>
 8003618:	1b83      	subs	r3, r0, r6
 800361a:	2b02      	cmp	r3, #2
 800361c:	d9f6      	bls.n	800360c <HAL_RCC_ClockConfig+0x94>
 800361e:	e7e2      	b.n	80035e6 <HAL_RCC_ClockConfig+0x6e>
 8003620:	6823      	ldr	r3, [r4, #0]
 8003622:	075e      	lsls	r6, r3, #29
 8003624:	d513      	bpl.n	800364e <HAL_RCC_ClockConfig+0xd6>
 8003626:	f04f 47b0 	mov.w	r7, #1476395008	; 0x58000000
 800362a:	68e2      	ldr	r2, [r4, #12]
 800362c:	68bb      	ldr	r3, [r7, #8]
 800362e:	f423 63e0 	bic.w	r3, r3, #1792	; 0x700
 8003632:	4313      	orrs	r3, r2
 8003634:	60bb      	str	r3, [r7, #8]
 8003636:	f7fd ff8b 	bl	8001550 <HAL_GetTick>
 800363a:	4606      	mov	r6, r0
 800363c:	68bb      	ldr	r3, [r7, #8]
 800363e:	0398      	lsls	r0, r3, #14
 8003640:	d405      	bmi.n	800364e <HAL_RCC_ClockConfig+0xd6>
 8003642:	f7fd ff85 	bl	8001550 <HAL_GetTick>
 8003646:	1b83      	subs	r3, r0, r6
 8003648:	2b02      	cmp	r3, #2
 800364a:	d9f7      	bls.n	800363c <HAL_RCC_ClockConfig+0xc4>
 800364c:	e7cb      	b.n	80035e6 <HAL_RCC_ClockConfig+0x6e>
 800364e:	6823      	ldr	r3, [r4, #0]
 8003650:	0719      	lsls	r1, r3, #28
 8003652:	d514      	bpl.n	800367e <HAL_RCC_ClockConfig+0x106>
 8003654:	f04f 47b0 	mov.w	r7, #1476395008	; 0x58000000
 8003658:	6922      	ldr	r2, [r4, #16]
 800365a:	68bb      	ldr	r3, [r7, #8]
 800365c:	f423 5360 	bic.w	r3, r3, #14336	; 0x3800
 8003660:	ea43 03c2 	orr.w	r3, r3, r2, lsl #3
 8003664:	60bb      	str	r3, [r7, #8]
 8003666:	f7fd ff73 	bl	8001550 <HAL_GetTick>
 800366a:	4606      	mov	r6, r0
 800366c:	68bb      	ldr	r3, [r7, #8]
 800366e:	035a      	lsls	r2, r3, #13
 8003670:	d405      	bmi.n	800367e <HAL_RCC_ClockConfig+0x106>
 8003672:	f7fd ff6d 	bl	8001550 <HAL_GetTick>
 8003676:	1b83      	subs	r3, r0, r6
 8003678:	2b02      	cmp	r3, #2
 800367a:	d9f7      	bls.n	800366c <HAL_RCC_ClockConfig+0xf4>
 800367c:	e7b3      	b.n	80035e6 <HAL_RCC_ClockConfig+0x6e>
 800367e:	6823      	ldr	r3, [r4, #0]
 8003680:	07db      	lsls	r3, r3, #31
 8003682:	d40f      	bmi.n	80036a4 <HAL_RCC_ClockConfig+0x12c>
 8003684:	4c28      	ldr	r4, [pc, #160]	; (8003728 <HAL_RCC_ClockConfig+0x1b0>)
 8003686:	6823      	ldr	r3, [r4, #0]
 8003688:	f003 0307 	and.w	r3, r3, #7
 800368c:	42ab      	cmp	r3, r5
 800368e:	d837      	bhi.n	8003700 <HAL_RCC_ClockConfig+0x188>
 8003690:	f7ff fcc2 	bl	8003018 <HAL_RCC_GetHCLKFreq>
 8003694:	4b25      	ldr	r3, [pc, #148]	; (800372c <HAL_RCC_ClockConfig+0x1b4>)
 8003696:	6018      	str	r0, [r3, #0]
 8003698:	4b25      	ldr	r3, [pc, #148]	; (8003730 <HAL_RCC_ClockConfig+0x1b8>)
 800369a:	e8bd 41f0 	ldmia.w	sp!, {r4, r5, r6, r7, r8, lr}
 800369e:	6818      	ldr	r0, [r3, #0]
 80036a0:	f7fd bf54 	b.w	800154c <HAL_InitTick>
 80036a4:	6863      	ldr	r3, [r4, #4]
 80036a6:	2b02      	cmp	r3, #2
 80036a8:	d11e      	bne.n	80036e8 <HAL_RCC_ClockConfig+0x170>
 80036aa:	f7ff fbbb 	bl	8002e24 <LL_RCC_HSE_IsReady>
 80036ae:	2800      	cmp	r0, #0
 80036b0:	f43f af67 	beq.w	8003582 <HAL_RCC_ClockConfig+0xa>
 80036b4:	f04f 46b0 	mov.w	r6, #1476395008	; 0x58000000
 80036b8:	6862      	ldr	r2, [r4, #4]
 80036ba:	68b3      	ldr	r3, [r6, #8]
 80036bc:	f023 0303 	bic.w	r3, r3, #3
 80036c0:	4313      	orrs	r3, r2
 80036c2:	60b3      	str	r3, [r6, #8]
 80036c4:	f7fd ff44 	bl	8001550 <HAL_GetTick>
 80036c8:	f241 3888 	movw	r8, #5000	; 0x1388
 80036cc:	4607      	mov	r7, r0
 80036ce:	68b3      	ldr	r3, [r6, #8]
 80036d0:	6862      	ldr	r2, [r4, #4]
 80036d2:	f003 030c 	and.w	r3, r3, #12
 80036d6:	ebb3 0f82 	cmp.w	r3, r2, lsl #2
 80036da:	d0d3      	beq.n	8003684 <HAL_RCC_ClockConfig+0x10c>
 80036dc:	f7fd ff38 	bl	8001550 <HAL_GetTick>
 80036e0:	1bc0      	subs	r0, r0, r7
 80036e2:	4540      	cmp	r0, r8
 80036e4:	d9f3      	bls.n	80036ce <HAL_RCC_ClockConfig+0x156>
 80036e6:	e77e      	b.n	80035e6 <HAL_RCC_ClockConfig+0x6e>
 80036e8:	2b03      	cmp	r3, #3
 80036ea:	d102      	bne.n	80036f2 <HAL_RCC_ClockConfig+0x17a>
 80036ec:	f7ff fbb5 	bl	8002e5a <LL_RCC_PLL_IsReady>
 80036f0:	e7dd      	b.n	80036ae <HAL_RCC_ClockConfig+0x136>
 80036f2:	b913      	cbnz	r3, 80036fa <HAL_RCC_ClockConfig+0x182>
 80036f4:	f7ff fba2 	bl	8002e3c <LL_RCC_MSI_IsReady>
 80036f8:	e7d9      	b.n	80036ae <HAL_RCC_ClockConfig+0x136>
 80036fa:	f7ff fb99 	bl	8002e30 <LL_RCC_HSI_IsReady>
 80036fe:	e7d6      	b.n	80036ae <HAL_RCC_ClockConfig+0x136>
 8003700:	6823      	ldr	r3, [r4, #0]
 8003702:	f023 0307 	bic.w	r3, r3, #7
 8003706:	432b      	orrs	r3, r5
 8003708:	6023      	str	r3, [r4, #0]
 800370a:	f7fd ff21 	bl	8001550 <HAL_GetTick>
 800370e:	4606      	mov	r6, r0
 8003710:	6823      	ldr	r3, [r4, #0]
 8003712:	f003 0307 	and.w	r3, r3, #7
 8003716:	42ab      	cmp	r3, r5
 8003718:	d0ba      	beq.n	8003690 <HAL_RCC_ClockConfig+0x118>
 800371a:	f7fd ff19 	bl	8001550 <HAL_GetTick>
 800371e:	1b80      	subs	r0, r0, r6
 8003720:	2802      	cmp	r0, #2
 8003722:	d9f5      	bls.n	8003710 <HAL_RCC_ClockConfig+0x198>
 8003724:	e75f      	b.n	80035e6 <HAL_RCC_ClockConfig+0x6e>
 8003726:	bf00      	nop
 8003728:	58004000 	.word	0x58004000
 800372c:	20000000 	.word	0x20000000
 8003730:	20000004 	.word	0x20000004

08003734 <HAL_RCC_GetPCLK1Freq>:
 8003734:	b508      	push	{r3, lr}
 8003736:	f7ff fc6f 	bl	8003018 <HAL_RCC_GetHCLKFreq>
 800373a:	f04f 43b0 	mov.w	r3, #1476395008	; 0x58000000
 800373e:	4a04      	ldr	r2, [pc, #16]	; (8003750 <HAL_RCC_GetPCLK1Freq+0x1c>)
 8003740:	689b      	ldr	r3, [r3, #8]
 8003742:	f3c3 2302 	ubfx	r3, r3, #8, #3
 8003746:	f852 3023 	ldr.w	r3, [r2, r3, lsl #2]
 800374a:	40d8      	lsrs	r0, r3
 800374c:	bd08      	pop	{r3, pc}
 800374e:	bf00      	nop
 8003750:	0800e9bc 	.word	0x0800e9bc

08003754 <HAL_RCC_GetPCLK2Freq>:
 8003754:	b508      	push	{r3, lr}
 8003756:	f7ff fc5f 	bl	8003018 <HAL_RCC_GetHCLKFreq>
 800375a:	f04f 43b0 	mov.w	r3, #1476395008	; 0x58000000
 800375e:	4a04      	ldr	r2, [pc, #16]	; (8003770 <HAL_RCC_GetPCLK2Freq+0x1c>)
 8003760:	689b      	ldr	r3, [r3, #8]
 8003762:	f3c3 23c2 	ubfx	r3, r3, #11, #3
 8003766:	f852 3023 	ldr.w	r3, [r2, r3, lsl #2]
 800376a:	40d8      	lsrs	r0, r3
 800376c:	bd08      	pop	{r3, pc}
 800376e:	bf00      	nop
 8003770:	0800e9bc 	.word	0x0800e9bc

08003774 <LL_RCC_LSE_IsReady>:
 8003774:	f04f 43b0 	mov.w	r3, #1476395008	; 0x58000000
 8003778:	f8d3 0090 	ldr.w	r0, [r3, #144]	; 0x90
 800377c:	f3c0 0040 	ubfx	r0, r0, #1, #1
 8003780:	4770      	bx	lr

08003782 <LL_RCC_SetI2CClockSource>:
 8003782:	f04f 41b0 	mov.w	r1, #1476395008	; 0x58000000
 8003786:	0902      	lsrs	r2, r0, #4
 8003788:	f8d1 3088 	ldr.w	r3, [r1, #136]	; 0x88
 800378c:	f402 227f 	and.w	r2, r2, #1044480	; 0xff000
 8003790:	0100      	lsls	r0, r0, #4
 8003792:	ea23 0302 	bic.w	r3, r3, r2
 8003796:	f400 207f 	and.w	r0, r0, #1044480	; 0xff000
 800379a:	4318      	orrs	r0, r3
 800379c:	f8c1 0088 	str.w	r0, [r1, #136]	; 0x88
 80037a0:	4770      	bx	lr

080037a2 <LL_RCC_SetLPTIMClockSource>:
 80037a2:	f04f 41b0 	mov.w	r1, #1476395008	; 0x58000000
 80037a6:	0c02      	lsrs	r2, r0, #16
 80037a8:	f8d1 3088 	ldr.w	r3, [r1, #136]	; 0x88
 80037ac:	0412      	lsls	r2, r2, #16
 80037ae:	ea23 0302 	bic.w	r3, r3, r2
 80037b2:	ea43 4000 	orr.w	r0, r3, r0, lsl #16
 80037b6:	f8c1 0088 	str.w	r0, [r1, #136]	; 0x88
 80037ba:	4770      	bx	lr

080037bc <HAL_RCCEx_PeriphCLKConfig>:
 80037bc:	b570      	push	{r4, r5, r6, lr}
 80037be:	6805      	ldr	r5, [r0, #0]
 80037c0:	f415 3580 	ands.w	r5, r5, #65536	; 0x10000
 80037c4:	4604      	mov	r4, r0
 80037c6:	d038      	beq.n	800383a <HAL_RCCEx_PeriphCLKConfig+0x7e>
 80037c8:	f7ff fab8 	bl	8002d3c <HAL_PWR_EnableBkUpAccess>
 80037cc:	f7fd fec0 	bl	8001550 <HAL_GetTick>
 80037d0:	4e64      	ldr	r6, [pc, #400]	; (8003964 <HAL_RCCEx_PeriphCLKConfig+0x1a8>)
 80037d2:	4605      	mov	r5, r0
 80037d4:	6833      	ldr	r3, [r6, #0]
 80037d6:	05db      	lsls	r3, r3, #23
 80037d8:	d529      	bpl.n	800382e <HAL_RCCEx_PeriphCLKConfig+0x72>
 80037da:	f04f 43b0 	mov.w	r3, #1476395008	; 0x58000000
 80037de:	6b61      	ldr	r1, [r4, #52]	; 0x34
 80037e0:	f8d3 2090 	ldr.w	r2, [r3, #144]	; 0x90
 80037e4:	f402 7240 	and.w	r2, r2, #768	; 0x300
 80037e8:	4291      	cmp	r1, r2
 80037ea:	d014      	beq.n	8003816 <HAL_RCCEx_PeriphCLKConfig+0x5a>
 80037ec:	f8d3 1090 	ldr.w	r1, [r3, #144]	; 0x90
 80037f0:	f8d3 2090 	ldr.w	r2, [r3, #144]	; 0x90
 80037f4:	f442 3280 	orr.w	r2, r2, #65536	; 0x10000
 80037f8:	f8c3 2090 	str.w	r2, [r3, #144]	; 0x90
 80037fc:	f8d3 2090 	ldr.w	r2, [r3, #144]	; 0x90
 8003800:	f421 7040 	bic.w	r0, r1, #768	; 0x300
 8003804:	f422 3280 	bic.w	r2, r2, #65536	; 0x10000
 8003808:	078d      	lsls	r5, r1, #30
 800380a:	f8c3 2090 	str.w	r2, [r3, #144]	; 0x90
 800380e:	f8c3 0090 	str.w	r0, [r3, #144]	; 0x90
 8003812:	f100 8096 	bmi.w	8003942 <HAL_RCCEx_PeriphCLKConfig+0x186>
 8003816:	f04f 42b0 	mov.w	r2, #1476395008	; 0x58000000
 800381a:	6b61      	ldr	r1, [r4, #52]	; 0x34
 800381c:	f8d2 3090 	ldr.w	r3, [r2, #144]	; 0x90
 8003820:	f423 7340 	bic.w	r3, r3, #768	; 0x300
 8003824:	430b      	orrs	r3, r1
 8003826:	f8c2 3090 	str.w	r3, [r2, #144]	; 0x90
 800382a:	2500      	movs	r5, #0
 800382c:	e005      	b.n	800383a <HAL_RCCEx_PeriphCLKConfig+0x7e>
 800382e:	f7fd fe8f 	bl	8001550 <HAL_GetTick>
 8003832:	1b40      	subs	r0, r0, r5
 8003834:	2802      	cmp	r0, #2
 8003836:	d9cd      	bls.n	80037d4 <HAL_RCCEx_PeriphCLKConfig+0x18>
 8003838:	2503      	movs	r5, #3
 800383a:	6822      	ldr	r2, [r4, #0]
 800383c:	07d0      	lsls	r0, r2, #31
 800383e:	d50a      	bpl.n	8003856 <HAL_RCCEx_PeriphCLKConfig+0x9a>
 8003840:	f04f 40b0 	mov.w	r0, #1476395008	; 0x58000000
 8003844:	6861      	ldr	r1, [r4, #4]
 8003846:	f8d0 3088 	ldr.w	r3, [r0, #136]	; 0x88
 800384a:	ea23 4311 	bic.w	r3, r3, r1, lsr #16
 800384e:	b289      	uxth	r1, r1
 8003850:	430b      	orrs	r3, r1
 8003852:	f8c0 3088 	str.w	r3, [r0, #136]	; 0x88
 8003856:	0791      	lsls	r1, r2, #30
 8003858:	d50a      	bpl.n	8003870 <HAL_RCCEx_PeriphCLKConfig+0xb4>
 800385a:	f04f 40b0 	mov.w	r0, #1476395008	; 0x58000000
 800385e:	68a1      	ldr	r1, [r4, #8]
 8003860:	f8d0 3088 	ldr.w	r3, [r0, #136]	; 0x88
 8003864:	ea23 4311 	bic.w	r3, r3, r1, lsr #16
 8003868:	b289      	uxth	r1, r1
 800386a:	430b      	orrs	r3, r1
 800386c:	f8c0 3088 	str.w	r3, [r0, #136]	; 0x88
 8003870:	0693      	lsls	r3, r2, #26
 8003872:	d509      	bpl.n	8003888 <HAL_RCCEx_PeriphCLKConfig+0xcc>
 8003874:	f04f 41b0 	mov.w	r1, #1476395008	; 0x58000000
 8003878:	6920      	ldr	r0, [r4, #16]
 800387a:	f8d1 3088 	ldr.w	r3, [r1, #136]	; 0x88
 800387e:	f423 6340 	bic.w	r3, r3, #3072	; 0xc00
 8003882:	4303      	orrs	r3, r0
 8003884:	f8c1 3088 	str.w	r3, [r1, #136]	; 0x88
 8003888:	0596      	lsls	r6, r2, #22
 800388a:	d502      	bpl.n	8003892 <HAL_RCCEx_PeriphCLKConfig+0xd6>
 800388c:	6a20      	ldr	r0, [r4, #32]
 800388e:	f7ff ff88 	bl	80037a2 <LL_RCC_SetLPTIMClockSource>
 8003892:	6823      	ldr	r3, [r4, #0]
 8003894:	0558      	lsls	r0, r3, #21
 8003896:	d502      	bpl.n	800389e <HAL_RCCEx_PeriphCLKConfig+0xe2>
 8003898:	6a60      	ldr	r0, [r4, #36]	; 0x24
 800389a:	f7ff ff82 	bl	80037a2 <LL_RCC_SetLPTIMClockSource>
 800389e:	6823      	ldr	r3, [r4, #0]
 80038a0:	0519      	lsls	r1, r3, #20
 80038a2:	d502      	bpl.n	80038aa <HAL_RCCEx_PeriphCLKConfig+0xee>
 80038a4:	6aa0      	ldr	r0, [r4, #40]	; 0x28
 80038a6:	f7ff ff7c 	bl	80037a2 <LL_RCC_SetLPTIMClockSource>
 80038aa:	6823      	ldr	r3, [r4, #0]
 80038ac:	065a      	lsls	r2, r3, #25
 80038ae:	d502      	bpl.n	80038b6 <HAL_RCCEx_PeriphCLKConfig+0xfa>
 80038b0:	6960      	ldr	r0, [r4, #20]
 80038b2:	f7ff ff66 	bl	8003782 <LL_RCC_SetI2CClockSource>
 80038b6:	6823      	ldr	r3, [r4, #0]
 80038b8:	061b      	lsls	r3, r3, #24
 80038ba:	d502      	bpl.n	80038c2 <HAL_RCCEx_PeriphCLKConfig+0x106>
 80038bc:	69a0      	ldr	r0, [r4, #24]
 80038be:	f7ff ff60 	bl	8003782 <LL_RCC_SetI2CClockSource>
 80038c2:	6823      	ldr	r3, [r4, #0]
 80038c4:	05de      	lsls	r6, r3, #23
 80038c6:	d502      	bpl.n	80038ce <HAL_RCCEx_PeriphCLKConfig+0x112>
 80038c8:	69e0      	ldr	r0, [r4, #28]
 80038ca:	f7ff ff5a 	bl	8003782 <LL_RCC_SetI2CClockSource>
 80038ce:	6821      	ldr	r1, [r4, #0]
 80038d0:	06c8      	lsls	r0, r1, #27
 80038d2:	d510      	bpl.n	80038f6 <HAL_RCCEx_PeriphCLKConfig+0x13a>
 80038d4:	f04f 42b0 	mov.w	r2, #1476395008	; 0x58000000
 80038d8:	68e0      	ldr	r0, [r4, #12]
 80038da:	f8d2 3088 	ldr.w	r3, [r2, #136]	; 0x88
 80038de:	f423 7340 	bic.w	r3, r3, #768	; 0x300
 80038e2:	4303      	orrs	r3, r0
 80038e4:	f8c2 3088 	str.w	r3, [r2, #136]	; 0x88
 80038e8:	f5b0 7f80 	cmp.w	r0, #256	; 0x100
 80038ec:	bf02      	ittt	eq
 80038ee:	68d3      	ldreq	r3, [r2, #12]
 80038f0:	f043 7380 	orreq.w	r3, r3, #16777216	; 0x1000000
 80038f4:	60d3      	streq	r3, [r2, #12]
 80038f6:	040a      	lsls	r2, r1, #16
 80038f8:	d50e      	bpl.n	8003918 <HAL_RCCEx_PeriphCLKConfig+0x15c>
 80038fa:	f04f 42b0 	mov.w	r2, #1476395008	; 0x58000000
 80038fe:	6b20      	ldr	r0, [r4, #48]	; 0x30
 8003900:	f8d2 3088 	ldr.w	r3, [r2, #136]	; 0x88
 8003904:	f023 4340 	bic.w	r3, r3, #3221225472	; 0xc0000000
 8003908:	4303      	orrs	r3, r0
 800390a:	f8c2 3088 	str.w	r3, [r2, #136]	; 0x88
 800390e:	b918      	cbnz	r0, 8003918 <HAL_RCCEx_PeriphCLKConfig+0x15c>
 8003910:	68d3      	ldr	r3, [r2, #12]
 8003912:	f043 7380 	orr.w	r3, r3, #16777216	; 0x1000000
 8003916:	60d3      	str	r3, [r2, #12]
 8003918:	044b      	lsls	r3, r1, #17
 800391a:	d510      	bpl.n	800393e <HAL_RCCEx_PeriphCLKConfig+0x182>
 800391c:	f04f 42b0 	mov.w	r2, #1476395008	; 0x58000000
 8003920:	6ae1      	ldr	r1, [r4, #44]	; 0x2c
 8003922:	f8d2 3088 	ldr.w	r3, [r2, #136]	; 0x88
 8003926:	f023 5340 	bic.w	r3, r3, #805306368	; 0x30000000
 800392a:	430b      	orrs	r3, r1
 800392c:	f1b1 5f00 	cmp.w	r1, #536870912	; 0x20000000
 8003930:	f8c2 3088 	str.w	r3, [r2, #136]	; 0x88
 8003934:	d103      	bne.n	800393e <HAL_RCCEx_PeriphCLKConfig+0x182>
 8003936:	68d3      	ldr	r3, [r2, #12]
 8003938:	f443 3380 	orr.w	r3, r3, #65536	; 0x10000
 800393c:	60d3      	str	r3, [r2, #12]
 800393e:	4628      	mov	r0, r5
 8003940:	bd70      	pop	{r4, r5, r6, pc}
 8003942:	f7fd fe05 	bl	8001550 <HAL_GetTick>
 8003946:	f241 3688 	movw	r6, #5000	; 0x1388
 800394a:	4605      	mov	r5, r0
 800394c:	f7ff ff12 	bl	8003774 <LL_RCC_LSE_IsReady>
 8003950:	2801      	cmp	r0, #1
 8003952:	f43f af60 	beq.w	8003816 <HAL_RCCEx_PeriphCLKConfig+0x5a>
 8003956:	f7fd fdfb 	bl	8001550 <HAL_GetTick>
 800395a:	1b40      	subs	r0, r0, r5
 800395c:	42b0      	cmp	r0, r6
 800395e:	d9f5      	bls.n	800394c <HAL_RCCEx_PeriphCLKConfig+0x190>
 8003960:	e76a      	b.n	8003838 <HAL_RCCEx_PeriphCLKConfig+0x7c>
 8003962:	bf00      	nop
 8003964:	58000400 	.word	0x58000400

08003968 <HAL_RTC_DeactivateAlarm>:
 8003968:	b530      	push	{r4, r5, lr}
 800396a:	f890 302c 	ldrb.w	r3, [r0, #44]	; 0x2c
 800396e:	2b01      	cmp	r3, #1
 8003970:	f04f 0202 	mov.w	r2, #2
 8003974:	d022      	beq.n	80039bc <HAL_RTC_DeactivateAlarm+0x54>
 8003976:	4b19      	ldr	r3, [pc, #100]	; (80039dc <HAL_RTC_DeactivateAlarm+0x74>)
 8003978:	f880 202d 	strb.w	r2, [r0, #45]	; 0x2d
 800397c:	24ca      	movs	r4, #202	; 0xca
 800397e:	2501      	movs	r5, #1
 8003980:	f880 502c 	strb.w	r5, [r0, #44]	; 0x2c
 8003984:	625c      	str	r4, [r3, #36]	; 0x24
 8003986:	2453      	movs	r4, #83	; 0x53
 8003988:	625c      	str	r4, [r3, #36]	; 0x24
 800398a:	f5b1 7f80 	cmp.w	r1, #256	; 0x100
 800398e:	6b04      	ldr	r4, [r0, #48]	; 0x30
 8003990:	d116      	bne.n	80039c0 <HAL_RTC_DeactivateAlarm+0x58>
 8003992:	699a      	ldr	r2, [r3, #24]
 8003994:	f422 5288 	bic.w	r2, r2, #4352	; 0x1100
 8003998:	619a      	str	r2, [r3, #24]
 800399a:	6c5a      	ldr	r2, [r3, #68]	; 0x44
 800399c:	f024 0401 	bic.w	r4, r4, #1
 80039a0:	f022 4200 	bic.w	r2, r2, #2147483648	; 0x80000000
 80039a4:	645a      	str	r2, [r3, #68]	; 0x44
 80039a6:	6304      	str	r4, [r0, #48]	; 0x30
 80039a8:	65dd      	str	r5, [r3, #92]	; 0x5c
 80039aa:	4b0c      	ldr	r3, [pc, #48]	; (80039dc <HAL_RTC_DeactivateAlarm+0x74>)
 80039ac:	22ff      	movs	r2, #255	; 0xff
 80039ae:	625a      	str	r2, [r3, #36]	; 0x24
 80039b0:	2301      	movs	r3, #1
 80039b2:	2200      	movs	r2, #0
 80039b4:	f880 302d 	strb.w	r3, [r0, #45]	; 0x2d
 80039b8:	f880 202c 	strb.w	r2, [r0, #44]	; 0x2c
 80039bc:	4610      	mov	r0, r2
 80039be:	bd30      	pop	{r4, r5, pc}
 80039c0:	6999      	ldr	r1, [r3, #24]
 80039c2:	f421 5108 	bic.w	r1, r1, #8704	; 0x2200
 80039c6:	6199      	str	r1, [r3, #24]
 80039c8:	6cd9      	ldr	r1, [r3, #76]	; 0x4c
 80039ca:	f024 0402 	bic.w	r4, r4, #2
 80039ce:	f021 4100 	bic.w	r1, r1, #2147483648	; 0x80000000
 80039d2:	64d9      	str	r1, [r3, #76]	; 0x4c
 80039d4:	6304      	str	r4, [r0, #48]	; 0x30
 80039d6:	65da      	str	r2, [r3, #92]	; 0x5c
 80039d8:	e7e7      	b.n	80039aa <HAL_RTC_DeactivateAlarm+0x42>
 80039da:	bf00      	nop
 80039dc:	40002800 	.word	0x40002800

080039e0 <HAL_RTC_AlarmIRQHandler>:
 80039e0:	b570      	push	{r4, r5, r6, lr}
 80039e2:	4e0b      	ldr	r6, [pc, #44]	; (8003a10 <HAL_RTC_AlarmIRQHandler+0x30>)
 80039e4:	6b03      	ldr	r3, [r0, #48]	; 0x30
 80039e6:	6d75      	ldr	r5, [r6, #84]	; 0x54
 80039e8:	401d      	ands	r5, r3
 80039ea:	07ea      	lsls	r2, r5, #31
 80039ec:	4604      	mov	r4, r0
 80039ee:	d503      	bpl.n	80039f8 <HAL_RTC_AlarmIRQHandler+0x18>
 80039f0:	2301      	movs	r3, #1
 80039f2:	65f3      	str	r3, [r6, #92]	; 0x5c
 80039f4:	f7fd fecb 	bl	800178e <HAL_RTC_AlarmAEventCallback>
 80039f8:	07ab      	lsls	r3, r5, #30
 80039fa:	d504      	bpl.n	8003a06 <HAL_RTC_AlarmIRQHandler+0x26>
 80039fc:	2302      	movs	r3, #2
 80039fe:	65f3      	str	r3, [r6, #92]	; 0x5c
 8003a00:	4620      	mov	r0, r4
 8003a02:	f000 f9c9 	bl	8003d98 <HAL_RTCEx_AlarmBEventCallback>
 8003a06:	2301      	movs	r3, #1
 8003a08:	f884 302d 	strb.w	r3, [r4, #45]	; 0x2d
 8003a0c:	bd70      	pop	{r4, r5, r6, pc}
 8003a0e:	bf00      	nop
 8003a10:	40002800 	.word	0x40002800

08003a14 <HAL_RTC_WaitForSynchro>:
 8003a14:	b538      	push	{r3, r4, r5, lr}
 8003a16:	4c0a      	ldr	r4, [pc, #40]	; (8003a40 <HAL_RTC_WaitForSynchro+0x2c>)
 8003a18:	68e3      	ldr	r3, [r4, #12]
 8003a1a:	f023 0320 	bic.w	r3, r3, #32
 8003a1e:	60e3      	str	r3, [r4, #12]
 8003a20:	f7fd fd96 	bl	8001550 <HAL_GetTick>
 8003a24:	4605      	mov	r5, r0
 8003a26:	68e3      	ldr	r3, [r4, #12]
 8003a28:	069b      	lsls	r3, r3, #26
 8003a2a:	d501      	bpl.n	8003a30 <HAL_RTC_WaitForSynchro+0x1c>
 8003a2c:	2000      	movs	r0, #0
 8003a2e:	bd38      	pop	{r3, r4, r5, pc}
 8003a30:	f7fd fd8e 	bl	8001550 <HAL_GetTick>
 8003a34:	1b40      	subs	r0, r0, r5
 8003a36:	f5b0 7f7a 	cmp.w	r0, #1000	; 0x3e8
 8003a3a:	d9f4      	bls.n	8003a26 <HAL_RTC_WaitForSynchro+0x12>
 8003a3c:	2003      	movs	r0, #3
 8003a3e:	e7f6      	b.n	8003a2e <HAL_RTC_WaitForSynchro+0x1a>
 8003a40:	40002800 	.word	0x40002800

08003a44 <RTC_EnterInitMode>:
 8003a44:	e92d 41f0 	stmdb	sp!, {r4, r5, r6, r7, r8, lr}
 8003a48:	4d11      	ldr	r5, [pc, #68]	; (8003a90 <RTC_EnterInitMode+0x4c>)
 8003a4a:	68ec      	ldr	r4, [r5, #12]
 8003a4c:	f014 0440 	ands.w	r4, r4, #64	; 0x40
 8003a50:	4607      	mov	r7, r0
 8003a52:	d11a      	bne.n	8003a8a <RTC_EnterInitMode+0x46>
 8003a54:	68eb      	ldr	r3, [r5, #12]
 8003a56:	f043 0380 	orr.w	r3, r3, #128	; 0x80
 8003a5a:	60eb      	str	r3, [r5, #12]
 8003a5c:	f7fd fd78 	bl	8001550 <HAL_GetTick>
 8003a60:	f04f 0803 	mov.w	r8, #3
 8003a64:	4606      	mov	r6, r0
 8003a66:	68eb      	ldr	r3, [r5, #12]
 8003a68:	065b      	lsls	r3, r3, #25
 8003a6a:	d401      	bmi.n	8003a70 <RTC_EnterInitMode+0x2c>
 8003a6c:	2c03      	cmp	r4, #3
 8003a6e:	d102      	bne.n	8003a76 <RTC_EnterInitMode+0x32>
 8003a70:	4620      	mov	r0, r4
 8003a72:	e8bd 81f0 	ldmia.w	sp!, {r4, r5, r6, r7, r8, pc}
 8003a76:	f7fd fd6b 	bl	8001550 <HAL_GetTick>
 8003a7a:	1b80      	subs	r0, r0, r6
 8003a7c:	f5b0 7f7a 	cmp.w	r0, #1000	; 0x3e8
 8003a80:	bf84      	itt	hi
 8003a82:	f887 802d 	strbhi.w	r8, [r7, #45]	; 0x2d
 8003a86:	2403      	movhi	r4, #3
 8003a88:	e7ed      	b.n	8003a66 <RTC_EnterInitMode+0x22>
 8003a8a:	2400      	movs	r4, #0
 8003a8c:	e7f0      	b.n	8003a70 <RTC_EnterInitMode+0x2c>
 8003a8e:	bf00      	nop
 8003a90:	40002800 	.word	0x40002800

08003a94 <RTC_ExitInitMode>:
 8003a94:	4b10      	ldr	r3, [pc, #64]	; (8003ad8 <RTC_ExitInitMode+0x44>)
 8003a96:	68da      	ldr	r2, [r3, #12]
 8003a98:	f022 0280 	bic.w	r2, r2, #128	; 0x80
 8003a9c:	b510      	push	{r4, lr}
 8003a9e:	60da      	str	r2, [r3, #12]
 8003aa0:	699a      	ldr	r2, [r3, #24]
 8003aa2:	0692      	lsls	r2, r2, #26
 8003aa4:	4604      	mov	r4, r0
 8003aa6:	d406      	bmi.n	8003ab6 <RTC_ExitInitMode+0x22>
 8003aa8:	f7ff ffb4 	bl	8003a14 <HAL_RTC_WaitForSynchro>
 8003aac:	b110      	cbz	r0, 8003ab4 <RTC_ExitInitMode+0x20>
 8003aae:	2003      	movs	r0, #3
 8003ab0:	f884 002d 	strb.w	r0, [r4, #45]	; 0x2d
 8003ab4:	bd10      	pop	{r4, pc}
 8003ab6:	699a      	ldr	r2, [r3, #24]
 8003ab8:	f022 0220 	bic.w	r2, r2, #32
 8003abc:	619a      	str	r2, [r3, #24]
 8003abe:	f7ff ffa9 	bl	8003a14 <HAL_RTC_WaitForSynchro>
 8003ac2:	b110      	cbz	r0, 8003aca <RTC_ExitInitMode+0x36>
 8003ac4:	2003      	movs	r0, #3
 8003ac6:	f884 002d 	strb.w	r0, [r4, #45]	; 0x2d
 8003aca:	4a03      	ldr	r2, [pc, #12]	; (8003ad8 <RTC_ExitInitMode+0x44>)
 8003acc:	6993      	ldr	r3, [r2, #24]
 8003ace:	f043 0320 	orr.w	r3, r3, #32
 8003ad2:	6193      	str	r3, [r2, #24]
 8003ad4:	e7ee      	b.n	8003ab4 <RTC_ExitInitMode+0x20>
 8003ad6:	bf00      	nop
 8003ad8:	40002800 	.word	0x40002800

08003adc <HAL_RTC_Init>:
 8003adc:	b538      	push	{r3, r4, r5, lr}
 8003ade:	4604      	mov	r4, r0
 8003ae0:	2800      	cmp	r0, #0
 8003ae2:	d047      	beq.n	8003b74 <HAL_RTC_Init+0x98>
 8003ae4:	f890 302d 	ldrb.w	r3, [r0, #45]	; 0x2d
 8003ae8:	f003 02ff 	and.w	r2, r3, #255	; 0xff
 8003aec:	b91b      	cbnz	r3, 8003af6 <HAL_RTC_Init+0x1a>
 8003aee:	f880 202c 	strb.w	r2, [r0, #44]	; 0x2c
 8003af2:	f7fd fbb7 	bl	8001264 <HAL_RTC_MspInit>
 8003af6:	4d20      	ldr	r5, [pc, #128]	; (8003b78 <HAL_RTC_Init+0x9c>)
 8003af8:	2302      	movs	r3, #2
 8003afa:	f884 302d 	strb.w	r3, [r4, #45]	; 0x2d
 8003afe:	23ca      	movs	r3, #202	; 0xca
 8003b00:	626b      	str	r3, [r5, #36]	; 0x24
 8003b02:	2353      	movs	r3, #83	; 0x53
 8003b04:	626b      	str	r3, [r5, #36]	; 0x24
 8003b06:	4620      	mov	r0, r4
 8003b08:	f7ff ff9c 	bl	8003a44 <RTC_EnterInitMode>
 8003b0c:	bb70      	cbnz	r0, 8003b6c <HAL_RTC_Init+0x90>
 8003b0e:	69ab      	ldr	r3, [r5, #24]
 8003b10:	f023 638e 	bic.w	r3, r3, #74448896	; 0x4700000
 8003b14:	f023 0340 	bic.w	r3, r3, #64	; 0x40
 8003b18:	61ab      	str	r3, [r5, #24]
 8003b1a:	6921      	ldr	r1, [r4, #16]
 8003b1c:	6863      	ldr	r3, [r4, #4]
 8003b1e:	69aa      	ldr	r2, [r5, #24]
 8003b20:	430b      	orrs	r3, r1
 8003b22:	4313      	orrs	r3, r2
 8003b24:	69a2      	ldr	r2, [r4, #24]
 8003b26:	4313      	orrs	r3, r2
 8003b28:	61ab      	str	r3, [r5, #24]
 8003b2a:	e9d4 2302 	ldrd	r2, r3, [r4, #8]
 8003b2e:	ea43 4302 	orr.w	r3, r3, r2, lsl #16
 8003b32:	612b      	str	r3, [r5, #16]
 8003b34:	e9d4 3109 	ldrd	r3, r1, [r4, #36]	; 0x24
 8003b38:	68ea      	ldr	r2, [r5, #12]
 8003b3a:	430b      	orrs	r3, r1
 8003b3c:	f422 52f8 	bic.w	r2, r2, #7936	; 0x1f00
 8003b40:	4313      	orrs	r3, r2
 8003b42:	60eb      	str	r3, [r5, #12]
 8003b44:	4620      	mov	r0, r4
 8003b46:	f7ff ffa5 	bl	8003a94 <RTC_ExitInitMode>
 8003b4a:	b978      	cbnz	r0, 8003b6c <HAL_RTC_Init+0x90>
 8003b4c:	e9d4 1307 	ldrd	r1, r3, [r4, #28]
 8003b50:	69aa      	ldr	r2, [r5, #24]
 8003b52:	430b      	orrs	r3, r1
 8003b54:	f022 4260 	bic.w	r2, r2, #3758096384	; 0xe0000000
 8003b58:	4313      	orrs	r3, r2
 8003b5a:	6962      	ldr	r2, [r4, #20]
 8003b5c:	4313      	orrs	r3, r2
 8003b5e:	61ab      	str	r3, [r5, #24]
 8003b60:	23ff      	movs	r3, #255	; 0xff
 8003b62:	626b      	str	r3, [r5, #36]	; 0x24
 8003b64:	2301      	movs	r3, #1
 8003b66:	f884 302d 	strb.w	r3, [r4, #45]	; 0x2d
 8003b6a:	bd38      	pop	{r3, r4, r5, pc}
 8003b6c:	4b02      	ldr	r3, [pc, #8]	; (8003b78 <HAL_RTC_Init+0x9c>)
 8003b6e:	22ff      	movs	r2, #255	; 0xff
 8003b70:	625a      	str	r2, [r3, #36]	; 0x24
 8003b72:	e7fa      	b.n	8003b6a <HAL_RTC_Init+0x8e>
 8003b74:	2001      	movs	r0, #1
 8003b76:	e7f8      	b.n	8003b6a <HAL_RTC_Init+0x8e>
 8003b78:	40002800 	.word	0x40002800

08003b7c <RTC_ByteToBcd2>:
 8003b7c:	2300      	movs	r3, #0
 8003b7e:	2809      	cmp	r0, #9
 8003b80:	d803      	bhi.n	8003b8a <RTC_ByteToBcd2+0xe>
 8003b82:	ea40 1003 	orr.w	r0, r0, r3, lsl #4
 8003b86:	b2c0      	uxtb	r0, r0
 8003b88:	4770      	bx	lr
 8003b8a:	380a      	subs	r0, #10
 8003b8c:	3301      	adds	r3, #1
 8003b8e:	b2c0      	uxtb	r0, r0
 8003b90:	e7f5      	b.n	8003b7e <RTC_ByteToBcd2+0x2>
	...

08003b94 <HAL_RTC_SetAlarm_IT>:
 8003b94:	e92d 47f0 	stmdb	sp!, {r4, r5, r6, r7, r8, r9, sl, lr}
 8003b98:	f890 302c 	ldrb.w	r3, [r0, #44]	; 0x2c
 8003b9c:	2b01      	cmp	r3, #1
 8003b9e:	4605      	mov	r5, r0
 8003ba0:	f04f 0002 	mov.w	r0, #2
 8003ba4:	d069      	beq.n	8003c7a <HAL_RTC_SetAlarm_IT+0xe6>
 8003ba6:	2301      	movs	r3, #1
 8003ba8:	f885 302c 	strb.w	r3, [r5, #44]	; 0x2c
 8003bac:	4b4e      	ldr	r3, [pc, #312]	; (8003ce8 <HAL_RTC_SetAlarm_IT+0x154>)
 8003bae:	f885 002d 	strb.w	r0, [r5, #45]	; 0x2d
 8003bb2:	68de      	ldr	r6, [r3, #12]
 8003bb4:	f406 7640 	and.w	r6, r6, #768	; 0x300
 8003bb8:	f5b6 7f80 	cmp.w	r6, #256	; 0x100
 8003bbc:	d078      	beq.n	8003cb0 <HAL_RTC_SetAlarm_IT+0x11c>
 8003bbe:	694c      	ldr	r4, [r1, #20]
 8003bc0:	7808      	ldrb	r0, [r1, #0]
 8003bc2:	f891 8001 	ldrb.w	r8, [r1, #1]
 8003bc6:	f891 a002 	ldrb.w	sl, [r1, #2]
 8003bca:	f891 7024 	ldrb.w	r7, [r1, #36]	; 0x24
 8003bce:	2a00      	cmp	r2, #0
 8003bd0:	d155      	bne.n	8003c7e <HAL_RTC_SetAlarm_IT+0xea>
 8003bd2:	699a      	ldr	r2, [r3, #24]
 8003bd4:	f012 0240 	ands.w	r2, r2, #64	; 0x40
 8003bd8:	bf08      	it	eq
 8003bda:	70ca      	strbeq	r2, [r1, #3]
 8003bdc:	f7ff ffce 	bl	8003b7c <RTC_ByteToBcd2>
 8003be0:	4681      	mov	r9, r0
 8003be2:	4640      	mov	r0, r8
 8003be4:	f7ff ffca 	bl	8003b7c <RTC_ByteToBcd2>
 8003be8:	4680      	mov	r8, r0
 8003bea:	4650      	mov	r0, sl
 8003bec:	f7ff ffc6 	bl	8003b7c <RTC_ByteToBcd2>
 8003bf0:	4682      	mov	sl, r0
 8003bf2:	4638      	mov	r0, r7
 8003bf4:	f7ff ffc2 	bl	8003b7c <RTC_ByteToBcd2>
 8003bf8:	6a0a      	ldr	r2, [r1, #32]
 8003bfa:	78cb      	ldrb	r3, [r1, #3]
 8003bfc:	4322      	orrs	r2, r4
 8003bfe:	ea42 5283 	orr.w	r2, r2, r3, lsl #22
 8003c02:	ea42 030a 	orr.w	r3, r2, sl
 8003c06:	ea43 4309 	orr.w	r3, r3, r9, lsl #16
 8003c0a:	ea43 2308 	orr.w	r3, r3, r8, lsl #8
 8003c0e:	ea43 6300 	orr.w	r3, r3, r0, lsl #24
 8003c12:	4a35      	ldr	r2, [pc, #212]	; (8003ce8 <HAL_RTC_SetAlarm_IT+0x154>)
 8003c14:	20ca      	movs	r0, #202	; 0xca
 8003c16:	6250      	str	r0, [r2, #36]	; 0x24
 8003c18:	2053      	movs	r0, #83	; 0x53
 8003c1a:	6250      	str	r0, [r2, #36]	; 0x24
 8003c1c:	6a8c      	ldr	r4, [r1, #40]	; 0x28
 8003c1e:	6988      	ldr	r0, [r1, #24]
 8003c20:	f5b4 7f80 	cmp.w	r4, #256	; 0x100
 8003c24:	6994      	ldr	r4, [r2, #24]
 8003c26:	d145      	bne.n	8003cb4 <HAL_RTC_SetAlarm_IT+0x120>
 8003c28:	f424 5488 	bic.w	r4, r4, #4352	; 0x1100
 8003c2c:	6194      	str	r4, [r2, #24]
 8003c2e:	2401      	movs	r4, #1
 8003c30:	65d4      	str	r4, [r2, #92]	; 0x5c
 8003c32:	f5b6 7f80 	cmp.w	r6, #256	; 0x100
 8003c36:	bf09      	itett	eq
 8003c38:	69cb      	ldreq	r3, [r1, #28]
 8003c3a:	6413      	strne	r3, [r2, #64]	; 0x40
 8003c3c:	4303      	orreq	r3, r0
 8003c3e:	6453      	streq	r3, [r2, #68]	; 0x44
 8003c40:	bf18      	it	ne
 8003c42:	6450      	strne	r0, [r2, #68]	; 0x44
 8003c44:	4b28      	ldr	r3, [pc, #160]	; (8003ce8 <HAL_RTC_SetAlarm_IT+0x154>)
 8003c46:	684a      	ldr	r2, [r1, #4]
 8003c48:	671a      	str	r2, [r3, #112]	; 0x70
 8003c4a:	6b2a      	ldr	r2, [r5, #48]	; 0x30
 8003c4c:	f042 0201 	orr.w	r2, r2, #1
 8003c50:	632a      	str	r2, [r5, #48]	; 0x30
 8003c52:	699a      	ldr	r2, [r3, #24]
 8003c54:	f442 5288 	orr.w	r2, r2, #4352	; 0x1100
 8003c58:	619a      	str	r2, [r3, #24]
 8003c5a:	4a24      	ldr	r2, [pc, #144]	; (8003cec <HAL_RTC_SetAlarm_IT+0x158>)
 8003c5c:	f8d2 3080 	ldr.w	r3, [r2, #128]	; 0x80
 8003c60:	f443 3300 	orr.w	r3, r3, #131072	; 0x20000
 8003c64:	f8c2 3080 	str.w	r3, [r2, #128]	; 0x80
 8003c68:	4b1f      	ldr	r3, [pc, #124]	; (8003ce8 <HAL_RTC_SetAlarm_IT+0x154>)
 8003c6a:	22ff      	movs	r2, #255	; 0xff
 8003c6c:	625a      	str	r2, [r3, #36]	; 0x24
 8003c6e:	2000      	movs	r0, #0
 8003c70:	2301      	movs	r3, #1
 8003c72:	f885 302d 	strb.w	r3, [r5, #45]	; 0x2d
 8003c76:	f885 002c 	strb.w	r0, [r5, #44]	; 0x2c
 8003c7a:	e8bd 87f0 	ldmia.w	sp!, {r4, r5, r6, r7, r8, r9, sl, pc}
 8003c7e:	f1b4 3f80 	cmp.w	r4, #2155905152	; 0x80808080
 8003c82:	d007      	beq.n	8003c94 <HAL_RTC_SetAlarm_IT+0x100>
 8003c84:	f5b4 0f00 	cmp.w	r4, #8388608	; 0x800000
 8003c88:	d004      	beq.n	8003c94 <HAL_RTC_SetAlarm_IT+0x100>
 8003c8a:	699a      	ldr	r2, [r3, #24]
 8003c8c:	f012 0240 	ands.w	r2, r2, #64	; 0x40
 8003c90:	bf08      	it	eq
 8003c92:	70ca      	strbeq	r2, [r1, #3]
 8003c94:	6a0a      	ldr	r2, [r1, #32]
 8003c96:	4314      	orrs	r4, r2
 8003c98:	ea44 040a 	orr.w	r4, r4, sl
 8003c9c:	ea44 4300 	orr.w	r3, r4, r0, lsl #16
 8003ca0:	78c8      	ldrb	r0, [r1, #3]
 8003ca2:	ea43 2308 	orr.w	r3, r3, r8, lsl #8
 8003ca6:	ea43 5380 	orr.w	r3, r3, r0, lsl #22
 8003caa:	ea43 6307 	orr.w	r3, r3, r7, lsl #24
 8003cae:	e7b0      	b.n	8003c12 <HAL_RTC_SetAlarm_IT+0x7e>
 8003cb0:	2300      	movs	r3, #0
 8003cb2:	e7ae      	b.n	8003c12 <HAL_RTC_SetAlarm_IT+0x7e>
 8003cb4:	f424 5408 	bic.w	r4, r4, #8704	; 0x2200
 8003cb8:	6194      	str	r4, [r2, #24]
 8003cba:	2402      	movs	r4, #2
 8003cbc:	65d4      	str	r4, [r2, #92]	; 0x5c
 8003cbe:	f5b6 7f80 	cmp.w	r6, #256	; 0x100
 8003cc2:	bf09      	itett	eq
 8003cc4:	69cb      	ldreq	r3, [r1, #28]
 8003cc6:	6493      	strne	r3, [r2, #72]	; 0x48
 8003cc8:	4303      	orreq	r3, r0
 8003cca:	64d3      	streq	r3, [r2, #76]	; 0x4c
 8003ccc:	bf18      	it	ne
 8003cce:	64d0      	strne	r0, [r2, #76]	; 0x4c
 8003cd0:	4b05      	ldr	r3, [pc, #20]	; (8003ce8 <HAL_RTC_SetAlarm_IT+0x154>)
 8003cd2:	684a      	ldr	r2, [r1, #4]
 8003cd4:	675a      	str	r2, [r3, #116]	; 0x74
 8003cd6:	6b2a      	ldr	r2, [r5, #48]	; 0x30
 8003cd8:	f042 0202 	orr.w	r2, r2, #2
 8003cdc:	632a      	str	r2, [r5, #48]	; 0x30
 8003cde:	699a      	ldr	r2, [r3, #24]
 8003ce0:	f442 5208 	orr.w	r2, r2, #8704	; 0x2200
 8003ce4:	e7b8      	b.n	8003c58 <HAL_RTC_SetAlarm_IT+0xc4>
 8003ce6:	bf00      	nop
 8003ce8:	40002800 	.word	0x40002800
 8003cec:	58000800 	.word	0x58000800

08003cf0 <HAL_RTCEx_EnableBypassShadow>:
 8003cf0:	f890 202c 	ldrb.w	r2, [r0, #44]	; 0x2c
 8003cf4:	2a01      	cmp	r2, #1
 8003cf6:	4603      	mov	r3, r0
 8003cf8:	f04f 0002 	mov.w	r0, #2
 8003cfc:	d012      	beq.n	8003d24 <HAL_RTCEx_EnableBypassShadow+0x34>
 8003cfe:	4a0a      	ldr	r2, [pc, #40]	; (8003d28 <HAL_RTCEx_EnableBypassShadow+0x38>)
 8003d00:	f883 002d 	strb.w	r0, [r3, #45]	; 0x2d
 8003d04:	21ca      	movs	r1, #202	; 0xca
 8003d06:	6251      	str	r1, [r2, #36]	; 0x24
 8003d08:	2153      	movs	r1, #83	; 0x53
 8003d0a:	6251      	str	r1, [r2, #36]	; 0x24
 8003d0c:	6991      	ldr	r1, [r2, #24]
 8003d0e:	f041 0120 	orr.w	r1, r1, #32
 8003d12:	6191      	str	r1, [r2, #24]
 8003d14:	21ff      	movs	r1, #255	; 0xff
 8003d16:	6251      	str	r1, [r2, #36]	; 0x24
 8003d18:	2000      	movs	r0, #0
 8003d1a:	2201      	movs	r2, #1
 8003d1c:	f883 202d 	strb.w	r2, [r3, #45]	; 0x2d
 8003d20:	f883 002c 	strb.w	r0, [r3, #44]	; 0x2c
 8003d24:	4770      	bx	lr
 8003d26:	bf00      	nop
 8003d28:	40002800 	.word	0x40002800

08003d2c <HAL_RTCEx_SetSSRU_IT>:
 8003d2c:	f890 202c 	ldrb.w	r2, [r0, #44]	; 0x2c
 8003d30:	2a01      	cmp	r2, #1
 8003d32:	4603      	mov	r3, r0
 8003d34:	f04f 0002 	mov.w	r0, #2
 8003d38:	d019      	beq.n	8003d6e <HAL_RTCEx_SetSSRU_IT+0x42>
 8003d3a:	4a0d      	ldr	r2, [pc, #52]	; (8003d70 <HAL_RTCEx_SetSSRU_IT+0x44>)
 8003d3c:	f883 002d 	strb.w	r0, [r3, #45]	; 0x2d
 8003d40:	21ca      	movs	r1, #202	; 0xca
 8003d42:	6251      	str	r1, [r2, #36]	; 0x24
 8003d44:	2153      	movs	r1, #83	; 0x53
 8003d46:	6251      	str	r1, [r2, #36]	; 0x24
 8003d48:	6991      	ldr	r1, [r2, #24]
 8003d4a:	480a      	ldr	r0, [pc, #40]	; (8003d74 <HAL_RTCEx_SetSSRU_IT+0x48>)
 8003d4c:	f041 0180 	orr.w	r1, r1, #128	; 0x80
 8003d50:	6191      	str	r1, [r2, #24]
 8003d52:	f8d0 1080 	ldr.w	r1, [r0, #128]	; 0x80
 8003d56:	f441 2180 	orr.w	r1, r1, #262144	; 0x40000
 8003d5a:	f8c0 1080 	str.w	r1, [r0, #128]	; 0x80
 8003d5e:	21ff      	movs	r1, #255	; 0xff
 8003d60:	6251      	str	r1, [r2, #36]	; 0x24
 8003d62:	2000      	movs	r0, #0
 8003d64:	2201      	movs	r2, #1
 8003d66:	f883 202d 	strb.w	r2, [r3, #45]	; 0x2d
 8003d6a:	f883 002c 	strb.w	r0, [r3, #44]	; 0x2c
 8003d6e:	4770      	bx	lr
 8003d70:	40002800 	.word	0x40002800
 8003d74:	58000800 	.word	0x58000800

08003d78 <HAL_RTCEx_SSRUIRQHandler>:
 8003d78:	4b06      	ldr	r3, [pc, #24]	; (8003d94 <HAL_RTCEx_SSRUIRQHandler+0x1c>)
 8003d7a:	6d5a      	ldr	r2, [r3, #84]	; 0x54
 8003d7c:	0652      	lsls	r2, r2, #25
 8003d7e:	b510      	push	{r4, lr}
 8003d80:	4604      	mov	r4, r0
 8003d82:	d503      	bpl.n	8003d8c <HAL_RTCEx_SSRUIRQHandler+0x14>
 8003d84:	2240      	movs	r2, #64	; 0x40
 8003d86:	65da      	str	r2, [r3, #92]	; 0x5c
 8003d88:	f7fd fd04 	bl	8001794 <HAL_RTCEx_SSRUEventCallback>
 8003d8c:	2301      	movs	r3, #1
 8003d8e:	f884 302d 	strb.w	r3, [r4, #45]	; 0x2d
 8003d92:	bd10      	pop	{r4, pc}
 8003d94:	40002800 	.word	0x40002800

08003d98 <HAL_RTCEx_AlarmBEventCallback>:
 8003d98:	4770      	bx	lr

08003d9a <HAL_RTCEx_BKUPWrite>:
 8003d9a:	0089      	lsls	r1, r1, #2
 8003d9c:	f101 4180 	add.w	r1, r1, #1073741824	; 0x40000000
 8003da0:	f501 4131 	add.w	r1, r1, #45312	; 0xb100
 8003da4:	600a      	str	r2, [r1, #0]
 8003da6:	4770      	bx	lr

08003da8 <HAL_RTCEx_BKUPRead>:
 8003da8:	0089      	lsls	r1, r1, #2
 8003daa:	f101 4180 	add.w	r1, r1, #1073741824	; 0x40000000
 8003dae:	f501 4131 	add.w	r1, r1, #45312	; 0xb100
 8003db2:	6808      	ldr	r0, [r1, #0]
 8003db4:	4770      	bx	lr
	...

08003db8 <LL_PWR_UnselectSUBGHZSPI_NSS>:
 8003db8:	4a03      	ldr	r2, [pc, #12]	; (8003dc8 <LL_PWR_UnselectSUBGHZSPI_NSS+0x10>)
 8003dba:	f8d2 3090 	ldr.w	r3, [r2, #144]	; 0x90
 8003dbe:	f443 4300 	orr.w	r3, r3, #32768	; 0x8000
 8003dc2:	f8c2 3090 	str.w	r3, [r2, #144]	; 0x90
 8003dc6:	4770      	bx	lr
 8003dc8:	58000400 	.word	0x58000400

08003dcc <LL_PWR_SelectSUBGHZSPI_NSS>:
 8003dcc:	4a03      	ldr	r2, [pc, #12]	; (8003ddc <LL_PWR_SelectSUBGHZSPI_NSS+0x10>)
 8003dce:	f8d2 3090 	ldr.w	r3, [r2, #144]	; 0x90
 8003dd2:	f423 4300 	bic.w	r3, r3, #32768	; 0x8000
 8003dd6:	f8c2 3090 	str.w	r3, [r2, #144]	; 0x90
 8003dda:	4770      	bx	lr
 8003ddc:	58000400 	.word	0x58000400

08003de0 <SUBGHZSPI_Init>:
 8003de0:	4b07      	ldr	r3, [pc, #28]	; (8003e00 <SUBGHZSPI_Init+0x20>)
 8003de2:	681a      	ldr	r2, [r3, #0]
 8003de4:	f022 0240 	bic.w	r2, r2, #64	; 0x40
 8003de8:	601a      	str	r2, [r3, #0]
 8003dea:	f440 7041 	orr.w	r0, r0, #772	; 0x304
 8003dee:	f44f 52b8 	mov.w	r2, #5888	; 0x1700
 8003df2:	6018      	str	r0, [r3, #0]
 8003df4:	605a      	str	r2, [r3, #4]
 8003df6:	681a      	ldr	r2, [r3, #0]
 8003df8:	f042 0240 	orr.w	r2, r2, #64	; 0x40
 8003dfc:	601a      	str	r2, [r3, #0]
 8003dfe:	4770      	bx	lr
 8003e00:	58010000 	.word	0x58010000

08003e04 <HAL_SUBGHZ_Init>:
 8003e04:	b513      	push	{r0, r1, r4, lr}
 8003e06:	4604      	mov	r4, r0
 8003e08:	2800      	cmp	r0, #0
 8003e0a:	d042      	beq.n	8003e92 <HAL_SUBGHZ_Init+0x8e>
 8003e0c:	7983      	ldrb	r3, [r0, #6]
 8003e0e:	f003 02ff 	and.w	r2, r3, #255	; 0xff
 8003e12:	b913      	cbnz	r3, 8003e1a <HAL_SUBGHZ_Init+0x16>
 8003e14:	7142      	strb	r2, [r0, #5]
 8003e16:	f7fd fabd 	bl	8001394 <HAL_SUBGHZ_MspInit>
 8003e1a:	2302      	movs	r3, #2
 8003e1c:	f04f 42b0 	mov.w	r2, #1476395008	; 0x58000000
 8003e20:	71a3      	strb	r3, [r4, #6]
 8003e22:	f8d2 3094 	ldr.w	r3, [r2, #148]	; 0x94
 8003e26:	f423 4300 	bic.w	r3, r3, #32768	; 0x8000
 8003e2a:	f8c2 3094 	str.w	r3, [r2, #148]	; 0x94
 8003e2e:	4b1a      	ldr	r3, [pc, #104]	; (8003e98 <HAL_SUBGHZ_Init+0x94>)
 8003e30:	681b      	ldr	r3, [r3, #0]
 8003e32:	211c      	movs	r1, #28
 8003e34:	434b      	muls	r3, r1
 8003e36:	0cdb      	lsrs	r3, r3, #19
 8003e38:	2164      	movs	r1, #100	; 0x64
 8003e3a:	434b      	muls	r3, r1
 8003e3c:	9301      	str	r3, [sp, #4]
 8003e3e:	9b01      	ldr	r3, [sp, #4]
 8003e40:	b9f3      	cbnz	r3, 8003e80 <HAL_SUBGHZ_Init+0x7c>
 8003e42:	2101      	movs	r1, #1
 8003e44:	60a1      	str	r1, [r4, #8]
 8003e46:	f7ff ffb7 	bl	8003db8 <LL_PWR_UnselectSUBGHZSPI_NSS>
 8003e4a:	4a14      	ldr	r2, [pc, #80]	; (8003e9c <HAL_SUBGHZ_Init+0x98>)
 8003e4c:	f8d2 3090 	ldr.w	r3, [r2, #144]	; 0x90
 8003e50:	f443 5380 	orr.w	r3, r3, #4096	; 0x1000
 8003e54:	f8c2 3090 	str.w	r3, [r2, #144]	; 0x90
 8003e58:	4b11      	ldr	r3, [pc, #68]	; (8003ea0 <HAL_SUBGHZ_Init+0x9c>)
 8003e5a:	689a      	ldr	r2, [r3, #8]
 8003e5c:	f442 6200 	orr.w	r2, r2, #2048	; 0x800
 8003e60:	609a      	str	r2, [r3, #8]
 8003e62:	f44f 6200 	mov.w	r2, #2048	; 0x800
 8003e66:	619a      	str	r2, [r3, #24]
 8003e68:	b929      	cbnz	r1, 8003e76 <HAL_SUBGHZ_Init+0x72>
 8003e6a:	6820      	ldr	r0, [r4, #0]
 8003e6c:	f7ff ffb8 	bl	8003de0 <SUBGHZSPI_Init>
 8003e70:	2301      	movs	r3, #1
 8003e72:	7123      	strb	r3, [r4, #4]
 8003e74:	60a1      	str	r1, [r4, #8]
 8003e76:	2301      	movs	r3, #1
 8003e78:	71a3      	strb	r3, [r4, #6]
 8003e7a:	4608      	mov	r0, r1
 8003e7c:	b002      	add	sp, #8
 8003e7e:	bd10      	pop	{r4, pc}
 8003e80:	9b01      	ldr	r3, [sp, #4]
 8003e82:	3b01      	subs	r3, #1
 8003e84:	9301      	str	r3, [sp, #4]
 8003e86:	f8d2 1094 	ldr.w	r1, [r2, #148]	; 0x94
 8003e8a:	f411 4180 	ands.w	r1, r1, #16384	; 0x4000
 8003e8e:	d1d6      	bne.n	8003e3e <HAL_SUBGHZ_Init+0x3a>
 8003e90:	e7d9      	b.n	8003e46 <HAL_SUBGHZ_Init+0x42>
 8003e92:	2101      	movs	r1, #1
 8003e94:	e7f1      	b.n	8003e7a <HAL_SUBGHZ_Init+0x76>
 8003e96:	bf00      	nop
 8003e98:	20000000 	.word	0x20000000
 8003e9c:	58000800 	.word	0x58000800
 8003ea0:	58000400 	.word	0x58000400

08003ea4 <SUBGHZSPI_Transmit>:
 8003ea4:	b537      	push	{r0, r1, r2, r4, r5, lr}
 8003ea6:	4d17      	ldr	r5, [pc, #92]	; (8003f04 <SUBGHZSPI_Transmit+0x60>)
 8003ea8:	682b      	ldr	r3, [r5, #0]
 8003eaa:	4602      	mov	r2, r0
 8003eac:	201c      	movs	r0, #28
 8003eae:	4343      	muls	r3, r0
 8003eb0:	0cdb      	lsrs	r3, r3, #19
 8003eb2:	2064      	movs	r0, #100	; 0x64
 8003eb4:	4343      	muls	r3, r0
 8003eb6:	4814      	ldr	r0, [pc, #80]	; (8003f08 <SUBGHZSPI_Transmit+0x64>)
 8003eb8:	9301      	str	r3, [sp, #4]
 8003eba:	9b01      	ldr	r3, [sp, #4]
 8003ebc:	b993      	cbnz	r3, 8003ee4 <SUBGHZSPI_Transmit+0x40>
 8003ebe:	2001      	movs	r0, #1
 8003ec0:	6090      	str	r0, [r2, #8]
 8003ec2:	4c11      	ldr	r4, [pc, #68]	; (8003f08 <SUBGHZSPI_Transmit+0x64>)
 8003ec4:	7321      	strb	r1, [r4, #12]
 8003ec6:	682b      	ldr	r3, [r5, #0]
 8003ec8:	211c      	movs	r1, #28
 8003eca:	434b      	muls	r3, r1
 8003ecc:	0cdb      	lsrs	r3, r3, #19
 8003ece:	2164      	movs	r1, #100	; 0x64
 8003ed0:	434b      	muls	r3, r1
 8003ed2:	9301      	str	r3, [sp, #4]
 8003ed4:	9b01      	ldr	r3, [sp, #4]
 8003ed6:	b96b      	cbnz	r3, 8003ef4 <SUBGHZSPI_Transmit+0x50>
 8003ed8:	2001      	movs	r0, #1
 8003eda:	6090      	str	r0, [r2, #8]
 8003edc:	4b0a      	ldr	r3, [pc, #40]	; (8003f08 <SUBGHZSPI_Transmit+0x64>)
 8003ede:	68db      	ldr	r3, [r3, #12]
 8003ee0:	b003      	add	sp, #12
 8003ee2:	bd30      	pop	{r4, r5, pc}
 8003ee4:	9b01      	ldr	r3, [sp, #4]
 8003ee6:	3b01      	subs	r3, #1
 8003ee8:	9301      	str	r3, [sp, #4]
 8003eea:	6883      	ldr	r3, [r0, #8]
 8003eec:	079c      	lsls	r4, r3, #30
 8003eee:	d5e4      	bpl.n	8003eba <SUBGHZSPI_Transmit+0x16>
 8003ef0:	2000      	movs	r0, #0
 8003ef2:	e7e6      	b.n	8003ec2 <SUBGHZSPI_Transmit+0x1e>
 8003ef4:	9b01      	ldr	r3, [sp, #4]
 8003ef6:	3b01      	subs	r3, #1
 8003ef8:	9301      	str	r3, [sp, #4]
 8003efa:	68a3      	ldr	r3, [r4, #8]
 8003efc:	07db      	lsls	r3, r3, #31
 8003efe:	d5e9      	bpl.n	8003ed4 <SUBGHZSPI_Transmit+0x30>
 8003f00:	e7ec      	b.n	8003edc <SUBGHZSPI_Transmit+0x38>
 8003f02:	bf00      	nop
 8003f04:	20000000 	.word	0x20000000
 8003f08:	58010000 	.word	0x58010000

08003f0c <SUBGHZSPI_Receive>:
 8003f0c:	b537      	push	{r0, r1, r2, r4, r5, lr}
 8003f0e:	4d18      	ldr	r5, [pc, #96]	; (8003f70 <SUBGHZSPI_Receive+0x64>)
 8003f10:	682b      	ldr	r3, [r5, #0]
 8003f12:	4602      	mov	r2, r0
 8003f14:	201c      	movs	r0, #28
 8003f16:	4343      	muls	r3, r0
 8003f18:	0cdb      	lsrs	r3, r3, #19
 8003f1a:	2064      	movs	r0, #100	; 0x64
 8003f1c:	4343      	muls	r3, r0
 8003f1e:	4815      	ldr	r0, [pc, #84]	; (8003f74 <SUBGHZSPI_Receive+0x68>)
 8003f20:	9301      	str	r3, [sp, #4]
 8003f22:	9b01      	ldr	r3, [sp, #4]
 8003f24:	b9a3      	cbnz	r3, 8003f50 <SUBGHZSPI_Receive+0x44>
 8003f26:	2001      	movs	r0, #1
 8003f28:	6090      	str	r0, [r2, #8]
 8003f2a:	4c12      	ldr	r4, [pc, #72]	; (8003f74 <SUBGHZSPI_Receive+0x68>)
 8003f2c:	23ff      	movs	r3, #255	; 0xff
 8003f2e:	7323      	strb	r3, [r4, #12]
 8003f30:	682b      	ldr	r3, [r5, #0]
 8003f32:	251c      	movs	r5, #28
 8003f34:	436b      	muls	r3, r5
 8003f36:	0cdb      	lsrs	r3, r3, #19
 8003f38:	2564      	movs	r5, #100	; 0x64
 8003f3a:	436b      	muls	r3, r5
 8003f3c:	9301      	str	r3, [sp, #4]
 8003f3e:	9b01      	ldr	r3, [sp, #4]
 8003f40:	b973      	cbnz	r3, 8003f60 <SUBGHZSPI_Receive+0x54>
 8003f42:	2001      	movs	r0, #1
 8003f44:	6090      	str	r0, [r2, #8]
 8003f46:	4b0b      	ldr	r3, [pc, #44]	; (8003f74 <SUBGHZSPI_Receive+0x68>)
 8003f48:	68db      	ldr	r3, [r3, #12]
 8003f4a:	700b      	strb	r3, [r1, #0]
 8003f4c:	b003      	add	sp, #12
 8003f4e:	bd30      	pop	{r4, r5, pc}
 8003f50:	9b01      	ldr	r3, [sp, #4]
 8003f52:	3b01      	subs	r3, #1
 8003f54:	9301      	str	r3, [sp, #4]
 8003f56:	6883      	ldr	r3, [r0, #8]
 8003f58:	079c      	lsls	r4, r3, #30
 8003f5a:	d5e2      	bpl.n	8003f22 <SUBGHZSPI_Receive+0x16>
 8003f5c:	2000      	movs	r0, #0
 8003f5e:	e7e4      	b.n	8003f2a <SUBGHZSPI_Receive+0x1e>
 8003f60:	9b01      	ldr	r3, [sp, #4]
 8003f62:	3b01      	subs	r3, #1
 8003f64:	9301      	str	r3, [sp, #4]
 8003f66:	68a3      	ldr	r3, [r4, #8]
 8003f68:	07db      	lsls	r3, r3, #31
 8003f6a:	d5e8      	bpl.n	8003f3e <SUBGHZSPI_Receive+0x32>
 8003f6c:	e7eb      	b.n	8003f46 <SUBGHZSPI_Receive+0x3a>
 8003f6e:	bf00      	nop
 8003f70:	20000000 	.word	0x20000000
 8003f74:	58010000 	.word	0x58010000

08003f78 <SUBGHZ_WaitOnBusy>:
 8003f78:	4b0f      	ldr	r3, [pc, #60]	; (8003fb8 <SUBGHZ_WaitOnBusy+0x40>)
 8003f7a:	b513      	push	{r0, r1, r4, lr}
 8003f7c:	681b      	ldr	r3, [r3, #0]
 8003f7e:	4c0f      	ldr	r4, [pc, #60]	; (8003fbc <SUBGHZ_WaitOnBusy+0x44>)
 8003f80:	2218      	movs	r2, #24
 8003f82:	4353      	muls	r3, r2
 8003f84:	0d1b      	lsrs	r3, r3, #20
 8003f86:	2264      	movs	r2, #100	; 0x64
 8003f88:	4353      	muls	r3, r2
 8003f8a:	4601      	mov	r1, r0
 8003f8c:	9301      	str	r3, [sp, #4]
 8003f8e:	6962      	ldr	r2, [r4, #20]
 8003f90:	9b01      	ldr	r3, [sp, #4]
 8003f92:	f002 0204 	and.w	r2, r2, #4
 8003f96:	b923      	cbnz	r3, 8003fa2 <SUBGHZ_WaitOnBusy+0x2a>
 8003f98:	2302      	movs	r3, #2
 8003f9a:	608b      	str	r3, [r1, #8]
 8003f9c:	2001      	movs	r0, #1
 8003f9e:	b002      	add	sp, #8
 8003fa0:	bd10      	pop	{r4, pc}
 8003fa2:	9b01      	ldr	r3, [sp, #4]
 8003fa4:	3b01      	subs	r3, #1
 8003fa6:	9301      	str	r3, [sp, #4]
 8003fa8:	6960      	ldr	r0, [r4, #20]
 8003faa:	f010 0002 	ands.w	r0, r0, #2
 8003fae:	d0f6      	beq.n	8003f9e <SUBGHZ_WaitOnBusy+0x26>
 8003fb0:	2a00      	cmp	r2, #0
 8003fb2:	d1ec      	bne.n	8003f8e <SUBGHZ_WaitOnBusy+0x16>
 8003fb4:	4610      	mov	r0, r2
 8003fb6:	e7f2      	b.n	8003f9e <SUBGHZ_WaitOnBusy+0x26>
 8003fb8:	20000000 	.word	0x20000000
 8003fbc:	58000400 	.word	0x58000400

08003fc0 <SUBGHZ_CheckDeviceReady>:
 8003fc0:	b507      	push	{r0, r1, r2, lr}
 8003fc2:	7903      	ldrb	r3, [r0, #4]
 8003fc4:	2b01      	cmp	r3, #1
 8003fc6:	d10f      	bne.n	8003fe8 <SUBGHZ_CheckDeviceReady+0x28>
 8003fc8:	4b0a      	ldr	r3, [pc, #40]	; (8003ff4 <SUBGHZ_CheckDeviceReady+0x34>)
 8003fca:	681b      	ldr	r3, [r3, #0]
 8003fcc:	2218      	movs	r2, #24
 8003fce:	4353      	muls	r3, r2
 8003fd0:	0c1b      	lsrs	r3, r3, #16
 8003fd2:	9301      	str	r3, [sp, #4]
 8003fd4:	f7ff fefa 	bl	8003dcc <LL_PWR_SelectSUBGHZSPI_NSS>
 8003fd8:	9b01      	ldr	r3, [sp, #4]
 8003fda:	3b01      	subs	r3, #1
 8003fdc:	9301      	str	r3, [sp, #4]
 8003fde:	9b01      	ldr	r3, [sp, #4]
 8003fe0:	2b00      	cmp	r3, #0
 8003fe2:	d1f9      	bne.n	8003fd8 <SUBGHZ_CheckDeviceReady+0x18>
 8003fe4:	f7ff fee8 	bl	8003db8 <LL_PWR_UnselectSUBGHZSPI_NSS>
 8003fe8:	b003      	add	sp, #12
 8003fea:	f85d eb04 	ldr.w	lr, [sp], #4
 8003fee:	f7ff bfc3 	b.w	8003f78 <SUBGHZ_WaitOnBusy>
 8003ff2:	bf00      	nop
 8003ff4:	20000000 	.word	0x20000000

08003ff8 <HAL_SUBGHZ_WriteRegisters>:
 8003ff8:	b5f8      	push	{r3, r4, r5, r6, r7, lr}
 8003ffa:	461e      	mov	r6, r3
 8003ffc:	7983      	ldrb	r3, [r0, #6]
 8003ffe:	2b01      	cmp	r3, #1
 8004000:	4615      	mov	r5, r2
 8004002:	4604      	mov	r4, r0
 8004004:	460f      	mov	r7, r1
 8004006:	b2da      	uxtb	r2, r3
 8004008:	d12d      	bne.n	8004066 <HAL_SUBGHZ_WriteRegisters+0x6e>
 800400a:	7943      	ldrb	r3, [r0, #5]
 800400c:	2b01      	cmp	r3, #1
 800400e:	d02a      	beq.n	8004066 <HAL_SUBGHZ_WriteRegisters+0x6e>
 8004010:	2302      	movs	r3, #2
 8004012:	7142      	strb	r2, [r0, #5]
 8004014:	7183      	strb	r3, [r0, #6]
 8004016:	f7ff ffd3 	bl	8003fc0 <SUBGHZ_CheckDeviceReady>
 800401a:	210d      	movs	r1, #13
 800401c:	4620      	mov	r0, r4
 800401e:	f7ff fed5 	bl	8003dcc <LL_PWR_SelectSUBGHZSPI_NSS>
 8004022:	f7ff ff3f 	bl	8003ea4 <SUBGHZSPI_Transmit>
 8004026:	0a39      	lsrs	r1, r7, #8
 8004028:	4620      	mov	r0, r4
 800402a:	f7ff ff3b 	bl	8003ea4 <SUBGHZSPI_Transmit>
 800402e:	b2f9      	uxtb	r1, r7
 8004030:	4620      	mov	r0, r4
 8004032:	f7ff ff37 	bl	8003ea4 <SUBGHZSPI_Transmit>
 8004036:	442e      	add	r6, r5
 8004038:	42b5      	cmp	r5, r6
 800403a:	d10e      	bne.n	800405a <HAL_SUBGHZ_WriteRegisters+0x62>
 800403c:	4620      	mov	r0, r4
 800403e:	f7ff febb 	bl	8003db8 <LL_PWR_UnselectSUBGHZSPI_NSS>
 8004042:	f7ff ff99 	bl	8003f78 <SUBGHZ_WaitOnBusy>
 8004046:	68a0      	ldr	r0, [r4, #8]
 8004048:	2301      	movs	r3, #1
 800404a:	3800      	subs	r0, #0
 800404c:	71a3      	strb	r3, [r4, #6]
 800404e:	f04f 0300 	mov.w	r3, #0
 8004052:	bf18      	it	ne
 8004054:	2001      	movne	r0, #1
 8004056:	7163      	strb	r3, [r4, #5]
 8004058:	bdf8      	pop	{r3, r4, r5, r6, r7, pc}
 800405a:	f815 1b01 	ldrb.w	r1, [r5], #1
 800405e:	4620      	mov	r0, r4
 8004060:	f7ff ff20 	bl	8003ea4 <SUBGHZSPI_Transmit>
 8004064:	e7e8      	b.n	8004038 <HAL_SUBGHZ_WriteRegisters+0x40>
 8004066:	2002      	movs	r0, #2
 8004068:	e7f6      	b.n	8004058 <HAL_SUBGHZ_WriteRegisters+0x60>

0800406a <HAL_SUBGHZ_ReadRegisters>:
 800406a:	b5f8      	push	{r3, r4, r5, r6, r7, lr}
 800406c:	461e      	mov	r6, r3
 800406e:	7983      	ldrb	r3, [r0, #6]
 8004070:	2b01      	cmp	r3, #1
 8004072:	4615      	mov	r5, r2
 8004074:	4604      	mov	r4, r0
 8004076:	460f      	mov	r7, r1
 8004078:	b2da      	uxtb	r2, r3
 800407a:	d12f      	bne.n	80040dc <HAL_SUBGHZ_ReadRegisters+0x72>
 800407c:	7943      	ldrb	r3, [r0, #5]
 800407e:	2b01      	cmp	r3, #1
 8004080:	d02c      	beq.n	80040dc <HAL_SUBGHZ_ReadRegisters+0x72>
 8004082:	7142      	strb	r2, [r0, #5]
 8004084:	f7ff ff9c 	bl	8003fc0 <SUBGHZ_CheckDeviceReady>
 8004088:	211d      	movs	r1, #29
 800408a:	4620      	mov	r0, r4
 800408c:	f7ff fe9e 	bl	8003dcc <LL_PWR_SelectSUBGHZSPI_NSS>
 8004090:	f7ff ff08 	bl	8003ea4 <SUBGHZSPI_Transmit>
 8004094:	0a39      	lsrs	r1, r7, #8
 8004096:	4620      	mov	r0, r4
 8004098:	f7ff ff04 	bl	8003ea4 <SUBGHZSPI_Transmit>
 800409c:	b2f9      	uxtb	r1, r7
 800409e:	4620      	mov	r0, r4
 80040a0:	f7ff ff00 	bl	8003ea4 <SUBGHZSPI_Transmit>
 80040a4:	2100      	movs	r1, #0
 80040a6:	4620      	mov	r0, r4
 80040a8:	f7ff fefc 	bl	8003ea4 <SUBGHZSPI_Transmit>
 80040ac:	442e      	add	r6, r5
 80040ae:	42b5      	cmp	r5, r6
 80040b0:	d10e      	bne.n	80040d0 <HAL_SUBGHZ_ReadRegisters+0x66>
 80040b2:	4620      	mov	r0, r4
 80040b4:	f7ff fe80 	bl	8003db8 <LL_PWR_UnselectSUBGHZSPI_NSS>
 80040b8:	f7ff ff5e 	bl	8003f78 <SUBGHZ_WaitOnBusy>
 80040bc:	68a0      	ldr	r0, [r4, #8]
 80040be:	2301      	movs	r3, #1
 80040c0:	3800      	subs	r0, #0
 80040c2:	71a3      	strb	r3, [r4, #6]
 80040c4:	f04f 0300 	mov.w	r3, #0
 80040c8:	bf18      	it	ne
 80040ca:	2001      	movne	r0, #1
 80040cc:	7163      	strb	r3, [r4, #5]
 80040ce:	bdf8      	pop	{r3, r4, r5, r6, r7, pc}
 80040d0:	4629      	mov	r1, r5
 80040d2:	4620      	mov	r0, r4
 80040d4:	f7ff ff1a 	bl	8003f0c <SUBGHZSPI_Receive>
 80040d8:	3501      	adds	r5, #1
 80040da:	e7e8      	b.n	80040ae <HAL_SUBGHZ_ReadRegisters+0x44>
 80040dc:	2002      	movs	r0, #2
 80040de:	e7f6      	b.n	80040ce <HAL_SUBGHZ_ReadRegisters+0x64>

080040e0 <HAL_SUBGHZ_ExecSetCmd>:
 80040e0:	b5f8      	push	{r3, r4, r5, r6, r7, lr}
 80040e2:	461f      	mov	r7, r3
 80040e4:	7983      	ldrb	r3, [r0, #6]
 80040e6:	2b01      	cmp	r3, #1
 80040e8:	4615      	mov	r5, r2
 80040ea:	4604      	mov	r4, r0
 80040ec:	460e      	mov	r6, r1
 80040ee:	b2da      	uxtb	r2, r3
 80040f0:	d12c      	bne.n	800414c <HAL_SUBGHZ_ExecSetCmd+0x6c>
 80040f2:	7943      	ldrb	r3, [r0, #5]
 80040f4:	2b01      	cmp	r3, #1
 80040f6:	d029      	beq.n	800414c <HAL_SUBGHZ_ExecSetCmd+0x6c>
 80040f8:	7142      	strb	r2, [r0, #5]
 80040fa:	f7ff ff61 	bl	8003fc0 <SUBGHZ_CheckDeviceReady>
 80040fe:	f006 03ef 	and.w	r3, r6, #239	; 0xef
 8004102:	f1a3 0284 	sub.w	r2, r3, #132	; 0x84
 8004106:	4253      	negs	r3, r2
 8004108:	4153      	adcs	r3, r2
 800410a:	7123      	strb	r3, [r4, #4]
 800410c:	4631      	mov	r1, r6
 800410e:	4620      	mov	r0, r4
 8004110:	f7ff fe5c 	bl	8003dcc <LL_PWR_SelectSUBGHZSPI_NSS>
 8004114:	f7ff fec6 	bl	8003ea4 <SUBGHZSPI_Transmit>
 8004118:	442f      	add	r7, r5
 800411a:	42af      	cmp	r7, r5
 800411c:	d110      	bne.n	8004140 <HAL_SUBGHZ_ExecSetCmd+0x60>
 800411e:	f7ff fe4b 	bl	8003db8 <LL_PWR_UnselectSUBGHZSPI_NSS>
 8004122:	2e84      	cmp	r6, #132	; 0x84
 8004124:	d002      	beq.n	800412c <HAL_SUBGHZ_ExecSetCmd+0x4c>
 8004126:	4620      	mov	r0, r4
 8004128:	f7ff ff26 	bl	8003f78 <SUBGHZ_WaitOnBusy>
 800412c:	68a0      	ldr	r0, [r4, #8]
 800412e:	2301      	movs	r3, #1
 8004130:	3800      	subs	r0, #0
 8004132:	71a3      	strb	r3, [r4, #6]
 8004134:	f04f 0300 	mov.w	r3, #0
 8004138:	bf18      	it	ne
 800413a:	2001      	movne	r0, #1
 800413c:	7163      	strb	r3, [r4, #5]
 800413e:	bdf8      	pop	{r3, r4, r5, r6, r7, pc}
 8004140:	f815 1b01 	ldrb.w	r1, [r5], #1
 8004144:	4620      	mov	r0, r4
 8004146:	f7ff fead 	bl	8003ea4 <SUBGHZSPI_Transmit>
 800414a:	e7e6      	b.n	800411a <HAL_SUBGHZ_ExecSetCmd+0x3a>
 800414c:	2002      	movs	r0, #2
 800414e:	e7f6      	b.n	800413e <HAL_SUBGHZ_ExecSetCmd+0x5e>

08004150 <HAL_SUBGHZ_ExecGetCmd>:
 8004150:	b5f8      	push	{r3, r4, r5, r6, r7, lr}
 8004152:	461e      	mov	r6, r3
 8004154:	7983      	ldrb	r3, [r0, #6]
 8004156:	2b01      	cmp	r3, #1
 8004158:	4615      	mov	r5, r2
 800415a:	4604      	mov	r4, r0
 800415c:	460f      	mov	r7, r1
 800415e:	b2da      	uxtb	r2, r3
 8004160:	d127      	bne.n	80041b2 <HAL_SUBGHZ_ExecGetCmd+0x62>
 8004162:	7943      	ldrb	r3, [r0, #5]
 8004164:	2b01      	cmp	r3, #1
 8004166:	d024      	beq.n	80041b2 <HAL_SUBGHZ_ExecGetCmd+0x62>
 8004168:	7142      	strb	r2, [r0, #5]
 800416a:	f7ff ff29 	bl	8003fc0 <SUBGHZ_CheckDeviceReady>
 800416e:	4639      	mov	r1, r7
 8004170:	4620      	mov	r0, r4
 8004172:	f7ff fe2b 	bl	8003dcc <LL_PWR_SelectSUBGHZSPI_NSS>
 8004176:	f7ff fe95 	bl	8003ea4 <SUBGHZSPI_Transmit>
 800417a:	2100      	movs	r1, #0
 800417c:	4620      	mov	r0, r4
 800417e:	f7ff fe91 	bl	8003ea4 <SUBGHZSPI_Transmit>
 8004182:	442e      	add	r6, r5
 8004184:	42b5      	cmp	r5, r6
 8004186:	d10e      	bne.n	80041a6 <HAL_SUBGHZ_ExecGetCmd+0x56>
 8004188:	4620      	mov	r0, r4
 800418a:	f7ff fe15 	bl	8003db8 <LL_PWR_UnselectSUBGHZSPI_NSS>
 800418e:	f7ff fef3 	bl	8003f78 <SUBGHZ_WaitOnBusy>
 8004192:	68a0      	ldr	r0, [r4, #8]
 8004194:	2301      	movs	r3, #1
 8004196:	3800      	subs	r0, #0
 8004198:	71a3      	strb	r3, [r4, #6]
 800419a:	f04f 0300 	mov.w	r3, #0
 800419e:	bf18      	it	ne
 80041a0:	2001      	movne	r0, #1
 80041a2:	7163      	strb	r3, [r4, #5]
 80041a4:	bdf8      	pop	{r3, r4, r5, r6, r7, pc}
 80041a6:	4629      	mov	r1, r5
 80041a8:	4620      	mov	r0, r4
 80041aa:	f7ff feaf 	bl	8003f0c <SUBGHZSPI_Receive>
 80041ae:	3501      	adds	r5, #1
 80041b0:	e7e8      	b.n	8004184 <HAL_SUBGHZ_ExecGetCmd+0x34>
 80041b2:	2002      	movs	r0, #2
 80041b4:	e7f6      	b.n	80041a4 <HAL_SUBGHZ_ExecGetCmd+0x54>

080041b6 <HAL_SUBGHZ_IRQHandler>:
 80041b6:	b537      	push	{r0, r1, r2, r4, r5, lr}
 80041b8:	2300      	movs	r3, #0
 80041ba:	f8ad 3004 	strh.w	r3, [sp, #4]
 80041be:	aa01      	add	r2, sp, #4
 80041c0:	2302      	movs	r3, #2
 80041c2:	2112      	movs	r1, #18
 80041c4:	4604      	mov	r4, r0
 80041c6:	f7ff ffc3 	bl	8004150 <HAL_SUBGHZ_ExecGetCmd>
 80041ca:	f8bd 3004 	ldrh.w	r3, [sp, #4]
 80041ce:	ba5b      	rev16	r3, r3
 80041d0:	07da      	lsls	r2, r3, #31
 80041d2:	b29d      	uxth	r5, r3
 80041d4:	d502      	bpl.n	80041dc <HAL_SUBGHZ_IRQHandler+0x26>
 80041d6:	4620      	mov	r0, r4
 80041d8:	f009 f8a4 	bl	800d324 <HAL_SUBGHZ_TxCpltCallback>
 80041dc:	07ab      	lsls	r3, r5, #30
 80041de:	d502      	bpl.n	80041e6 <HAL_SUBGHZ_IRQHandler+0x30>
 80041e0:	4620      	mov	r0, r4
 80041e2:	f009 f8a5 	bl	800d330 <HAL_SUBGHZ_RxCpltCallback>
 80041e6:	0768      	lsls	r0, r5, #29
 80041e8:	d502      	bpl.n	80041f0 <HAL_SUBGHZ_IRQHandler+0x3a>
 80041ea:	4620      	mov	r0, r4
 80041ec:	f009 f8ca 	bl	800d384 <HAL_SUBGHZ_PreambleDetectedCallback>
 80041f0:	0729      	lsls	r1, r5, #28
 80041f2:	d502      	bpl.n	80041fa <HAL_SUBGHZ_IRQHandler+0x44>
 80041f4:	4620      	mov	r0, r4
 80041f6:	f009 f8cb 	bl	800d390 <HAL_SUBGHZ_SyncWordValidCallback>
 80041fa:	06ea      	lsls	r2, r5, #27
 80041fc:	d502      	bpl.n	8004204 <HAL_SUBGHZ_IRQHandler+0x4e>
 80041fe:	4620      	mov	r0, r4
 8004200:	f009 f8cc 	bl	800d39c <HAL_SUBGHZ_HeaderValidCallback>
 8004204:	06ab      	lsls	r3, r5, #26
 8004206:	d502      	bpl.n	800420e <HAL_SUBGHZ_IRQHandler+0x58>
 8004208:	4620      	mov	r0, r4
 800420a:	f009 f8b5 	bl	800d378 <HAL_SUBGHZ_HeaderErrorCallback>
 800420e:	0668      	lsls	r0, r5, #25
 8004210:	d502      	bpl.n	8004218 <HAL_SUBGHZ_IRQHandler+0x62>
 8004212:	4620      	mov	r0, r4
 8004214:	f009 f892 	bl	800d33c <HAL_SUBGHZ_CRCErrorCallback>
 8004218:	0629      	lsls	r1, r5, #24
 800421a:	d507      	bpl.n	800422c <HAL_SUBGHZ_IRQHandler+0x76>
 800421c:	05ea      	lsls	r2, r5, #23
 800421e:	f3c5 2100 	ubfx	r1, r5, #8, #1
 8004222:	4620      	mov	r0, r4
 8004224:	bf48      	it	mi
 8004226:	2101      	movmi	r1, #1
 8004228:	f009 f88e 	bl	800d348 <HAL_SUBGHZ_CADStatusCallback>
 800422c:	05ab      	lsls	r3, r5, #22
 800422e:	d502      	bpl.n	8004236 <HAL_SUBGHZ_IRQHandler+0x80>
 8004230:	4620      	mov	r0, r4
 8004232:	f009 f899 	bl	800d368 <HAL_SUBGHZ_RxTxTimeoutCallback>
 8004236:	2302      	movs	r3, #2
 8004238:	aa01      	add	r2, sp, #4
 800423a:	4619      	mov	r1, r3
 800423c:	4620      	mov	r0, r4
 800423e:	f7ff ff4f 	bl	80040e0 <HAL_SUBGHZ_ExecSetCmd>
 8004242:	b003      	add	sp, #12
 8004244:	bd30      	pop	{r4, r5, pc}

08004246 <HAL_SUBGHZ_WriteBuffer>:
 8004246:	b5f8      	push	{r3, r4, r5, r6, r7, lr}
 8004248:	461e      	mov	r6, r3
 800424a:	7983      	ldrb	r3, [r0, #6]
 800424c:	2b01      	cmp	r3, #1
 800424e:	4615      	mov	r5, r2
 8004250:	4604      	mov	r4, r0
 8004252:	460f      	mov	r7, r1
 8004254:	b2da      	uxtb	r2, r3
 8004256:	d127      	bne.n	80042a8 <HAL_SUBGHZ_WriteBuffer+0x62>
 8004258:	7943      	ldrb	r3, [r0, #5]
 800425a:	2b01      	cmp	r3, #1
 800425c:	d024      	beq.n	80042a8 <HAL_SUBGHZ_WriteBuffer+0x62>
 800425e:	7142      	strb	r2, [r0, #5]
 8004260:	f7ff feae 	bl	8003fc0 <SUBGHZ_CheckDeviceReady>
 8004264:	210e      	movs	r1, #14
 8004266:	4620      	mov	r0, r4
 8004268:	f7ff fdb0 	bl	8003dcc <LL_PWR_SelectSUBGHZSPI_NSS>
 800426c:	f7ff fe1a 	bl	8003ea4 <SUBGHZSPI_Transmit>
 8004270:	4639      	mov	r1, r7
 8004272:	4620      	mov	r0, r4
 8004274:	f7ff fe16 	bl	8003ea4 <SUBGHZSPI_Transmit>
 8004278:	442e      	add	r6, r5
 800427a:	42b5      	cmp	r5, r6
 800427c:	d10e      	bne.n	800429c <HAL_SUBGHZ_WriteBuffer+0x56>
 800427e:	4620      	mov	r0, r4
 8004280:	f7ff fd9a 	bl	8003db8 <LL_PWR_UnselectSUBGHZSPI_NSS>
 8004284:	f7ff fe78 	bl	8003f78 <SUBGHZ_WaitOnBusy>
 8004288:	68a0      	ldr	r0, [r4, #8]
 800428a:	2301      	movs	r3, #1
 800428c:	3800      	subs	r0, #0
 800428e:	71a3      	strb	r3, [r4, #6]
 8004290:	f04f 0300 	mov.w	r3, #0
 8004294:	bf18      	it	ne
 8004296:	2001      	movne	r0, #1
 8004298:	7163      	strb	r3, [r4, #5]
 800429a:	bdf8      	pop	{r3, r4, r5, r6, r7, pc}
 800429c:	f815 1b01 	ldrb.w	r1, [r5], #1
 80042a0:	4620      	mov	r0, r4
 80042a2:	f7ff fdff 	bl	8003ea4 <SUBGHZSPI_Transmit>
 80042a6:	e7e8      	b.n	800427a <HAL_SUBGHZ_WriteBuffer+0x34>
 80042a8:	2002      	movs	r0, #2
 80042aa:	e7f6      	b.n	800429a <HAL_SUBGHZ_WriteBuffer+0x54>

080042ac <HAL_SUBGHZ_ReadBuffer>:
 80042ac:	b5f8      	push	{r3, r4, r5, r6, r7, lr}
 80042ae:	461e      	mov	r6, r3
 80042b0:	7983      	ldrb	r3, [r0, #6]
 80042b2:	2b01      	cmp	r3, #1
 80042b4:	4615      	mov	r5, r2
 80042b6:	4604      	mov	r4, r0
 80042b8:	460f      	mov	r7, r1
 80042ba:	b2da      	uxtb	r2, r3
 80042bc:	d12b      	bne.n	8004316 <HAL_SUBGHZ_ReadBuffer+0x6a>
 80042be:	7943      	ldrb	r3, [r0, #5]
 80042c0:	2b01      	cmp	r3, #1
 80042c2:	d028      	beq.n	8004316 <HAL_SUBGHZ_ReadBuffer+0x6a>
 80042c4:	7142      	strb	r2, [r0, #5]
 80042c6:	f7ff fe7b 	bl	8003fc0 <SUBGHZ_CheckDeviceReady>
 80042ca:	211e      	movs	r1, #30
 80042cc:	4620      	mov	r0, r4
 80042ce:	f7ff fd7d 	bl	8003dcc <LL_PWR_SelectSUBGHZSPI_NSS>
 80042d2:	f7ff fde7 	bl	8003ea4 <SUBGHZSPI_Transmit>
 80042d6:	4639      	mov	r1, r7
 80042d8:	4620      	mov	r0, r4
 80042da:	f7ff fde3 	bl	8003ea4 <SUBGHZSPI_Transmit>
 80042de:	2100      	movs	r1, #0
 80042e0:	4620      	mov	r0, r4
 80042e2:	f7ff fddf 	bl	8003ea4 <SUBGHZSPI_Transmit>
 80042e6:	442e      	add	r6, r5
 80042e8:	42b5      	cmp	r5, r6
 80042ea:	d10e      	bne.n	800430a <HAL_SUBGHZ_ReadBuffer+0x5e>
 80042ec:	4620      	mov	r0, r4
 80042ee:	f7ff fd63 	bl	8003db8 <LL_PWR_UnselectSUBGHZSPI_NSS>
 80042f2:	f7ff fe41 	bl	8003f78 <SUBGHZ_WaitOnBusy>
 80042f6:	68a0      	ldr	r0, [r4, #8]
 80042f8:	2301      	movs	r3, #1
 80042fa:	3800      	subs	r0, #0
 80042fc:	71a3      	strb	r3, [r4, #6]
 80042fe:	f04f 0300 	mov.w	r3, #0
 8004302:	bf18      	it	ne
 8004304:	2001      	movne	r0, #1
 8004306:	7163      	strb	r3, [r4, #5]
 8004308:	bdf8      	pop	{r3, r4, r5, r6, r7, pc}
 800430a:	4629      	mov	r1, r5
 800430c:	4620      	mov	r0, r4
 800430e:	f7ff fdfd 	bl	8003f0c <SUBGHZSPI_Receive>
 8004312:	3501      	adds	r5, #1
 8004314:	e7e8      	b.n	80042e8 <HAL_SUBGHZ_ReadBuffer+0x3c>
 8004316:	2002      	movs	r0, #2
 8004318:	e7f6      	b.n	8004308 <HAL_SUBGHZ_ReadBuffer+0x5c>

0800431a <UART_EndTxTransfer>:
 800431a:	6802      	ldr	r2, [r0, #0]
 800431c:	e852 3f00 	ldrex	r3, [r2]
 8004320:	f023 03c0 	bic.w	r3, r3, #192	; 0xc0
 8004324:	e842 3100 	strex	r1, r3, [r2]
 8004328:	6802      	ldr	r2, [r0, #0]
 800432a:	2900      	cmp	r1, #0
 800432c:	d1f5      	bne.n	800431a <UART_EndTxTransfer>
 800432e:	f102 0308 	add.w	r3, r2, #8
 8004332:	e853 3f00 	ldrex	r3, [r3]
 8004336:	f423 0300 	bic.w	r3, r3, #8388608	; 0x800000
 800433a:	f102 0c08 	add.w	ip, r2, #8
 800433e:	e84c 3100 	strex	r1, r3, [ip]
 8004342:	2900      	cmp	r1, #0
 8004344:	d1f3      	bne.n	800432e <UART_EndTxTransfer+0x14>
 8004346:	2320      	movs	r3, #32
 8004348:	f8c0 3084 	str.w	r3, [r0, #132]	; 0x84
 800434c:	4770      	bx	lr
	...

08004350 <UART_EndRxTransfer>:
 8004350:	b510      	push	{r4, lr}
 8004352:	6802      	ldr	r2, [r0, #0]
 8004354:	e852 3f00 	ldrex	r3, [r2]
 8004358:	f423 7390 	bic.w	r3, r3, #288	; 0x120
 800435c:	e842 3100 	strex	r1, r3, [r2]
 8004360:	6802      	ldr	r2, [r0, #0]
 8004362:	2900      	cmp	r1, #0
 8004364:	d1f5      	bne.n	8004352 <UART_EndRxTransfer+0x2>
 8004366:	4c0f      	ldr	r4, [pc, #60]	; (80043a4 <UART_EndRxTransfer+0x54>)
 8004368:	f102 0308 	add.w	r3, r2, #8
 800436c:	e853 3f00 	ldrex	r3, [r3]
 8004370:	4023      	ands	r3, r4
 8004372:	f102 0c08 	add.w	ip, r2, #8
 8004376:	e84c 3100 	strex	r1, r3, [ip]
 800437a:	2900      	cmp	r1, #0
 800437c:	d1f4      	bne.n	8004368 <UART_EndRxTransfer+0x18>
 800437e:	6ec3      	ldr	r3, [r0, #108]	; 0x6c
 8004380:	2b01      	cmp	r3, #1
 8004382:	d107      	bne.n	8004394 <UART_EndRxTransfer+0x44>
 8004384:	e852 3f00 	ldrex	r3, [r2]
 8004388:	f023 0310 	bic.w	r3, r3, #16
 800438c:	e842 3100 	strex	r1, r3, [r2]
 8004390:	2900      	cmp	r1, #0
 8004392:	d1f7      	bne.n	8004384 <UART_EndRxTransfer+0x34>
 8004394:	2320      	movs	r3, #32
 8004396:	f8c0 3088 	str.w	r3, [r0, #136]	; 0x88
 800439a:	2300      	movs	r3, #0
 800439c:	66c3      	str	r3, [r0, #108]	; 0x6c
 800439e:	6703      	str	r3, [r0, #112]	; 0x70
 80043a0:	bd10      	pop	{r4, pc}
 80043a2:	bf00      	nop
 80043a4:	effffffe 	.word	0xeffffffe

080043a8 <HAL_UART_Transmit_DMA>:
 80043a8:	b5f8      	push	{r3, r4, r5, r6, r7, lr}
 80043aa:	4604      	mov	r4, r0
 80043ac:	4613      	mov	r3, r2
 80043ae:	f8d4 7084 	ldr.w	r7, [r4, #132]	; 0x84
 80043b2:	2f20      	cmp	r7, #32
 80043b4:	d143      	bne.n	800443e <HAL_UART_Transmit_DMA+0x96>
 80043b6:	b361      	cbz	r1, 8004412 <HAL_UART_Transmit_DMA+0x6a>
 80043b8:	b35a      	cbz	r2, 8004412 <HAL_UART_Transmit_DMA+0x6a>
 80043ba:	f894 2080 	ldrb.w	r2, [r4, #128]	; 0x80
 80043be:	2a01      	cmp	r2, #1
 80043c0:	d03d      	beq.n	800443e <HAL_UART_Transmit_DMA+0x96>
 80043c2:	6fa0      	ldr	r0, [r4, #120]	; 0x78
 80043c4:	f8a4 3056 	strh.w	r3, [r4, #86]	; 0x56
 80043c8:	2501      	movs	r5, #1
 80043ca:	2600      	movs	r6, #0
 80043cc:	2221      	movs	r2, #33	; 0x21
 80043ce:	f8c4 608c 	str.w	r6, [r4, #140]	; 0x8c
 80043d2:	f884 5080 	strb.w	r5, [r4, #128]	; 0x80
 80043d6:	6521      	str	r1, [r4, #80]	; 0x50
 80043d8:	f8a4 3054 	strh.w	r3, [r4, #84]	; 0x54
 80043dc:	f8c4 2084 	str.w	r2, [r4, #132]	; 0x84
 80043e0:	b1c8      	cbz	r0, 8004416 <HAL_UART_Transmit_DMA+0x6e>
 80043e2:	f8df c060 	ldr.w	ip, [pc, #96]	; 8004444 <HAL_UART_Transmit_DMA+0x9c>
 80043e6:	6822      	ldr	r2, [r4, #0]
 80043e8:	f8c0 c02c 	str.w	ip, [r0, #44]	; 0x2c
 80043ec:	f8df c058 	ldr.w	ip, [pc, #88]	; 8004448 <HAL_UART_Transmit_DMA+0xa0>
 80043f0:	f8c0 c030 	str.w	ip, [r0, #48]	; 0x30
 80043f4:	f8df c054 	ldr.w	ip, [pc, #84]	; 800444c <HAL_UART_Transmit_DMA+0xa4>
 80043f8:	3228      	adds	r2, #40	; 0x28
 80043fa:	e9c0 c60d 	strd	ip, r6, [r0, #52]	; 0x34
 80043fe:	f7fe f945 	bl	800268c <HAL_DMA_Start_IT>
 8004402:	b140      	cbz	r0, 8004416 <HAL_UART_Transmit_DMA+0x6e>
 8004404:	2310      	movs	r3, #16
 8004406:	f8c4 308c 	str.w	r3, [r4, #140]	; 0x8c
 800440a:	f884 6080 	strb.w	r6, [r4, #128]	; 0x80
 800440e:	f8c4 7084 	str.w	r7, [r4, #132]	; 0x84
 8004412:	2001      	movs	r0, #1
 8004414:	e012      	b.n	800443c <HAL_UART_Transmit_DMA+0x94>
 8004416:	6823      	ldr	r3, [r4, #0]
 8004418:	2240      	movs	r2, #64	; 0x40
 800441a:	621a      	str	r2, [r3, #32]
 800441c:	2300      	movs	r3, #0
 800441e:	6822      	ldr	r2, [r4, #0]
 8004420:	f884 3080 	strb.w	r3, [r4, #128]	; 0x80
 8004424:	f102 0308 	add.w	r3, r2, #8
 8004428:	e853 3f00 	ldrex	r3, [r3]
 800442c:	f043 0380 	orr.w	r3, r3, #128	; 0x80
 8004430:	f102 0108 	add.w	r1, r2, #8
 8004434:	e841 3000 	strex	r0, r3, [r1]
 8004438:	2800      	cmp	r0, #0
 800443a:	d1f3      	bne.n	8004424 <HAL_UART_Transmit_DMA+0x7c>
 800443c:	bdf8      	pop	{r3, r4, r5, r6, r7, pc}
 800443e:	2002      	movs	r0, #2
 8004440:	e7fc      	b.n	800443c <HAL_UART_Transmit_DMA+0x94>
 8004442:	bf00      	nop
 8004444:	08004451 	.word	0x08004451
 8004448:	08004499 	.word	0x08004499
 800444c:	080044a5 	.word	0x080044a5

08004450 <UART_DMATransmitCplt>:
 8004450:	b508      	push	{r3, lr}
 8004452:	4603      	mov	r3, r0
 8004454:	6a80      	ldr	r0, [r0, #40]	; 0x28
 8004456:	681b      	ldr	r3, [r3, #0]
 8004458:	681b      	ldr	r3, [r3, #0]
 800445a:	f013 0320 	ands.w	r3, r3, #32
 800445e:	d117      	bne.n	8004490 <UART_DMATransmitCplt+0x40>
 8004460:	f8a0 3056 	strh.w	r3, [r0, #86]	; 0x56
 8004464:	6802      	ldr	r2, [r0, #0]
 8004466:	f102 0308 	add.w	r3, r2, #8
 800446a:	e853 3f00 	ldrex	r3, [r3]
 800446e:	f023 0380 	bic.w	r3, r3, #128	; 0x80
 8004472:	3208      	adds	r2, #8
 8004474:	e842 3100 	strex	r1, r3, [r2]
 8004478:	6802      	ldr	r2, [r0, #0]
 800447a:	2900      	cmp	r1, #0
 800447c:	d1f2      	bne.n	8004464 <UART_DMATransmitCplt+0x14>
 800447e:	e852 3f00 	ldrex	r3, [r2]
 8004482:	f043 0340 	orr.w	r3, r3, #64	; 0x40
 8004486:	e842 3100 	strex	r1, r3, [r2]
 800448a:	2900      	cmp	r1, #0
 800448c:	d1f7      	bne.n	800447e <UART_DMATransmitCplt+0x2e>
 800448e:	bd08      	pop	{r3, pc}
 8004490:	f7fd fab4 	bl	80019fc <HAL_UART_TxCpltCallback>
 8004494:	e7fb      	b.n	800448e <UART_DMATransmitCplt+0x3e>

08004496 <HAL_UART_TxHalfCpltCallback>:
 8004496:	4770      	bx	lr

08004498 <UART_DMATxHalfCplt>:
 8004498:	b508      	push	{r3, lr}
 800449a:	6a80      	ldr	r0, [r0, #40]	; 0x28
 800449c:	f7ff fffb 	bl	8004496 <HAL_UART_TxHalfCpltCallback>
 80044a0:	bd08      	pop	{r3, pc}

080044a2 <HAL_UART_ErrorCallback>:
 80044a2:	4770      	bx	lr

080044a4 <UART_DMAError>:
 80044a4:	6a80      	ldr	r0, [r0, #40]	; 0x28
 80044a6:	6802      	ldr	r2, [r0, #0]
 80044a8:	f8d0 3084 	ldr.w	r3, [r0, #132]	; 0x84
 80044ac:	b510      	push	{r4, lr}
 80044ae:	f8d0 4088 	ldr.w	r4, [r0, #136]	; 0x88
 80044b2:	6892      	ldr	r2, [r2, #8]
 80044b4:	0612      	lsls	r2, r2, #24
 80044b6:	d506      	bpl.n	80044c6 <UART_DMAError+0x22>
 80044b8:	2b21      	cmp	r3, #33	; 0x21
 80044ba:	d104      	bne.n	80044c6 <UART_DMAError+0x22>
 80044bc:	2300      	movs	r3, #0
 80044be:	f8a0 3056 	strh.w	r3, [r0, #86]	; 0x56
 80044c2:	f7ff ff2a 	bl	800431a <UART_EndTxTransfer>
 80044c6:	6803      	ldr	r3, [r0, #0]
 80044c8:	689b      	ldr	r3, [r3, #8]
 80044ca:	065b      	lsls	r3, r3, #25
 80044cc:	d506      	bpl.n	80044dc <UART_DMAError+0x38>
 80044ce:	2c22      	cmp	r4, #34	; 0x22
 80044d0:	d104      	bne.n	80044dc <UART_DMAError+0x38>
 80044d2:	2300      	movs	r3, #0
 80044d4:	f8a0 305e 	strh.w	r3, [r0, #94]	; 0x5e
 80044d8:	f7ff ff3a 	bl	8004350 <UART_EndRxTransfer>
 80044dc:	f8d0 308c 	ldr.w	r3, [r0, #140]	; 0x8c
 80044e0:	f043 0310 	orr.w	r3, r3, #16
 80044e4:	f8c0 308c 	str.w	r3, [r0, #140]	; 0x8c
 80044e8:	f7ff ffdb 	bl	80044a2 <HAL_UART_ErrorCallback>
 80044ec:	bd10      	pop	{r4, pc}

080044ee <UART_DMAAbortOnError>:
 80044ee:	b508      	push	{r3, lr}
 80044f0:	6a80      	ldr	r0, [r0, #40]	; 0x28
 80044f2:	2300      	movs	r3, #0
 80044f4:	f8a0 305e 	strh.w	r3, [r0, #94]	; 0x5e
 80044f8:	f8a0 3056 	strh.w	r3, [r0, #86]	; 0x56
 80044fc:	f7ff ffd1 	bl	80044a2 <HAL_UART_ErrorCallback>
 8004500:	bd08      	pop	{r3, pc}

08004502 <HAL_UARTEx_RxEventCallback>:
 8004502:	4770      	bx	lr

08004504 <HAL_UART_IRQHandler>:
 8004504:	6803      	ldr	r3, [r0, #0]
 8004506:	69da      	ldr	r2, [r3, #28]
 8004508:	6819      	ldr	r1, [r3, #0]
 800450a:	e92d 41f0 	stmdb	sp!, {r4, r5, r6, r7, r8, lr}
 800450e:	f640 060f 	movw	r6, #2063	; 0x80f
 8004512:	4232      	tst	r2, r6
 8004514:	689d      	ldr	r5, [r3, #8]
 8004516:	4604      	mov	r4, r0
 8004518:	d110      	bne.n	800453c <HAL_UART_IRQHandler+0x38>
 800451a:	0696      	lsls	r6, r2, #26
 800451c:	f140 8096 	bpl.w	800464c <HAL_UART_IRQHandler+0x148>
 8004520:	f001 0620 	and.w	r6, r1, #32
 8004524:	f005 5780 	and.w	r7, r5, #268435456	; 0x10000000
 8004528:	433e      	orrs	r6, r7
 800452a:	f000 808f 	beq.w	800464c <HAL_UART_IRQHandler+0x148>
 800452e:	6f03      	ldr	r3, [r0, #112]	; 0x70
 8004530:	2b00      	cmp	r3, #0
 8004532:	f000 8084 	beq.w	800463e <HAL_UART_IRQHandler+0x13a>
 8004536:	e8bd 41f0 	ldmia.w	sp!, {r4, r5, r6, r7, r8, lr}
 800453a:	4718      	bx	r3
 800453c:	4ea7      	ldr	r6, [pc, #668]	; (80047dc <HAL_UART_IRQHandler+0x2d8>)
 800453e:	48a8      	ldr	r0, [pc, #672]	; (80047e0 <HAL_UART_IRQHandler+0x2dc>)
 8004540:	402e      	ands	r6, r5
 8004542:	4008      	ands	r0, r1
 8004544:	4330      	orrs	r0, r6
 8004546:	f000 8081 	beq.w	800464c <HAL_UART_IRQHandler+0x148>
 800454a:	07d7      	lsls	r7, r2, #31
 800454c:	d509      	bpl.n	8004562 <HAL_UART_IRQHandler+0x5e>
 800454e:	05c8      	lsls	r0, r1, #23
 8004550:	d507      	bpl.n	8004562 <HAL_UART_IRQHandler+0x5e>
 8004552:	2001      	movs	r0, #1
 8004554:	6218      	str	r0, [r3, #32]
 8004556:	f8d4 008c 	ldr.w	r0, [r4, #140]	; 0x8c
 800455a:	f040 0001 	orr.w	r0, r0, #1
 800455e:	f8c4 008c 	str.w	r0, [r4, #140]	; 0x8c
 8004562:	0797      	lsls	r7, r2, #30
 8004564:	d509      	bpl.n	800457a <HAL_UART_IRQHandler+0x76>
 8004566:	07e8      	lsls	r0, r5, #31
 8004568:	d507      	bpl.n	800457a <HAL_UART_IRQHandler+0x76>
 800456a:	2002      	movs	r0, #2
 800456c:	6218      	str	r0, [r3, #32]
 800456e:	f8d4 008c 	ldr.w	r0, [r4, #140]	; 0x8c
 8004572:	f040 0004 	orr.w	r0, r0, #4
 8004576:	f8c4 008c 	str.w	r0, [r4, #140]	; 0x8c
 800457a:	0757      	lsls	r7, r2, #29
 800457c:	d509      	bpl.n	8004592 <HAL_UART_IRQHandler+0x8e>
 800457e:	07e8      	lsls	r0, r5, #31
 8004580:	d507      	bpl.n	8004592 <HAL_UART_IRQHandler+0x8e>
 8004582:	2004      	movs	r0, #4
 8004584:	6218      	str	r0, [r3, #32]
 8004586:	f8d4 008c 	ldr.w	r0, [r4, #140]	; 0x8c
 800458a:	f040 0002 	orr.w	r0, r0, #2
 800458e:	f8c4 008c 	str.w	r0, [r4, #140]	; 0x8c
 8004592:	0717      	lsls	r7, r2, #28
 8004594:	d50b      	bpl.n	80045ae <HAL_UART_IRQHandler+0xaa>
 8004596:	f001 0020 	and.w	r0, r1, #32
 800459a:	4330      	orrs	r0, r6
 800459c:	d007      	beq.n	80045ae <HAL_UART_IRQHandler+0xaa>
 800459e:	2008      	movs	r0, #8
 80045a0:	6218      	str	r0, [r3, #32]
 80045a2:	f8d4 008c 	ldr.w	r0, [r4, #140]	; 0x8c
 80045a6:	f040 0008 	orr.w	r0, r0, #8
 80045aa:	f8c4 008c 	str.w	r0, [r4, #140]	; 0x8c
 80045ae:	0516      	lsls	r6, r2, #20
 80045b0:	d50a      	bpl.n	80045c8 <HAL_UART_IRQHandler+0xc4>
 80045b2:	0148      	lsls	r0, r1, #5
 80045b4:	d508      	bpl.n	80045c8 <HAL_UART_IRQHandler+0xc4>
 80045b6:	f44f 6000 	mov.w	r0, #2048	; 0x800
 80045ba:	6218      	str	r0, [r3, #32]
 80045bc:	f8d4 308c 	ldr.w	r3, [r4, #140]	; 0x8c
 80045c0:	f043 0320 	orr.w	r3, r3, #32
 80045c4:	f8c4 308c 	str.w	r3, [r4, #140]	; 0x8c
 80045c8:	f8d4 308c 	ldr.w	r3, [r4, #140]	; 0x8c
 80045cc:	2b00      	cmp	r3, #0
 80045ce:	d036      	beq.n	800463e <HAL_UART_IRQHandler+0x13a>
 80045d0:	0693      	lsls	r3, r2, #26
 80045d2:	d50a      	bpl.n	80045ea <HAL_UART_IRQHandler+0xe6>
 80045d4:	f001 0120 	and.w	r1, r1, #32
 80045d8:	f005 5580 	and.w	r5, r5, #268435456	; 0x10000000
 80045dc:	ea51 0305 	orrs.w	r3, r1, r5
 80045e0:	d003      	beq.n	80045ea <HAL_UART_IRQHandler+0xe6>
 80045e2:	6f23      	ldr	r3, [r4, #112]	; 0x70
 80045e4:	b10b      	cbz	r3, 80045ea <HAL_UART_IRQHandler+0xe6>
 80045e6:	4620      	mov	r0, r4
 80045e8:	4798      	blx	r3
 80045ea:	6823      	ldr	r3, [r4, #0]
 80045ec:	f8d4 508c 	ldr.w	r5, [r4, #140]	; 0x8c
 80045f0:	689b      	ldr	r3, [r3, #8]
 80045f2:	f005 0528 	and.w	r5, r5, #40	; 0x28
 80045f6:	f003 0340 	and.w	r3, r3, #64	; 0x40
 80045fa:	431d      	orrs	r5, r3
 80045fc:	4620      	mov	r0, r4
 80045fe:	d020      	beq.n	8004642 <HAL_UART_IRQHandler+0x13e>
 8004600:	f7ff fea6 	bl	8004350 <UART_EndRxTransfer>
 8004604:	6822      	ldr	r2, [r4, #0]
 8004606:	6893      	ldr	r3, [r2, #8]
 8004608:	065f      	lsls	r7, r3, #25
 800460a:	d515      	bpl.n	8004638 <HAL_UART_IRQHandler+0x134>
 800460c:	f102 0308 	add.w	r3, r2, #8
 8004610:	e853 3f00 	ldrex	r3, [r3]
 8004614:	f023 0340 	bic.w	r3, r3, #64	; 0x40
 8004618:	f102 0008 	add.w	r0, r2, #8
 800461c:	e840 3100 	strex	r1, r3, [r0]
 8004620:	2900      	cmp	r1, #0
 8004622:	d1f3      	bne.n	800460c <HAL_UART_IRQHandler+0x108>
 8004624:	6fe0      	ldr	r0, [r4, #124]	; 0x7c
 8004626:	b138      	cbz	r0, 8004638 <HAL_UART_IRQHandler+0x134>
 8004628:	4b6e      	ldr	r3, [pc, #440]	; (80047e4 <HAL_UART_IRQHandler+0x2e0>)
 800462a:	6383      	str	r3, [r0, #56]	; 0x38
 800462c:	f7fe f8a8 	bl	8002780 <HAL_DMA_Abort_IT>
 8004630:	b128      	cbz	r0, 800463e <HAL_UART_IRQHandler+0x13a>
 8004632:	6fe0      	ldr	r0, [r4, #124]	; 0x7c
 8004634:	6b83      	ldr	r3, [r0, #56]	; 0x38
 8004636:	e77e      	b.n	8004536 <HAL_UART_IRQHandler+0x32>
 8004638:	4620      	mov	r0, r4
 800463a:	f7ff ff32 	bl	80044a2 <HAL_UART_ErrorCallback>
 800463e:	e8bd 81f0 	ldmia.w	sp!, {r4, r5, r6, r7, r8, pc}
 8004642:	f7ff ff2e 	bl	80044a2 <HAL_UART_ErrorCallback>
 8004646:	f8c4 508c 	str.w	r5, [r4, #140]	; 0x8c
 800464a:	e7f8      	b.n	800463e <HAL_UART_IRQHandler+0x13a>
 800464c:	6ee0      	ldr	r0, [r4, #108]	; 0x6c
 800464e:	2801      	cmp	r0, #1
 8004650:	f040 8081 	bne.w	8004756 <HAL_UART_IRQHandler+0x252>
 8004654:	06d6      	lsls	r6, r2, #27
 8004656:	d57e      	bpl.n	8004756 <HAL_UART_IRQHandler+0x252>
 8004658:	06c8      	lsls	r0, r1, #27
 800465a:	d57c      	bpl.n	8004756 <HAL_UART_IRQHandler+0x252>
 800465c:	2210      	movs	r2, #16
 800465e:	621a      	str	r2, [r3, #32]
 8004660:	689a      	ldr	r2, [r3, #8]
 8004662:	0651      	lsls	r1, r2, #25
 8004664:	d547      	bpl.n	80046f6 <HAL_UART_IRQHandler+0x1f2>
 8004666:	6fe2      	ldr	r2, [r4, #124]	; 0x7c
 8004668:	6811      	ldr	r1, [r2, #0]
 800466a:	684a      	ldr	r2, [r1, #4]
 800466c:	b292      	uxth	r2, r2
 800466e:	2a00      	cmp	r2, #0
 8004670:	d0e5      	beq.n	800463e <HAL_UART_IRQHandler+0x13a>
 8004672:	f8b4 005c 	ldrh.w	r0, [r4, #92]	; 0x5c
 8004676:	4290      	cmp	r0, r2
 8004678:	d9e1      	bls.n	800463e <HAL_UART_IRQHandler+0x13a>
 800467a:	f8a4 205e 	strh.w	r2, [r4, #94]	; 0x5e
 800467e:	680a      	ldr	r2, [r1, #0]
 8004680:	0692      	lsls	r2, r2, #26
 8004682:	d42e      	bmi.n	80046e2 <HAL_UART_IRQHandler+0x1de>
 8004684:	e853 2f00 	ldrex	r2, [r3]
 8004688:	f422 7280 	bic.w	r2, r2, #256	; 0x100
 800468c:	e843 2100 	strex	r1, r2, [r3]
 8004690:	2900      	cmp	r1, #0
 8004692:	d1f7      	bne.n	8004684 <HAL_UART_IRQHandler+0x180>
 8004694:	f103 0208 	add.w	r2, r3, #8
 8004698:	e852 2f00 	ldrex	r2, [r2]
 800469c:	f022 0201 	bic.w	r2, r2, #1
 80046a0:	f103 0008 	add.w	r0, r3, #8
 80046a4:	e840 2100 	strex	r1, r2, [r0]
 80046a8:	2900      	cmp	r1, #0
 80046aa:	d1f3      	bne.n	8004694 <HAL_UART_IRQHandler+0x190>
 80046ac:	f103 0208 	add.w	r2, r3, #8
 80046b0:	e852 2f00 	ldrex	r2, [r2]
 80046b4:	f022 0240 	bic.w	r2, r2, #64	; 0x40
 80046b8:	f103 0008 	add.w	r0, r3, #8
 80046bc:	e840 2100 	strex	r1, r2, [r0]
 80046c0:	2900      	cmp	r1, #0
 80046c2:	d1f3      	bne.n	80046ac <HAL_UART_IRQHandler+0x1a8>
 80046c4:	2220      	movs	r2, #32
 80046c6:	f8c4 2088 	str.w	r2, [r4, #136]	; 0x88
 80046ca:	66e1      	str	r1, [r4, #108]	; 0x6c
 80046cc:	e853 2f00 	ldrex	r2, [r3]
 80046d0:	f022 0210 	bic.w	r2, r2, #16
 80046d4:	e843 2100 	strex	r1, r2, [r3]
 80046d8:	2900      	cmp	r1, #0
 80046da:	d1f7      	bne.n	80046cc <HAL_UART_IRQHandler+0x1c8>
 80046dc:	6fe0      	ldr	r0, [r4, #124]	; 0x7c
 80046de:	f7fe f81a 	bl	8002716 <HAL_DMA_Abort>
 80046e2:	f8b4 305e 	ldrh.w	r3, [r4, #94]	; 0x5e
 80046e6:	f8b4 105c 	ldrh.w	r1, [r4, #92]	; 0x5c
 80046ea:	1ac9      	subs	r1, r1, r3
 80046ec:	b289      	uxth	r1, r1
 80046ee:	4620      	mov	r0, r4
 80046f0:	f7ff ff07 	bl	8004502 <HAL_UARTEx_RxEventCallback>
 80046f4:	e7a3      	b.n	800463e <HAL_UART_IRQHandler+0x13a>
 80046f6:	f8b4 105e 	ldrh.w	r1, [r4, #94]	; 0x5e
 80046fa:	b28a      	uxth	r2, r1
 80046fc:	f8b4 105e 	ldrh.w	r1, [r4, #94]	; 0x5e
 8004700:	b289      	uxth	r1, r1
 8004702:	2900      	cmp	r1, #0
 8004704:	d09b      	beq.n	800463e <HAL_UART_IRQHandler+0x13a>
 8004706:	f8b4 105c 	ldrh.w	r1, [r4, #92]	; 0x5c
 800470a:	1a89      	subs	r1, r1, r2
 800470c:	b289      	uxth	r1, r1
 800470e:	2900      	cmp	r1, #0
 8004710:	d095      	beq.n	800463e <HAL_UART_IRQHandler+0x13a>
 8004712:	e853 2f00 	ldrex	r2, [r3]
 8004716:	f422 7290 	bic.w	r2, r2, #288	; 0x120
 800471a:	e843 2000 	strex	r0, r2, [r3]
 800471e:	2800      	cmp	r0, #0
 8004720:	d1f7      	bne.n	8004712 <HAL_UART_IRQHandler+0x20e>
 8004722:	4d31      	ldr	r5, [pc, #196]	; (80047e8 <HAL_UART_IRQHandler+0x2e4>)
 8004724:	f103 0208 	add.w	r2, r3, #8
 8004728:	e852 2f00 	ldrex	r2, [r2]
 800472c:	402a      	ands	r2, r5
 800472e:	f103 0608 	add.w	r6, r3, #8
 8004732:	e846 2000 	strex	r0, r2, [r6]
 8004736:	2800      	cmp	r0, #0
 8004738:	d1f4      	bne.n	8004724 <HAL_UART_IRQHandler+0x220>
 800473a:	2220      	movs	r2, #32
 800473c:	f8c4 2088 	str.w	r2, [r4, #136]	; 0x88
 8004740:	6720      	str	r0, [r4, #112]	; 0x70
 8004742:	66e0      	str	r0, [r4, #108]	; 0x6c
 8004744:	e853 2f00 	ldrex	r2, [r3]
 8004748:	f022 0210 	bic.w	r2, r2, #16
 800474c:	e843 2000 	strex	r0, r2, [r3]
 8004750:	2800      	cmp	r0, #0
 8004752:	d1f7      	bne.n	8004744 <HAL_UART_IRQHandler+0x240>
 8004754:	e7cb      	b.n	80046ee <HAL_UART_IRQHandler+0x1ea>
 8004756:	02d7      	lsls	r7, r2, #11
 8004758:	d509      	bpl.n	800476e <HAL_UART_IRQHandler+0x26a>
 800475a:	026e      	lsls	r6, r5, #9
 800475c:	d507      	bpl.n	800476e <HAL_UART_IRQHandler+0x26a>
 800475e:	f44f 1280 	mov.w	r2, #1048576	; 0x100000
 8004762:	4620      	mov	r0, r4
 8004764:	621a      	str	r2, [r3, #32]
 8004766:	e8bd 41f0 	ldmia.w	sp!, {r4, r5, r6, r7, r8, lr}
 800476a:	f000 bd6b 	b.w	8005244 <HAL_UARTEx_WakeupCallback>
 800476e:	0610      	lsls	r0, r2, #24
 8004770:	d50b      	bpl.n	800478a <HAL_UART_IRQHandler+0x286>
 8004772:	f001 0080 	and.w	r0, r1, #128	; 0x80
 8004776:	f405 0500 	and.w	r5, r5, #8388608	; 0x800000
 800477a:	4328      	orrs	r0, r5
 800477c:	d005      	beq.n	800478a <HAL_UART_IRQHandler+0x286>
 800477e:	6f63      	ldr	r3, [r4, #116]	; 0x74
 8004780:	2b00      	cmp	r3, #0
 8004782:	f43f af5c 	beq.w	800463e <HAL_UART_IRQHandler+0x13a>
 8004786:	4620      	mov	r0, r4
 8004788:	e6d5      	b.n	8004536 <HAL_UART_IRQHandler+0x32>
 800478a:	0657      	lsls	r7, r2, #25
 800478c:	d511      	bpl.n	80047b2 <HAL_UART_IRQHandler+0x2ae>
 800478e:	064e      	lsls	r6, r1, #25
 8004790:	d50f      	bpl.n	80047b2 <HAL_UART_IRQHandler+0x2ae>
 8004792:	e853 2f00 	ldrex	r2, [r3]
 8004796:	f022 0240 	bic.w	r2, r2, #64	; 0x40
 800479a:	e843 2100 	strex	r1, r2, [r3]
 800479e:	2900      	cmp	r1, #0
 80047a0:	d1f7      	bne.n	8004792 <HAL_UART_IRQHandler+0x28e>
 80047a2:	2320      	movs	r3, #32
 80047a4:	f8c4 3084 	str.w	r3, [r4, #132]	; 0x84
 80047a8:	6761      	str	r1, [r4, #116]	; 0x74
 80047aa:	4620      	mov	r0, r4
 80047ac:	f7fd f926 	bl	80019fc <HAL_UART_TxCpltCallback>
 80047b0:	e745      	b.n	800463e <HAL_UART_IRQHandler+0x13a>
 80047b2:	0215      	lsls	r5, r2, #8
 80047b4:	d506      	bpl.n	80047c4 <HAL_UART_IRQHandler+0x2c0>
 80047b6:	0048      	lsls	r0, r1, #1
 80047b8:	d504      	bpl.n	80047c4 <HAL_UART_IRQHandler+0x2c0>
 80047ba:	4620      	mov	r0, r4
 80047bc:	e8bd 41f0 	ldmia.w	sp!, {r4, r5, r6, r7, r8, lr}
 80047c0:	f000 bd42 	b.w	8005248 <HAL_UARTEx_TxFifoEmptyCallback>
 80047c4:	01d3      	lsls	r3, r2, #7
 80047c6:	f57f af3a 	bpl.w	800463e <HAL_UART_IRQHandler+0x13a>
 80047ca:	2900      	cmp	r1, #0
 80047cc:	f6bf af37 	bge.w	800463e <HAL_UART_IRQHandler+0x13a>
 80047d0:	4620      	mov	r0, r4
 80047d2:	e8bd 41f0 	ldmia.w	sp!, {r4, r5, r6, r7, r8, lr}
 80047d6:	f000 bd36 	b.w	8005246 <HAL_UARTEx_RxFifoFullCallback>
 80047da:	bf00      	nop
 80047dc:	10000001 	.word	0x10000001
 80047e0:	04000120 	.word	0x04000120
 80047e4:	080044ef 	.word	0x080044ef
 80047e8:	effffffe 	.word	0xeffffffe

080047ec <UART_RxISR_8BIT>:
 80047ec:	f8d0 2088 	ldr.w	r2, [r0, #136]	; 0x88
 80047f0:	2a22      	cmp	r2, #34	; 0x22
 80047f2:	b508      	push	{r3, lr}
 80047f4:	6803      	ldr	r3, [r0, #0]
 80047f6:	d145      	bne.n	8004884 <UART_RxISR_8BIT+0x98>
 80047f8:	6a5b      	ldr	r3, [r3, #36]	; 0x24
 80047fa:	f8b0 1060 	ldrh.w	r1, [r0, #96]	; 0x60
 80047fe:	6d82      	ldr	r2, [r0, #88]	; 0x58
 8004800:	400b      	ands	r3, r1
 8004802:	7013      	strb	r3, [r2, #0]
 8004804:	6d83      	ldr	r3, [r0, #88]	; 0x58
 8004806:	3301      	adds	r3, #1
 8004808:	6583      	str	r3, [r0, #88]	; 0x58
 800480a:	f8b0 305e 	ldrh.w	r3, [r0, #94]	; 0x5e
 800480e:	3b01      	subs	r3, #1
 8004810:	b29b      	uxth	r3, r3
 8004812:	f8a0 305e 	strh.w	r3, [r0, #94]	; 0x5e
 8004816:	f8b0 305e 	ldrh.w	r3, [r0, #94]	; 0x5e
 800481a:	b29b      	uxth	r3, r3
 800481c:	bb73      	cbnz	r3, 800487c <UART_RxISR_8BIT+0x90>
 800481e:	6802      	ldr	r2, [r0, #0]
 8004820:	e852 3f00 	ldrex	r3, [r2]
 8004824:	f423 7390 	bic.w	r3, r3, #288	; 0x120
 8004828:	e842 3100 	strex	r1, r3, [r2]
 800482c:	6803      	ldr	r3, [r0, #0]
 800482e:	2900      	cmp	r1, #0
 8004830:	d1f5      	bne.n	800481e <UART_RxISR_8BIT+0x32>
 8004832:	f103 0208 	add.w	r2, r3, #8
 8004836:	e852 2f00 	ldrex	r2, [r2]
 800483a:	f022 0201 	bic.w	r2, r2, #1
 800483e:	f103 0c08 	add.w	ip, r3, #8
 8004842:	e84c 2100 	strex	r1, r2, [ip]
 8004846:	2900      	cmp	r1, #0
 8004848:	d1f3      	bne.n	8004832 <UART_RxISR_8BIT+0x46>
 800484a:	2220      	movs	r2, #32
 800484c:	f8c0 2088 	str.w	r2, [r0, #136]	; 0x88
 8004850:	6ec2      	ldr	r2, [r0, #108]	; 0x6c
 8004852:	6701      	str	r1, [r0, #112]	; 0x70
 8004854:	2a01      	cmp	r2, #1
 8004856:	d112      	bne.n	800487e <UART_RxISR_8BIT+0x92>
 8004858:	66c1      	str	r1, [r0, #108]	; 0x6c
 800485a:	e853 2f00 	ldrex	r2, [r3]
 800485e:	f022 0210 	bic.w	r2, r2, #16
 8004862:	e843 2100 	strex	r1, r2, [r3]
 8004866:	2900      	cmp	r1, #0
 8004868:	d1f7      	bne.n	800485a <UART_RxISR_8BIT+0x6e>
 800486a:	69da      	ldr	r2, [r3, #28]
 800486c:	f8b0 105c 	ldrh.w	r1, [r0, #92]	; 0x5c
 8004870:	06d2      	lsls	r2, r2, #27
 8004872:	bf44      	itt	mi
 8004874:	2210      	movmi	r2, #16
 8004876:	621a      	strmi	r2, [r3, #32]
 8004878:	f7ff fe43 	bl	8004502 <HAL_UARTEx_RxEventCallback>
 800487c:	bd08      	pop	{r3, pc}
 800487e:	f7fd f8cb 	bl	8001a18 <HAL_UART_RxCpltCallback>
 8004882:	e7fb      	b.n	800487c <UART_RxISR_8BIT+0x90>
 8004884:	699a      	ldr	r2, [r3, #24]
 8004886:	f042 0208 	orr.w	r2, r2, #8
 800488a:	619a      	str	r2, [r3, #24]
 800488c:	e7f6      	b.n	800487c <UART_RxISR_8BIT+0x90>

0800488e <UART_RxISR_16BIT>:
 800488e:	f8d0 2088 	ldr.w	r2, [r0, #136]	; 0x88
 8004892:	2a22      	cmp	r2, #34	; 0x22
 8004894:	b508      	push	{r3, lr}
 8004896:	6803      	ldr	r3, [r0, #0]
 8004898:	d142      	bne.n	8004920 <UART_RxISR_16BIT+0x92>
 800489a:	6a59      	ldr	r1, [r3, #36]	; 0x24
 800489c:	f8b0 2060 	ldrh.w	r2, [r0, #96]	; 0x60
 80048a0:	4011      	ands	r1, r2
 80048a2:	6d82      	ldr	r2, [r0, #88]	; 0x58
 80048a4:	f822 1b02 	strh.w	r1, [r2], #2
 80048a8:	6582      	str	r2, [r0, #88]	; 0x58
 80048aa:	f8b0 205e 	ldrh.w	r2, [r0, #94]	; 0x5e
 80048ae:	3a01      	subs	r2, #1
 80048b0:	b292      	uxth	r2, r2
 80048b2:	f8a0 205e 	strh.w	r2, [r0, #94]	; 0x5e
 80048b6:	f8b0 205e 	ldrh.w	r2, [r0, #94]	; 0x5e
 80048ba:	b292      	uxth	r2, r2
 80048bc:	bb62      	cbnz	r2, 8004918 <UART_RxISR_16BIT+0x8a>
 80048be:	e853 2f00 	ldrex	r2, [r3]
 80048c2:	f422 7290 	bic.w	r2, r2, #288	; 0x120
 80048c6:	e843 2100 	strex	r1, r2, [r3]
 80048ca:	2900      	cmp	r1, #0
 80048cc:	d1f7      	bne.n	80048be <UART_RxISR_16BIT+0x30>
 80048ce:	f103 0208 	add.w	r2, r3, #8
 80048d2:	e852 2f00 	ldrex	r2, [r2]
 80048d6:	f022 0201 	bic.w	r2, r2, #1
 80048da:	f103 0c08 	add.w	ip, r3, #8
 80048de:	e84c 2100 	strex	r1, r2, [ip]
 80048e2:	2900      	cmp	r1, #0
 80048e4:	d1f3      	bne.n	80048ce <UART_RxISR_16BIT+0x40>
 80048e6:	2220      	movs	r2, #32
 80048e8:	f8c0 2088 	str.w	r2, [r0, #136]	; 0x88
 80048ec:	6ec2      	ldr	r2, [r0, #108]	; 0x6c
 80048ee:	6701      	str	r1, [r0, #112]	; 0x70
 80048f0:	2a01      	cmp	r2, #1
 80048f2:	d112      	bne.n	800491a <UART_RxISR_16BIT+0x8c>
 80048f4:	66c1      	str	r1, [r0, #108]	; 0x6c
 80048f6:	e853 2f00 	ldrex	r2, [r3]
 80048fa:	f022 0210 	bic.w	r2, r2, #16
 80048fe:	e843 2100 	strex	r1, r2, [r3]
 8004902:	2900      	cmp	r1, #0
 8004904:	d1f7      	bne.n	80048f6 <UART_RxISR_16BIT+0x68>
 8004906:	69da      	ldr	r2, [r3, #28]
 8004908:	f8b0 105c 	ldrh.w	r1, [r0, #92]	; 0x5c
 800490c:	06d2      	lsls	r2, r2, #27
 800490e:	bf44      	itt	mi
 8004910:	2210      	movmi	r2, #16
 8004912:	621a      	strmi	r2, [r3, #32]
 8004914:	f7ff fdf5 	bl	8004502 <HAL_UARTEx_RxEventCallback>
 8004918:	bd08      	pop	{r3, pc}
 800491a:	f7fd f87d 	bl	8001a18 <HAL_UART_RxCpltCallback>
 800491e:	e7fb      	b.n	8004918 <UART_RxISR_16BIT+0x8a>
 8004920:	699a      	ldr	r2, [r3, #24]
 8004922:	f042 0208 	orr.w	r2, r2, #8
 8004926:	619a      	str	r2, [r3, #24]
 8004928:	e7f6      	b.n	8004918 <UART_RxISR_16BIT+0x8a>
	...

0800492c <UART_RxISR_8BIT_FIFOEN>:
 800492c:	e92d 4ff8 	stmdb	sp!, {r3, r4, r5, r6, r7, r8, r9, sl, fp, lr}
 8004930:	6803      	ldr	r3, [r0, #0]
 8004932:	69dd      	ldr	r5, [r3, #28]
 8004934:	f8d3 8000 	ldr.w	r8, [r3]
 8004938:	689e      	ldr	r6, [r3, #8]
 800493a:	f8d0 2088 	ldr.w	r2, [r0, #136]	; 0x88
 800493e:	2a22      	cmp	r2, #34	; 0x22
 8004940:	4604      	mov	r4, r0
 8004942:	f040 80a7 	bne.w	8004a94 <UART_RxISR_8BIT_FIFOEN+0x168>
 8004946:	f8b0 7060 	ldrh.w	r7, [r0, #96]	; 0x60
 800494a:	f8b0 9068 	ldrh.w	r9, [r0, #104]	; 0x68
 800494e:	f8df b150 	ldr.w	fp, [pc, #336]	; 8004aa0 <UART_RxISR_8BIT_FIFOEN+0x174>
 8004952:	f04f 0a00 	mov.w	sl, #0
 8004956:	f006 0601 	and.w	r6, r6, #1
 800495a:	f1b9 0f00 	cmp.w	r9, #0
 800495e:	d001      	beq.n	8004964 <UART_RxISR_8BIT_FIFOEN+0x38>
 8004960:	06ab      	lsls	r3, r5, #26
 8004962:	d420      	bmi.n	80049a6 <UART_RxISR_8BIT_FIFOEN+0x7a>
 8004964:	f8b4 305e 	ldrh.w	r3, [r4, #94]	; 0x5e
 8004968:	b29b      	uxth	r3, r3
 800496a:	b1d3      	cbz	r3, 80049a2 <UART_RxISR_8BIT_FIFOEN+0x76>
 800496c:	f8b4 2068 	ldrh.w	r2, [r4, #104]	; 0x68
 8004970:	429a      	cmp	r2, r3
 8004972:	d916      	bls.n	80049a2 <UART_RxISR_8BIT_FIFOEN+0x76>
 8004974:	6822      	ldr	r2, [r4, #0]
 8004976:	f102 0308 	add.w	r3, r2, #8
 800497a:	e853 3f00 	ldrex	r3, [r3]
 800497e:	f023 5380 	bic.w	r3, r3, #268435456	; 0x10000000
 8004982:	3208      	adds	r2, #8
 8004984:	e842 3100 	strex	r1, r3, [r2]
 8004988:	6822      	ldr	r2, [r4, #0]
 800498a:	2900      	cmp	r1, #0
 800498c:	d1f2      	bne.n	8004974 <UART_RxISR_8BIT_FIFOEN+0x48>
 800498e:	4b45      	ldr	r3, [pc, #276]	; (8004aa4 <UART_RxISR_8BIT_FIFOEN+0x178>)
 8004990:	6723      	str	r3, [r4, #112]	; 0x70
 8004992:	e852 3f00 	ldrex	r3, [r2]
 8004996:	f043 0320 	orr.w	r3, r3, #32
 800499a:	e842 3100 	strex	r1, r3, [r2]
 800499e:	2900      	cmp	r1, #0
 80049a0:	d1f7      	bne.n	8004992 <UART_RxISR_8BIT_FIFOEN+0x66>
 80049a2:	e8bd 8ff8 	ldmia.w	sp!, {r3, r4, r5, r6, r7, r8, r9, sl, fp, pc}
 80049a6:	6823      	ldr	r3, [r4, #0]
 80049a8:	6da2      	ldr	r2, [r4, #88]	; 0x58
 80049aa:	6a5b      	ldr	r3, [r3, #36]	; 0x24
 80049ac:	403b      	ands	r3, r7
 80049ae:	7013      	strb	r3, [r2, #0]
 80049b0:	6da3      	ldr	r3, [r4, #88]	; 0x58
 80049b2:	3301      	adds	r3, #1
 80049b4:	65a3      	str	r3, [r4, #88]	; 0x58
 80049b6:	f8b4 305e 	ldrh.w	r3, [r4, #94]	; 0x5e
 80049ba:	3b01      	subs	r3, #1
 80049bc:	b29b      	uxth	r3, r3
 80049be:	f8a4 305e 	strh.w	r3, [r4, #94]	; 0x5e
 80049c2:	6823      	ldr	r3, [r4, #0]
 80049c4:	69dd      	ldr	r5, [r3, #28]
 80049c6:	0769      	lsls	r1, r5, #29
 80049c8:	d02a      	beq.n	8004a20 <UART_RxISR_8BIT_FIFOEN+0xf4>
 80049ca:	07ea      	lsls	r2, r5, #31
 80049cc:	d50a      	bpl.n	80049e4 <UART_RxISR_8BIT_FIFOEN+0xb8>
 80049ce:	f418 7f80 	tst.w	r8, #256	; 0x100
 80049d2:	d007      	beq.n	80049e4 <UART_RxISR_8BIT_FIFOEN+0xb8>
 80049d4:	2201      	movs	r2, #1
 80049d6:	621a      	str	r2, [r3, #32]
 80049d8:	f8d4 208c 	ldr.w	r2, [r4, #140]	; 0x8c
 80049dc:	f042 0201 	orr.w	r2, r2, #1
 80049e0:	f8c4 208c 	str.w	r2, [r4, #140]	; 0x8c
 80049e4:	07a8      	lsls	r0, r5, #30
 80049e6:	d508      	bpl.n	80049fa <UART_RxISR_8BIT_FIFOEN+0xce>
 80049e8:	b13e      	cbz	r6, 80049fa <UART_RxISR_8BIT_FIFOEN+0xce>
 80049ea:	2202      	movs	r2, #2
 80049ec:	621a      	str	r2, [r3, #32]
 80049ee:	f8d4 208c 	ldr.w	r2, [r4, #140]	; 0x8c
 80049f2:	f042 0204 	orr.w	r2, r2, #4
 80049f6:	f8c4 208c 	str.w	r2, [r4, #140]	; 0x8c
 80049fa:	0769      	lsls	r1, r5, #29
 80049fc:	d508      	bpl.n	8004a10 <UART_RxISR_8BIT_FIFOEN+0xe4>
 80049fe:	b13e      	cbz	r6, 8004a10 <UART_RxISR_8BIT_FIFOEN+0xe4>
 8004a00:	2204      	movs	r2, #4
 8004a02:	621a      	str	r2, [r3, #32]
 8004a04:	f8d4 308c 	ldr.w	r3, [r4, #140]	; 0x8c
 8004a08:	f043 0302 	orr.w	r3, r3, #2
 8004a0c:	f8c4 308c 	str.w	r3, [r4, #140]	; 0x8c
 8004a10:	f8d4 308c 	ldr.w	r3, [r4, #140]	; 0x8c
 8004a14:	b123      	cbz	r3, 8004a20 <UART_RxISR_8BIT_FIFOEN+0xf4>
 8004a16:	4620      	mov	r0, r4
 8004a18:	f7ff fd43 	bl	80044a2 <HAL_UART_ErrorCallback>
 8004a1c:	f8c4 a08c 	str.w	sl, [r4, #140]	; 0x8c
 8004a20:	f8b4 305e 	ldrh.w	r3, [r4, #94]	; 0x5e
 8004a24:	b29b      	uxth	r3, r3
 8004a26:	2b00      	cmp	r3, #0
 8004a28:	d197      	bne.n	800495a <UART_RxISR_8BIT_FIFOEN+0x2e>
 8004a2a:	6822      	ldr	r2, [r4, #0]
 8004a2c:	e852 3f00 	ldrex	r3, [r2]
 8004a30:	f423 7380 	bic.w	r3, r3, #256	; 0x100
 8004a34:	e842 3100 	strex	r1, r3, [r2]
 8004a38:	6823      	ldr	r3, [r4, #0]
 8004a3a:	2900      	cmp	r1, #0
 8004a3c:	d1f5      	bne.n	8004a2a <UART_RxISR_8BIT_FIFOEN+0xfe>
 8004a3e:	f103 0208 	add.w	r2, r3, #8
 8004a42:	e852 2f00 	ldrex	r2, [r2]
 8004a46:	ea02 020b 	and.w	r2, r2, fp
 8004a4a:	f103 0008 	add.w	r0, r3, #8
 8004a4e:	e840 2100 	strex	r1, r2, [r0]
 8004a52:	2900      	cmp	r1, #0
 8004a54:	d1f3      	bne.n	8004a3e <UART_RxISR_8BIT_FIFOEN+0x112>
 8004a56:	2220      	movs	r2, #32
 8004a58:	f8c4 2088 	str.w	r2, [r4, #136]	; 0x88
 8004a5c:	6ee2      	ldr	r2, [r4, #108]	; 0x6c
 8004a5e:	6721      	str	r1, [r4, #112]	; 0x70
 8004a60:	2a01      	cmp	r2, #1
 8004a62:	d113      	bne.n	8004a8c <UART_RxISR_8BIT_FIFOEN+0x160>
 8004a64:	66e1      	str	r1, [r4, #108]	; 0x6c
 8004a66:	e853 2f00 	ldrex	r2, [r3]
 8004a6a:	f022 0210 	bic.w	r2, r2, #16
 8004a6e:	e843 2100 	strex	r1, r2, [r3]
 8004a72:	2900      	cmp	r1, #0
 8004a74:	d1f7      	bne.n	8004a66 <UART_RxISR_8BIT_FIFOEN+0x13a>
 8004a76:	69da      	ldr	r2, [r3, #28]
 8004a78:	f8b4 105c 	ldrh.w	r1, [r4, #92]	; 0x5c
 8004a7c:	06d2      	lsls	r2, r2, #27
 8004a7e:	bf44      	itt	mi
 8004a80:	2210      	movmi	r2, #16
 8004a82:	621a      	strmi	r2, [r3, #32]
 8004a84:	4620      	mov	r0, r4
 8004a86:	f7ff fd3c 	bl	8004502 <HAL_UARTEx_RxEventCallback>
 8004a8a:	e766      	b.n	800495a <UART_RxISR_8BIT_FIFOEN+0x2e>
 8004a8c:	4620      	mov	r0, r4
 8004a8e:	f7fc ffc3 	bl	8001a18 <HAL_UART_RxCpltCallback>
 8004a92:	e762      	b.n	800495a <UART_RxISR_8BIT_FIFOEN+0x2e>
 8004a94:	699a      	ldr	r2, [r3, #24]
 8004a96:	f042 0208 	orr.w	r2, r2, #8
 8004a9a:	619a      	str	r2, [r3, #24]
 8004a9c:	e781      	b.n	80049a2 <UART_RxISR_8BIT_FIFOEN+0x76>
 8004a9e:	bf00      	nop
 8004aa0:	effffffe 	.word	0xeffffffe
 8004aa4:	080047ed 	.word	0x080047ed

08004aa8 <UART_RxISR_16BIT_FIFOEN>:
 8004aa8:	e92d 4ff8 	stmdb	sp!, {r3, r4, r5, r6, r7, r8, r9, sl, fp, lr}
 8004aac:	6803      	ldr	r3, [r0, #0]
 8004aae:	69dd      	ldr	r5, [r3, #28]
 8004ab0:	f8d3 8000 	ldr.w	r8, [r3]
 8004ab4:	689e      	ldr	r6, [r3, #8]
 8004ab6:	f8d0 2088 	ldr.w	r2, [r0, #136]	; 0x88
 8004aba:	2a22      	cmp	r2, #34	; 0x22
 8004abc:	4604      	mov	r4, r0
 8004abe:	f040 80a5 	bne.w	8004c0c <UART_RxISR_16BIT_FIFOEN+0x164>
 8004ac2:	f8b0 7060 	ldrh.w	r7, [r0, #96]	; 0x60
 8004ac6:	f8b0 9068 	ldrh.w	r9, [r0, #104]	; 0x68
 8004aca:	f8df b14c 	ldr.w	fp, [pc, #332]	; 8004c18 <UART_RxISR_16BIT_FIFOEN+0x170>
 8004ace:	f04f 0a00 	mov.w	sl, #0
 8004ad2:	f006 0601 	and.w	r6, r6, #1
 8004ad6:	f1b9 0f00 	cmp.w	r9, #0
 8004ada:	d001      	beq.n	8004ae0 <UART_RxISR_16BIT_FIFOEN+0x38>
 8004adc:	06ab      	lsls	r3, r5, #26
 8004ade:	d420      	bmi.n	8004b22 <UART_RxISR_16BIT_FIFOEN+0x7a>
 8004ae0:	f8b4 305e 	ldrh.w	r3, [r4, #94]	; 0x5e
 8004ae4:	b29b      	uxth	r3, r3
 8004ae6:	b1d3      	cbz	r3, 8004b1e <UART_RxISR_16BIT_FIFOEN+0x76>
 8004ae8:	f8b4 2068 	ldrh.w	r2, [r4, #104]	; 0x68
 8004aec:	429a      	cmp	r2, r3
 8004aee:	d916      	bls.n	8004b1e <UART_RxISR_16BIT_FIFOEN+0x76>
 8004af0:	6822      	ldr	r2, [r4, #0]
 8004af2:	f102 0308 	add.w	r3, r2, #8
 8004af6:	e853 3f00 	ldrex	r3, [r3]
 8004afa:	f023 5380 	bic.w	r3, r3, #268435456	; 0x10000000
 8004afe:	3208      	adds	r2, #8
 8004b00:	e842 3100 	strex	r1, r3, [r2]
 8004b04:	6822      	ldr	r2, [r4, #0]
 8004b06:	2900      	cmp	r1, #0
 8004b08:	d1f2      	bne.n	8004af0 <UART_RxISR_16BIT_FIFOEN+0x48>
 8004b0a:	4b44      	ldr	r3, [pc, #272]	; (8004c1c <UART_RxISR_16BIT_FIFOEN+0x174>)
 8004b0c:	6723      	str	r3, [r4, #112]	; 0x70
 8004b0e:	e852 3f00 	ldrex	r3, [r2]
 8004b12:	f043 0320 	orr.w	r3, r3, #32
 8004b16:	e842 3100 	strex	r1, r3, [r2]
 8004b1a:	2900      	cmp	r1, #0
 8004b1c:	d1f7      	bne.n	8004b0e <UART_RxISR_16BIT_FIFOEN+0x66>
 8004b1e:	e8bd 8ff8 	ldmia.w	sp!, {r3, r4, r5, r6, r7, r8, r9, sl, fp, pc}
 8004b22:	6823      	ldr	r3, [r4, #0]
 8004b24:	6da2      	ldr	r2, [r4, #88]	; 0x58
 8004b26:	6a59      	ldr	r1, [r3, #36]	; 0x24
 8004b28:	4039      	ands	r1, r7
 8004b2a:	f822 1b02 	strh.w	r1, [r2], #2
 8004b2e:	65a2      	str	r2, [r4, #88]	; 0x58
 8004b30:	f8b4 205e 	ldrh.w	r2, [r4, #94]	; 0x5e
 8004b34:	3a01      	subs	r2, #1
 8004b36:	b292      	uxth	r2, r2
 8004b38:	f8a4 205e 	strh.w	r2, [r4, #94]	; 0x5e
 8004b3c:	69dd      	ldr	r5, [r3, #28]
 8004b3e:	0769      	lsls	r1, r5, #29
 8004b40:	d02a      	beq.n	8004b98 <UART_RxISR_16BIT_FIFOEN+0xf0>
 8004b42:	07ea      	lsls	r2, r5, #31
 8004b44:	d50a      	bpl.n	8004b5c <UART_RxISR_16BIT_FIFOEN+0xb4>
 8004b46:	f418 7f80 	tst.w	r8, #256	; 0x100
 8004b4a:	d007      	beq.n	8004b5c <UART_RxISR_16BIT_FIFOEN+0xb4>
 8004b4c:	2201      	movs	r2, #1
 8004b4e:	621a      	str	r2, [r3, #32]
 8004b50:	f8d4 208c 	ldr.w	r2, [r4, #140]	; 0x8c
 8004b54:	f042 0201 	orr.w	r2, r2, #1
 8004b58:	f8c4 208c 	str.w	r2, [r4, #140]	; 0x8c
 8004b5c:	07a8      	lsls	r0, r5, #30
 8004b5e:	d508      	bpl.n	8004b72 <UART_RxISR_16BIT_FIFOEN+0xca>
 8004b60:	b13e      	cbz	r6, 8004b72 <UART_RxISR_16BIT_FIFOEN+0xca>
 8004b62:	2202      	movs	r2, #2
 8004b64:	621a      	str	r2, [r3, #32]
 8004b66:	f8d4 208c 	ldr.w	r2, [r4, #140]	; 0x8c
 8004b6a:	f042 0204 	orr.w	r2, r2, #4
 8004b6e:	f8c4 208c 	str.w	r2, [r4, #140]	; 0x8c
 8004b72:	0769      	lsls	r1, r5, #29
 8004b74:	d508      	bpl.n	8004b88 <UART_RxISR_16BIT_FIFOEN+0xe0>
 8004b76:	b13e      	cbz	r6, 8004b88 <UART_RxISR_16BIT_FIFOEN+0xe0>
 8004b78:	2204      	movs	r2, #4
 8004b7a:	621a      	str	r2, [r3, #32]
 8004b7c:	f8d4 308c 	ldr.w	r3, [r4, #140]	; 0x8c
 8004b80:	f043 0302 	orr.w	r3, r3, #2
 8004b84:	f8c4 308c 	str.w	r3, [r4, #140]	; 0x8c
 8004b88:	f8d4 308c 	ldr.w	r3, [r4, #140]	; 0x8c
 8004b8c:	b123      	cbz	r3, 8004b98 <UART_RxISR_16BIT_FIFOEN+0xf0>
 8004b8e:	4620      	mov	r0, r4
 8004b90:	f7ff fc87 	bl	80044a2 <HAL_UART_ErrorCallback>
 8004b94:	f8c4 a08c 	str.w	sl, [r4, #140]	; 0x8c
 8004b98:	f8b4 305e 	ldrh.w	r3, [r4, #94]	; 0x5e
 8004b9c:	b29b      	uxth	r3, r3
 8004b9e:	2b00      	cmp	r3, #0
 8004ba0:	d199      	bne.n	8004ad6 <UART_RxISR_16BIT_FIFOEN+0x2e>
 8004ba2:	6822      	ldr	r2, [r4, #0]
 8004ba4:	e852 3f00 	ldrex	r3, [r2]
 8004ba8:	f423 7380 	bic.w	r3, r3, #256	; 0x100
 8004bac:	e842 3100 	strex	r1, r3, [r2]
 8004bb0:	6823      	ldr	r3, [r4, #0]
 8004bb2:	2900      	cmp	r1, #0
 8004bb4:	d1f5      	bne.n	8004ba2 <UART_RxISR_16BIT_FIFOEN+0xfa>
 8004bb6:	f103 0208 	add.w	r2, r3, #8
 8004bba:	e852 2f00 	ldrex	r2, [r2]
 8004bbe:	ea02 020b 	and.w	r2, r2, fp
 8004bc2:	f103 0008 	add.w	r0, r3, #8
 8004bc6:	e840 2100 	strex	r1, r2, [r0]
 8004bca:	2900      	cmp	r1, #0
 8004bcc:	d1f3      	bne.n	8004bb6 <UART_RxISR_16BIT_FIFOEN+0x10e>
 8004bce:	2220      	movs	r2, #32
 8004bd0:	f8c4 2088 	str.w	r2, [r4, #136]	; 0x88
 8004bd4:	6ee2      	ldr	r2, [r4, #108]	; 0x6c
 8004bd6:	6721      	str	r1, [r4, #112]	; 0x70
 8004bd8:	2a01      	cmp	r2, #1
 8004bda:	d113      	bne.n	8004c04 <UART_RxISR_16BIT_FIFOEN+0x15c>
 8004bdc:	66e1      	str	r1, [r4, #108]	; 0x6c
 8004bde:	e853 2f00 	ldrex	r2, [r3]
 8004be2:	f022 0210 	bic.w	r2, r2, #16
 8004be6:	e843 2100 	strex	r1, r2, [r3]
 8004bea:	2900      	cmp	r1, #0
 8004bec:	d1f7      	bne.n	8004bde <UART_RxISR_16BIT_FIFOEN+0x136>
 8004bee:	69da      	ldr	r2, [r3, #28]
 8004bf0:	f8b4 105c 	ldrh.w	r1, [r4, #92]	; 0x5c
 8004bf4:	06d2      	lsls	r2, r2, #27
 8004bf6:	bf44      	itt	mi
 8004bf8:	2210      	movmi	r2, #16
 8004bfa:	621a      	strmi	r2, [r3, #32]
 8004bfc:	4620      	mov	r0, r4
 8004bfe:	f7ff fc80 	bl	8004502 <HAL_UARTEx_RxEventCallback>
 8004c02:	e768      	b.n	8004ad6 <UART_RxISR_16BIT_FIFOEN+0x2e>
 8004c04:	4620      	mov	r0, r4
 8004c06:	f7fc ff07 	bl	8001a18 <HAL_UART_RxCpltCallback>
 8004c0a:	e764      	b.n	8004ad6 <UART_RxISR_16BIT_FIFOEN+0x2e>
 8004c0c:	699a      	ldr	r2, [r3, #24]
 8004c0e:	f042 0208 	orr.w	r2, r2, #8
 8004c12:	619a      	str	r2, [r3, #24]
 8004c14:	e783      	b.n	8004b1e <UART_RxISR_16BIT_FIFOEN+0x76>
 8004c16:	bf00      	nop
 8004c18:	effffffe 	.word	0xeffffffe
 8004c1c:	0800488f 	.word	0x0800488f

08004c20 <UART_SetConfig>:
 8004c20:	b538      	push	{r3, r4, r5, lr}
 8004c22:	4604      	mov	r4, r0
 8004c24:	6803      	ldr	r3, [r0, #0]
 8004c26:	6921      	ldr	r1, [r4, #16]
 8004c28:	68a2      	ldr	r2, [r4, #8]
 8004c2a:	681d      	ldr	r5, [r3, #0]
 8004c2c:	69c0      	ldr	r0, [r0, #28]
 8004c2e:	430a      	orrs	r2, r1
 8004c30:	6961      	ldr	r1, [r4, #20]
 8004c32:	430a      	orrs	r2, r1
 8004c34:	497e      	ldr	r1, [pc, #504]	; (8004e30 <UART_SetConfig+0x210>)
 8004c36:	4302      	orrs	r2, r0
 8004c38:	4029      	ands	r1, r5
 8004c3a:	430a      	orrs	r2, r1
 8004c3c:	601a      	str	r2, [r3, #0]
 8004c3e:	685a      	ldr	r2, [r3, #4]
 8004c40:	68e1      	ldr	r1, [r4, #12]
 8004c42:	f422 5240 	bic.w	r2, r2, #12288	; 0x3000
 8004c46:	430a      	orrs	r2, r1
 8004c48:	605a      	str	r2, [r3, #4]
 8004c4a:	4a7a      	ldr	r2, [pc, #488]	; (8004e34 <UART_SetConfig+0x214>)
 8004c4c:	69a1      	ldr	r1, [r4, #24]
 8004c4e:	4293      	cmp	r3, r2
 8004c50:	bf1c      	itt	ne
 8004c52:	6a22      	ldrne	r2, [r4, #32]
 8004c54:	4311      	orrne	r1, r2
 8004c56:	689a      	ldr	r2, [r3, #8]
 8004c58:	f022 426e 	bic.w	r2, r2, #3992977408	; 0xee000000
 8004c5c:	f422 6230 	bic.w	r2, r2, #2816	; 0xb00
 8004c60:	430a      	orrs	r2, r1
 8004c62:	609a      	str	r2, [r3, #8]
 8004c64:	6ada      	ldr	r2, [r3, #44]	; 0x2c
 8004c66:	6a61      	ldr	r1, [r4, #36]	; 0x24
 8004c68:	f022 020f 	bic.w	r2, r2, #15
 8004c6c:	430a      	orrs	r2, r1
 8004c6e:	62da      	str	r2, [r3, #44]	; 0x2c
 8004c70:	4a71      	ldr	r2, [pc, #452]	; (8004e38 <UART_SetConfig+0x218>)
 8004c72:	4293      	cmp	r3, r2
 8004c74:	d11c      	bne.n	8004cb0 <UART_SetConfig+0x90>
 8004c76:	f04f 43b0 	mov.w	r3, #1476395008	; 0x58000000
 8004c7a:	f8d3 3088 	ldr.w	r3, [r3, #136]	; 0x88
 8004c7e:	f003 0303 	and.w	r3, r3, #3
 8004c82:	f443 3340 	orr.w	r3, r3, #196608	; 0x30000
 8004c86:	f5a3 3340 	sub.w	r3, r3, #196608	; 0x30000
 8004c8a:	3b01      	subs	r3, #1
 8004c8c:	2b02      	cmp	r3, #2
 8004c8e:	f200 80c8 	bhi.w	8004e22 <UART_SetConfig+0x202>
 8004c92:	4a6a      	ldr	r2, [pc, #424]	; (8004e3c <UART_SetConfig+0x21c>)
 8004c94:	5c9b      	ldrb	r3, [r3, r2]
 8004c96:	f5b0 4f00 	cmp.w	r0, #32768	; 0x8000
 8004c9a:	f040 808a 	bne.w	8004db2 <UART_SetConfig+0x192>
 8004c9e:	2b08      	cmp	r3, #8
 8004ca0:	d824      	bhi.n	8004cec <UART_SetConfig+0xcc>
 8004ca2:	e8df f003 	tbb	[pc, r3]
 8004ca6:	c161      	.short	0xc161
 8004ca8:	23812384 	.word	0x23812384
 8004cac:	2323      	.short	0x2323
 8004cae:	65          	.byte	0x65
 8004caf:	00          	.byte	0x00
 8004cb0:	4a63      	ldr	r2, [pc, #396]	; (8004e40 <UART_SetConfig+0x220>)
 8004cb2:	4293      	cmp	r3, r2
 8004cb4:	d109      	bne.n	8004cca <UART_SetConfig+0xaa>
 8004cb6:	f04f 43b0 	mov.w	r3, #1476395008	; 0x58000000
 8004cba:	4a62      	ldr	r2, [pc, #392]	; (8004e44 <UART_SetConfig+0x224>)
 8004cbc:	f8d3 3088 	ldr.w	r3, [r3, #136]	; 0x88
 8004cc0:	f003 030c 	and.w	r3, r3, #12
 8004cc4:	f443 2340 	orr.w	r3, r3, #786432	; 0xc0000
 8004cc8:	e7e4      	b.n	8004c94 <UART_SetConfig+0x74>
 8004cca:	4a5a      	ldr	r2, [pc, #360]	; (8004e34 <UART_SetConfig+0x214>)
 8004ccc:	4293      	cmp	r3, r2
 8004cce:	d10d      	bne.n	8004cec <UART_SetConfig+0xcc>
 8004cd0:	f04f 43b0 	mov.w	r3, #1476395008	; 0x58000000
 8004cd4:	f8d3 3088 	ldr.w	r3, [r3, #136]	; 0x88
 8004cd8:	f403 6340 	and.w	r3, r3, #3072	; 0xc00
 8004cdc:	f5b3 6f00 	cmp.w	r3, #2048	; 0x800
 8004ce0:	d01a      	beq.n	8004d18 <UART_SetConfig+0xf8>
 8004ce2:	d805      	bhi.n	8004cf0 <UART_SetConfig+0xd0>
 8004ce4:	b153      	cbz	r3, 8004cfc <UART_SetConfig+0xdc>
 8004ce6:	f5b3 6f80 	cmp.w	r3, #1024	; 0x400
 8004cea:	d012      	beq.n	8004d12 <UART_SetConfig+0xf2>
 8004cec:	2001      	movs	r0, #1
 8004cee:	e009      	b.n	8004d04 <UART_SetConfig+0xe4>
 8004cf0:	f5b3 6f40 	cmp.w	r3, #3072	; 0xc00
 8004cf4:	d1fa      	bne.n	8004cec <UART_SetConfig+0xcc>
 8004cf6:	f44f 4000 	mov.w	r0, #32768	; 0x8000
 8004cfa:	e00e      	b.n	8004d1a <UART_SetConfig+0xfa>
 8004cfc:	f7fe fd1a 	bl	8003734 <HAL_RCC_GetPCLK1Freq>
 8004d00:	b958      	cbnz	r0, 8004d1a <UART_SetConfig+0xfa>
 8004d02:	2000      	movs	r0, #0
 8004d04:	f04f 1301 	mov.w	r3, #65537	; 0x10001
 8004d08:	66a3      	str	r3, [r4, #104]	; 0x68
 8004d0a:	2300      	movs	r3, #0
 8004d0c:	e9c4 331c 	strd	r3, r3, [r4, #112]	; 0x70
 8004d10:	bd38      	pop	{r3, r4, r5, pc}
 8004d12:	f7fe f913 	bl	8002f3c <HAL_RCC_GetSysClockFreq>
 8004d16:	e7f3      	b.n	8004d00 <UART_SetConfig+0xe0>
 8004d18:	484b      	ldr	r0, [pc, #300]	; (8004e48 <UART_SetConfig+0x228>)
 8004d1a:	6865      	ldr	r5, [r4, #4]
 8004d1c:	4b4b      	ldr	r3, [pc, #300]	; (8004e4c <UART_SetConfig+0x22c>)
 8004d1e:	6a62      	ldr	r2, [r4, #36]	; 0x24
 8004d20:	eb05 0145 	add.w	r1, r5, r5, lsl #1
 8004d24:	f833 2012 	ldrh.w	r2, [r3, r2, lsl #1]
 8004d28:	fbb0 f3f2 	udiv	r3, r0, r2
 8004d2c:	4299      	cmp	r1, r3
 8004d2e:	d8dd      	bhi.n	8004cec <UART_SetConfig+0xcc>
 8004d30:	ebb3 3f05 	cmp.w	r3, r5, lsl #12
 8004d34:	d8da      	bhi.n	8004cec <UART_SetConfig+0xcc>
 8004d36:	2300      	movs	r3, #0
 8004d38:	4619      	mov	r1, r3
 8004d3a:	f7fb fe19 	bl	8000970 <__aeabi_uldivmod>
 8004d3e:	0209      	lsls	r1, r1, #8
 8004d40:	ea41 6110 	orr.w	r1, r1, r0, lsr #24
 8004d44:	086b      	lsrs	r3, r5, #1
 8004d46:	0200      	lsls	r0, r0, #8
 8004d48:	18c0      	adds	r0, r0, r3
 8004d4a:	462a      	mov	r2, r5
 8004d4c:	f04f 0300 	mov.w	r3, #0
 8004d50:	f141 0100 	adc.w	r1, r1, #0
 8004d54:	f7fb fe0c 	bl	8000970 <__aeabi_uldivmod>
 8004d58:	4b3d      	ldr	r3, [pc, #244]	; (8004e50 <UART_SetConfig+0x230>)
 8004d5a:	f5a0 7240 	sub.w	r2, r0, #768	; 0x300
 8004d5e:	429a      	cmp	r2, r3
 8004d60:	d8c4      	bhi.n	8004cec <UART_SetConfig+0xcc>
 8004d62:	6823      	ldr	r3, [r4, #0]
 8004d64:	60d8      	str	r0, [r3, #12]
 8004d66:	e7cc      	b.n	8004d02 <UART_SetConfig+0xe2>
 8004d68:	f7fe fce4 	bl	8003734 <HAL_RCC_GetPCLK1Freq>
 8004d6c:	2800      	cmp	r0, #0
 8004d6e:	d0c8      	beq.n	8004d02 <UART_SetConfig+0xe2>
 8004d70:	6862      	ldr	r2, [r4, #4]
 8004d72:	6a61      	ldr	r1, [r4, #36]	; 0x24
 8004d74:	4b35      	ldr	r3, [pc, #212]	; (8004e4c <UART_SetConfig+0x22c>)
 8004d76:	f833 3011 	ldrh.w	r3, [r3, r1, lsl #1]
 8004d7a:	fbb0 f3f3 	udiv	r3, r0, r3
 8004d7e:	0850      	lsrs	r0, r2, #1
 8004d80:	eb00 0043 	add.w	r0, r0, r3, lsl #1
 8004d84:	fbb0 f0f2 	udiv	r0, r0, r2
 8004d88:	b283      	uxth	r3, r0
 8004d8a:	f1a3 0110 	sub.w	r1, r3, #16
 8004d8e:	f64f 72ef 	movw	r2, #65519	; 0xffef
 8004d92:	4291      	cmp	r1, r2
 8004d94:	d8aa      	bhi.n	8004cec <UART_SetConfig+0xcc>
 8004d96:	f020 000f 	bic.w	r0, r0, #15
 8004d9a:	6822      	ldr	r2, [r4, #0]
 8004d9c:	b280      	uxth	r0, r0
 8004d9e:	f3c3 0342 	ubfx	r3, r3, #1, #3
 8004da2:	4318      	orrs	r0, r3
 8004da4:	60d0      	str	r0, [r2, #12]
 8004da6:	e7ac      	b.n	8004d02 <UART_SetConfig+0xe2>
 8004da8:	f7fe f8c8 	bl	8002f3c <HAL_RCC_GetSysClockFreq>
 8004dac:	e7de      	b.n	8004d6c <UART_SetConfig+0x14c>
 8004dae:	4826      	ldr	r0, [pc, #152]	; (8004e48 <UART_SetConfig+0x228>)
 8004db0:	e7de      	b.n	8004d70 <UART_SetConfig+0x150>
 8004db2:	2b08      	cmp	r3, #8
 8004db4:	d89a      	bhi.n	8004cec <UART_SetConfig+0xcc>
 8004db6:	a201      	add	r2, pc, #4	; (adr r2, 8004dbc <UART_SetConfig+0x19c>)
 8004db8:	f852 f023 	ldr.w	pc, [r2, r3, lsl #2]
 8004dbc:	08004e07 	.word	0x08004e07
 8004dc0:	08004e13 	.word	0x08004e13
 8004dc4:	08004e1f 	.word	0x08004e1f
 8004dc8:	08004ced 	.word	0x08004ced
 8004dcc:	08004e19 	.word	0x08004e19
 8004dd0:	08004ced 	.word	0x08004ced
 8004dd4:	08004ced 	.word	0x08004ced
 8004dd8:	08004ced 	.word	0x08004ced
 8004ddc:	08004de1 	.word	0x08004de1
 8004de0:	f44f 4000 	mov.w	r0, #32768	; 0x8000
 8004de4:	6863      	ldr	r3, [r4, #4]
 8004de6:	6a61      	ldr	r1, [r4, #36]	; 0x24
 8004de8:	4a18      	ldr	r2, [pc, #96]	; (8004e4c <UART_SetConfig+0x22c>)
 8004dea:	f832 2011 	ldrh.w	r2, [r2, r1, lsl #1]
 8004dee:	fbb0 f0f2 	udiv	r0, r0, r2
 8004df2:	eb00 0053 	add.w	r0, r0, r3, lsr #1
 8004df6:	fbb0 f0f3 	udiv	r0, r0, r3
 8004dfa:	b280      	uxth	r0, r0
 8004dfc:	f1a0 0210 	sub.w	r2, r0, #16
 8004e00:	f64f 73ef 	movw	r3, #65519	; 0xffef
 8004e04:	e7ab      	b.n	8004d5e <UART_SetConfig+0x13e>
 8004e06:	f7fe fc95 	bl	8003734 <HAL_RCC_GetPCLK1Freq>
 8004e0a:	2800      	cmp	r0, #0
 8004e0c:	f43f af79 	beq.w	8004d02 <UART_SetConfig+0xe2>
 8004e10:	e7e8      	b.n	8004de4 <UART_SetConfig+0x1c4>
 8004e12:	f7fe fc9f 	bl	8003754 <HAL_RCC_GetPCLK2Freq>
 8004e16:	e7f8      	b.n	8004e0a <UART_SetConfig+0x1ea>
 8004e18:	f7fe f890 	bl	8002f3c <HAL_RCC_GetSysClockFreq>
 8004e1c:	e7f5      	b.n	8004e0a <UART_SetConfig+0x1ea>
 8004e1e:	480a      	ldr	r0, [pc, #40]	; (8004e48 <UART_SetConfig+0x228>)
 8004e20:	e7e0      	b.n	8004de4 <UART_SetConfig+0x1c4>
 8004e22:	f5b0 4f00 	cmp.w	r0, #32768	; 0x8000
 8004e26:	d1f4      	bne.n	8004e12 <UART_SetConfig+0x1f2>
 8004e28:	f7fe fc94 	bl	8003754 <HAL_RCC_GetPCLK2Freq>
 8004e2c:	e79e      	b.n	8004d6c <UART_SetConfig+0x14c>
 8004e2e:	bf00      	nop
 8004e30:	cfff69f3 	.word	0xcfff69f3
 8004e34:	40008000 	.word	0x40008000
 8004e38:	40013800 	.word	0x40013800
 8004e3c:	0800ea6c 	.word	0x0800ea6c
 8004e40:	40004400 	.word	0x40004400
 8004e44:	07f4ea6f 	.word	0x07f4ea6f
 8004e48:	00f42400 	.word	0x00f42400
 8004e4c:	0800ea7c 	.word	0x0800ea7c
 8004e50:	000ffcff 	.word	0x000ffcff

08004e54 <UART_AdvFeatureConfig>:
 8004e54:	6a83      	ldr	r3, [r0, #40]	; 0x28
 8004e56:	07da      	lsls	r2, r3, #31
 8004e58:	b510      	push	{r4, lr}
 8004e5a:	d506      	bpl.n	8004e6a <UART_AdvFeatureConfig+0x16>
 8004e5c:	6801      	ldr	r1, [r0, #0]
 8004e5e:	6ac4      	ldr	r4, [r0, #44]	; 0x2c
 8004e60:	684a      	ldr	r2, [r1, #4]
 8004e62:	f422 3200 	bic.w	r2, r2, #131072	; 0x20000
 8004e66:	4322      	orrs	r2, r4
 8004e68:	604a      	str	r2, [r1, #4]
 8004e6a:	079c      	lsls	r4, r3, #30
 8004e6c:	d506      	bpl.n	8004e7c <UART_AdvFeatureConfig+0x28>
 8004e6e:	6801      	ldr	r1, [r0, #0]
 8004e70:	6b04      	ldr	r4, [r0, #48]	; 0x30
 8004e72:	684a      	ldr	r2, [r1, #4]
 8004e74:	f422 3280 	bic.w	r2, r2, #65536	; 0x10000
 8004e78:	4322      	orrs	r2, r4
 8004e7a:	604a      	str	r2, [r1, #4]
 8004e7c:	0759      	lsls	r1, r3, #29
 8004e7e:	d506      	bpl.n	8004e8e <UART_AdvFeatureConfig+0x3a>
 8004e80:	6801      	ldr	r1, [r0, #0]
 8004e82:	6b44      	ldr	r4, [r0, #52]	; 0x34
 8004e84:	684a      	ldr	r2, [r1, #4]
 8004e86:	f422 2280 	bic.w	r2, r2, #262144	; 0x40000
 8004e8a:	4322      	orrs	r2, r4
 8004e8c:	604a      	str	r2, [r1, #4]
 8004e8e:	071a      	lsls	r2, r3, #28
 8004e90:	d506      	bpl.n	8004ea0 <UART_AdvFeatureConfig+0x4c>
 8004e92:	6801      	ldr	r1, [r0, #0]
 8004e94:	6b84      	ldr	r4, [r0, #56]	; 0x38
 8004e96:	684a      	ldr	r2, [r1, #4]
 8004e98:	f422 4200 	bic.w	r2, r2, #32768	; 0x8000
 8004e9c:	4322      	orrs	r2, r4
 8004e9e:	604a      	str	r2, [r1, #4]
 8004ea0:	06dc      	lsls	r4, r3, #27
 8004ea2:	d506      	bpl.n	8004eb2 <UART_AdvFeatureConfig+0x5e>
 8004ea4:	6801      	ldr	r1, [r0, #0]
 8004ea6:	6bc4      	ldr	r4, [r0, #60]	; 0x3c
 8004ea8:	688a      	ldr	r2, [r1, #8]
 8004eaa:	f422 5280 	bic.w	r2, r2, #4096	; 0x1000
 8004eae:	4322      	orrs	r2, r4
 8004eb0:	608a      	str	r2, [r1, #8]
 8004eb2:	0699      	lsls	r1, r3, #26
 8004eb4:	d506      	bpl.n	8004ec4 <UART_AdvFeatureConfig+0x70>
 8004eb6:	6801      	ldr	r1, [r0, #0]
 8004eb8:	6c04      	ldr	r4, [r0, #64]	; 0x40
 8004eba:	688a      	ldr	r2, [r1, #8]
 8004ebc:	f422 5200 	bic.w	r2, r2, #8192	; 0x2000
 8004ec0:	4322      	orrs	r2, r4
 8004ec2:	608a      	str	r2, [r1, #8]
 8004ec4:	065a      	lsls	r2, r3, #25
 8004ec6:	d50f      	bpl.n	8004ee8 <UART_AdvFeatureConfig+0x94>
 8004ec8:	6801      	ldr	r1, [r0, #0]
 8004eca:	6c44      	ldr	r4, [r0, #68]	; 0x44
 8004ecc:	684a      	ldr	r2, [r1, #4]
 8004ece:	f422 1280 	bic.w	r2, r2, #1048576	; 0x100000
 8004ed2:	4322      	orrs	r2, r4
 8004ed4:	f5b4 1f80 	cmp.w	r4, #1048576	; 0x100000
 8004ed8:	604a      	str	r2, [r1, #4]
 8004eda:	d105      	bne.n	8004ee8 <UART_AdvFeatureConfig+0x94>
 8004edc:	684a      	ldr	r2, [r1, #4]
 8004ede:	6c84      	ldr	r4, [r0, #72]	; 0x48
 8004ee0:	f422 02c0 	bic.w	r2, r2, #6291456	; 0x600000
 8004ee4:	4322      	orrs	r2, r4
 8004ee6:	604a      	str	r2, [r1, #4]
 8004ee8:	061b      	lsls	r3, r3, #24
 8004eea:	d506      	bpl.n	8004efa <UART_AdvFeatureConfig+0xa6>
 8004eec:	6802      	ldr	r2, [r0, #0]
 8004eee:	6cc1      	ldr	r1, [r0, #76]	; 0x4c
 8004ef0:	6853      	ldr	r3, [r2, #4]
 8004ef2:	f423 2300 	bic.w	r3, r3, #524288	; 0x80000
 8004ef6:	430b      	orrs	r3, r1
 8004ef8:	6053      	str	r3, [r2, #4]
 8004efa:	bd10      	pop	{r4, pc}

08004efc <UART_WaitOnFlagUntilTimeout>:
 8004efc:	e92d 41f0 	stmdb	sp!, {r4, r5, r6, r7, r8, lr}
 8004f00:	f8dd 8018 	ldr.w	r8, [sp, #24]
 8004f04:	4604      	mov	r4, r0
 8004f06:	460e      	mov	r6, r1
 8004f08:	4615      	mov	r5, r2
 8004f0a:	461f      	mov	r7, r3
 8004f0c:	6822      	ldr	r2, [r4, #0]
 8004f0e:	69d3      	ldr	r3, [r2, #28]
 8004f10:	ea36 0303 	bics.w	r3, r6, r3
 8004f14:	bf0c      	ite	eq
 8004f16:	2301      	moveq	r3, #1
 8004f18:	2300      	movne	r3, #0
 8004f1a:	42ab      	cmp	r3, r5
 8004f1c:	d001      	beq.n	8004f22 <UART_WaitOnFlagUntilTimeout+0x26>
 8004f1e:	2000      	movs	r0, #0
 8004f20:	e027      	b.n	8004f72 <UART_WaitOnFlagUntilTimeout+0x76>
 8004f22:	f1b8 3fff 	cmp.w	r8, #4294967295
 8004f26:	d0f2      	beq.n	8004f0e <UART_WaitOnFlagUntilTimeout+0x12>
 8004f28:	f7fc fb12 	bl	8001550 <HAL_GetTick>
 8004f2c:	1bc0      	subs	r0, r0, r7
 8004f2e:	4540      	cmp	r0, r8
 8004f30:	6820      	ldr	r0, [r4, #0]
 8004f32:	d802      	bhi.n	8004f3a <UART_WaitOnFlagUntilTimeout+0x3e>
 8004f34:	f1b8 0f00 	cmp.w	r8, #0
 8004f38:	d11d      	bne.n	8004f76 <UART_WaitOnFlagUntilTimeout+0x7a>
 8004f3a:	e850 3f00 	ldrex	r3, [r0]
 8004f3e:	f423 73d0 	bic.w	r3, r3, #416	; 0x1a0
 8004f42:	e840 3200 	strex	r2, r3, [r0]
 8004f46:	2a00      	cmp	r2, #0
 8004f48:	d1f7      	bne.n	8004f3a <UART_WaitOnFlagUntilTimeout+0x3e>
 8004f4a:	f100 0308 	add.w	r3, r0, #8
 8004f4e:	e853 3f00 	ldrex	r3, [r3]
 8004f52:	f023 0301 	bic.w	r3, r3, #1
 8004f56:	f100 0108 	add.w	r1, r0, #8
 8004f5a:	e841 3200 	strex	r2, r3, [r1]
 8004f5e:	2a00      	cmp	r2, #0
 8004f60:	d1f3      	bne.n	8004f4a <UART_WaitOnFlagUntilTimeout+0x4e>
 8004f62:	2320      	movs	r3, #32
 8004f64:	f8c4 3084 	str.w	r3, [r4, #132]	; 0x84
 8004f68:	f8c4 3088 	str.w	r3, [r4, #136]	; 0x88
 8004f6c:	f884 2080 	strb.w	r2, [r4, #128]	; 0x80
 8004f70:	2003      	movs	r0, #3
 8004f72:	e8bd 81f0 	ldmia.w	sp!, {r4, r5, r6, r7, r8, pc}
 8004f76:	6803      	ldr	r3, [r0, #0]
 8004f78:	075a      	lsls	r2, r3, #29
 8004f7a:	d5c7      	bpl.n	8004f0c <UART_WaitOnFlagUntilTimeout+0x10>
 8004f7c:	69c3      	ldr	r3, [r0, #28]
 8004f7e:	051b      	lsls	r3, r3, #20
 8004f80:	d5c4      	bpl.n	8004f0c <UART_WaitOnFlagUntilTimeout+0x10>
 8004f82:	f44f 6300 	mov.w	r3, #2048	; 0x800
 8004f86:	6203      	str	r3, [r0, #32]
 8004f88:	e850 3f00 	ldrex	r3, [r0]
 8004f8c:	f423 73d0 	bic.w	r3, r3, #416	; 0x1a0
 8004f90:	e840 3200 	strex	r2, r3, [r0]
 8004f94:	2a00      	cmp	r2, #0
 8004f96:	d1f7      	bne.n	8004f88 <UART_WaitOnFlagUntilTimeout+0x8c>
 8004f98:	f100 0308 	add.w	r3, r0, #8
 8004f9c:	e853 3f00 	ldrex	r3, [r3]
 8004fa0:	f023 0301 	bic.w	r3, r3, #1
 8004fa4:	f100 0108 	add.w	r1, r0, #8
 8004fa8:	e841 3200 	strex	r2, r3, [r1]
 8004fac:	2a00      	cmp	r2, #0
 8004fae:	d1f3      	bne.n	8004f98 <UART_WaitOnFlagUntilTimeout+0x9c>
 8004fb0:	2320      	movs	r3, #32
 8004fb2:	f8c4 3084 	str.w	r3, [r4, #132]	; 0x84
 8004fb6:	f8c4 3088 	str.w	r3, [r4, #136]	; 0x88
 8004fba:	f8c4 308c 	str.w	r3, [r4, #140]	; 0x8c
 8004fbe:	e7d5      	b.n	8004f6c <UART_WaitOnFlagUntilTimeout+0x70>

08004fc0 <UART_CheckIdleState>:
 8004fc0:	b573      	push	{r0, r1, r4, r5, r6, lr}
 8004fc2:	4604      	mov	r4, r0
 8004fc4:	2600      	movs	r6, #0
 8004fc6:	f8c0 608c 	str.w	r6, [r0, #140]	; 0x8c
 8004fca:	f7fc fac1 	bl	8001550 <HAL_GetTick>
 8004fce:	6823      	ldr	r3, [r4, #0]
 8004fd0:	681b      	ldr	r3, [r3, #0]
 8004fd2:	071a      	lsls	r2, r3, #28
 8004fd4:	4605      	mov	r5, r0
 8004fd6:	d418      	bmi.n	800500a <UART_CheckIdleState+0x4a>
 8004fd8:	6823      	ldr	r3, [r4, #0]
 8004fda:	681b      	ldr	r3, [r3, #0]
 8004fdc:	075b      	lsls	r3, r3, #29
 8004fde:	d50a      	bpl.n	8004ff6 <UART_CheckIdleState+0x36>
 8004fe0:	f06f 437e 	mvn.w	r3, #4261412864	; 0xfe000000
 8004fe4:	9300      	str	r3, [sp, #0]
 8004fe6:	2200      	movs	r2, #0
 8004fe8:	462b      	mov	r3, r5
 8004fea:	f44f 0180 	mov.w	r1, #4194304	; 0x400000
 8004fee:	4620      	mov	r0, r4
 8004ff0:	f7ff ff84 	bl	8004efc <UART_WaitOnFlagUntilTimeout>
 8004ff4:	b9a8      	cbnz	r0, 8005022 <UART_CheckIdleState+0x62>
 8004ff6:	2320      	movs	r3, #32
 8004ff8:	2000      	movs	r0, #0
 8004ffa:	f8c4 3084 	str.w	r3, [r4, #132]	; 0x84
 8004ffe:	f884 0080 	strb.w	r0, [r4, #128]	; 0x80
 8005002:	f8c4 3088 	str.w	r3, [r4, #136]	; 0x88
 8005006:	66e0      	str	r0, [r4, #108]	; 0x6c
 8005008:	e00c      	b.n	8005024 <UART_CheckIdleState+0x64>
 800500a:	f06f 437e 	mvn.w	r3, #4261412864	; 0xfe000000
 800500e:	9300      	str	r3, [sp, #0]
 8005010:	4632      	mov	r2, r6
 8005012:	4603      	mov	r3, r0
 8005014:	f44f 1100 	mov.w	r1, #2097152	; 0x200000
 8005018:	4620      	mov	r0, r4
 800501a:	f7ff ff6f 	bl	8004efc <UART_WaitOnFlagUntilTimeout>
 800501e:	2800      	cmp	r0, #0
 8005020:	d0da      	beq.n	8004fd8 <UART_CheckIdleState+0x18>
 8005022:	2003      	movs	r0, #3
 8005024:	b002      	add	sp, #8
 8005026:	bd70      	pop	{r4, r5, r6, pc}

08005028 <HAL_UART_Init>:
 8005028:	b510      	push	{r4, lr}
 800502a:	4604      	mov	r4, r0
 800502c:	b350      	cbz	r0, 8005084 <HAL_UART_Init+0x5c>
 800502e:	f8d0 3084 	ldr.w	r3, [r0, #132]	; 0x84
 8005032:	b91b      	cbnz	r3, 800503c <HAL_UART_Init+0x14>
 8005034:	f880 3080 	strb.w	r3, [r0, #128]	; 0x80
 8005038:	f7fc fbee 	bl	8001818 <HAL_UART_MspInit>
 800503c:	6822      	ldr	r2, [r4, #0]
 800503e:	2324      	movs	r3, #36	; 0x24
 8005040:	f8c4 3084 	str.w	r3, [r4, #132]	; 0x84
 8005044:	6813      	ldr	r3, [r2, #0]
 8005046:	f023 0301 	bic.w	r3, r3, #1
 800504a:	6013      	str	r3, [r2, #0]
 800504c:	4620      	mov	r0, r4
 800504e:	f7ff fde7 	bl	8004c20 <UART_SetConfig>
 8005052:	2801      	cmp	r0, #1
 8005054:	d016      	beq.n	8005084 <HAL_UART_Init+0x5c>
 8005056:	6aa3      	ldr	r3, [r4, #40]	; 0x28
 8005058:	b113      	cbz	r3, 8005060 <HAL_UART_Init+0x38>
 800505a:	4620      	mov	r0, r4
 800505c:	f7ff fefa 	bl	8004e54 <UART_AdvFeatureConfig>
 8005060:	6823      	ldr	r3, [r4, #0]
 8005062:	685a      	ldr	r2, [r3, #4]
 8005064:	f422 4290 	bic.w	r2, r2, #18432	; 0x4800
 8005068:	605a      	str	r2, [r3, #4]
 800506a:	689a      	ldr	r2, [r3, #8]
 800506c:	f022 022a 	bic.w	r2, r2, #42	; 0x2a
 8005070:	609a      	str	r2, [r3, #8]
 8005072:	681a      	ldr	r2, [r3, #0]
 8005074:	f042 0201 	orr.w	r2, r2, #1
 8005078:	4620      	mov	r0, r4
 800507a:	601a      	str	r2, [r3, #0]
 800507c:	e8bd 4010 	ldmia.w	sp!, {r4, lr}
 8005080:	f7ff bf9e 	b.w	8004fc0 <UART_CheckIdleState>
 8005084:	2001      	movs	r0, #1
 8005086:	bd10      	pop	{r4, pc}

08005088 <UART_Start_Receive_IT>:
 8005088:	6883      	ldr	r3, [r0, #8]
 800508a:	b530      	push	{r4, r5, lr}
 800508c:	f5b3 5f80 	cmp.w	r3, #4096	; 0x1000
 8005090:	6581      	str	r1, [r0, #88]	; 0x58
 8005092:	f04f 0100 	mov.w	r1, #0
 8005096:	f8a0 205c 	strh.w	r2, [r0, #92]	; 0x5c
 800509a:	f8a0 205e 	strh.w	r2, [r0, #94]	; 0x5e
 800509e:	6701      	str	r1, [r0, #112]	; 0x70
 80050a0:	d139      	bne.n	8005116 <UART_Start_Receive_IT+0x8e>
 80050a2:	6903      	ldr	r3, [r0, #16]
 80050a4:	2b00      	cmp	r3, #0
 80050a6:	d134      	bne.n	8005112 <UART_Start_Receive_IT+0x8a>
 80050a8:	f240 13ff 	movw	r3, #511	; 0x1ff
 80050ac:	f8a0 3060 	strh.w	r3, [r0, #96]	; 0x60
 80050b0:	2300      	movs	r3, #0
 80050b2:	f8c0 308c 	str.w	r3, [r0, #140]	; 0x8c
 80050b6:	2322      	movs	r3, #34	; 0x22
 80050b8:	f8c0 3088 	str.w	r3, [r0, #136]	; 0x88
 80050bc:	6801      	ldr	r1, [r0, #0]
 80050be:	f101 0308 	add.w	r3, r1, #8
 80050c2:	e853 3f00 	ldrex	r3, [r3]
 80050c6:	f043 0301 	orr.w	r3, r3, #1
 80050ca:	3108      	adds	r1, #8
 80050cc:	e841 3400 	strex	r4, r3, [r1]
 80050d0:	6803      	ldr	r3, [r0, #0]
 80050d2:	2c00      	cmp	r4, #0
 80050d4:	d1f2      	bne.n	80050bc <UART_Start_Receive_IT+0x34>
 80050d6:	6e45      	ldr	r5, [r0, #100]	; 0x64
 80050d8:	6884      	ldr	r4, [r0, #8]
 80050da:	6901      	ldr	r1, [r0, #16]
 80050dc:	f1b5 5f00 	cmp.w	r5, #536870912	; 0x20000000
 80050e0:	d13a      	bne.n	8005158 <UART_Start_Receive_IT+0xd0>
 80050e2:	f8b0 5068 	ldrh.w	r5, [r0, #104]	; 0x68
 80050e6:	4295      	cmp	r5, r2
 80050e8:	d836      	bhi.n	8005158 <UART_Start_Receive_IT+0xd0>
 80050ea:	f5b4 5f80 	cmp.w	r4, #4096	; 0x1000
 80050ee:	d123      	bne.n	8005138 <UART_Start_Receive_IT+0xb0>
 80050f0:	4a2a      	ldr	r2, [pc, #168]	; (800519c <UART_Start_Receive_IT+0x114>)
 80050f2:	4c2b      	ldr	r4, [pc, #172]	; (80051a0 <UART_Start_Receive_IT+0x118>)
 80050f4:	2900      	cmp	r1, #0
 80050f6:	bf18      	it	ne
 80050f8:	4622      	movne	r2, r4
 80050fa:	6702      	str	r2, [r0, #112]	; 0x70
 80050fc:	2200      	movs	r2, #0
 80050fe:	f880 2080 	strb.w	r2, [r0, #128]	; 0x80
 8005102:	b1d9      	cbz	r1, 800513c <UART_Start_Receive_IT+0xb4>
 8005104:	e853 2f00 	ldrex	r2, [r3]
 8005108:	f442 7280 	orr.w	r2, r2, #256	; 0x100
 800510c:	e843 2100 	strex	r1, r2, [r3]
 8005110:	e7f7      	b.n	8005102 <UART_Start_Receive_IT+0x7a>
 8005112:	23ff      	movs	r3, #255	; 0xff
 8005114:	e7ca      	b.n	80050ac <UART_Start_Receive_IT+0x24>
 8005116:	b923      	cbnz	r3, 8005122 <UART_Start_Receive_IT+0x9a>
 8005118:	6903      	ldr	r3, [r0, #16]
 800511a:	2b00      	cmp	r3, #0
 800511c:	d0f9      	beq.n	8005112 <UART_Start_Receive_IT+0x8a>
 800511e:	237f      	movs	r3, #127	; 0x7f
 8005120:	e7c4      	b.n	80050ac <UART_Start_Receive_IT+0x24>
 8005122:	f1b3 5f80 	cmp.w	r3, #268435456	; 0x10000000
 8005126:	d104      	bne.n	8005132 <UART_Start_Receive_IT+0xaa>
 8005128:	6903      	ldr	r3, [r0, #16]
 800512a:	2b00      	cmp	r3, #0
 800512c:	d0f7      	beq.n	800511e <UART_Start_Receive_IT+0x96>
 800512e:	233f      	movs	r3, #63	; 0x3f
 8005130:	e7bc      	b.n	80050ac <UART_Start_Receive_IT+0x24>
 8005132:	f8a0 1060 	strh.w	r1, [r0, #96]	; 0x60
 8005136:	e7bb      	b.n	80050b0 <UART_Start_Receive_IT+0x28>
 8005138:	4a19      	ldr	r2, [pc, #100]	; (80051a0 <UART_Start_Receive_IT+0x118>)
 800513a:	e7de      	b.n	80050fa <UART_Start_Receive_IT+0x72>
 800513c:	f103 0208 	add.w	r2, r3, #8
 8005140:	e852 2f00 	ldrex	r2, [r2]
 8005144:	f042 5280 	orr.w	r2, r2, #268435456	; 0x10000000
 8005148:	f103 0008 	add.w	r0, r3, #8
 800514c:	e840 2100 	strex	r1, r2, [r0]
 8005150:	2900      	cmp	r1, #0
 8005152:	d1f3      	bne.n	800513c <UART_Start_Receive_IT+0xb4>
 8005154:	2000      	movs	r0, #0
 8005156:	bd30      	pop	{r4, r5, pc}
 8005158:	f5b4 5f80 	cmp.w	r4, #4096	; 0x1000
 800515c:	d112      	bne.n	8005184 <UART_Start_Receive_IT+0xfc>
 800515e:	4a11      	ldr	r2, [pc, #68]	; (80051a4 <UART_Start_Receive_IT+0x11c>)
 8005160:	4c11      	ldr	r4, [pc, #68]	; (80051a8 <UART_Start_Receive_IT+0x120>)
 8005162:	2900      	cmp	r1, #0
 8005164:	bf18      	it	ne
 8005166:	4622      	movne	r2, r4
 8005168:	6702      	str	r2, [r0, #112]	; 0x70
 800516a:	2200      	movs	r2, #0
 800516c:	f880 2080 	strb.w	r2, [r0, #128]	; 0x80
 8005170:	b151      	cbz	r1, 8005188 <UART_Start_Receive_IT+0x100>
 8005172:	e853 2f00 	ldrex	r2, [r3]
 8005176:	f442 7290 	orr.w	r2, r2, #288	; 0x120
 800517a:	e843 2100 	strex	r1, r2, [r3]
 800517e:	2900      	cmp	r1, #0
 8005180:	d1f7      	bne.n	8005172 <UART_Start_Receive_IT+0xea>
 8005182:	e7e7      	b.n	8005154 <UART_Start_Receive_IT+0xcc>
 8005184:	4a08      	ldr	r2, [pc, #32]	; (80051a8 <UART_Start_Receive_IT+0x120>)
 8005186:	e7ef      	b.n	8005168 <UART_Start_Receive_IT+0xe0>
 8005188:	e853 2f00 	ldrex	r2, [r3]
 800518c:	f042 0220 	orr.w	r2, r2, #32
 8005190:	e843 2100 	strex	r1, r2, [r3]
 8005194:	2900      	cmp	r1, #0
 8005196:	d1f7      	bne.n	8005188 <UART_Start_Receive_IT+0x100>
 8005198:	e7dc      	b.n	8005154 <UART_Start_Receive_IT+0xcc>
 800519a:	bf00      	nop
 800519c:	08004aa9 	.word	0x08004aa9
 80051a0:	0800492d 	.word	0x0800492d
 80051a4:	0800488f 	.word	0x0800488f
 80051a8:	080047ed 	.word	0x080047ed

080051ac <HAL_UART_Receive_IT>:
 80051ac:	f8d0 3088 	ldr.w	r3, [r0, #136]	; 0x88
 80051b0:	2b20      	cmp	r3, #32
 80051b2:	b430      	push	{r4, r5}
 80051b4:	d11f      	bne.n	80051f6 <HAL_UART_Receive_IT+0x4a>
 80051b6:	b1d9      	cbz	r1, 80051f0 <HAL_UART_Receive_IT+0x44>
 80051b8:	b1d2      	cbz	r2, 80051f0 <HAL_UART_Receive_IT+0x44>
 80051ba:	f890 3080 	ldrb.w	r3, [r0, #128]	; 0x80
 80051be:	2b01      	cmp	r3, #1
 80051c0:	d019      	beq.n	80051f6 <HAL_UART_Receive_IT+0x4a>
 80051c2:	2301      	movs	r3, #1
 80051c4:	f880 3080 	strb.w	r3, [r0, #128]	; 0x80
 80051c8:	2300      	movs	r3, #0
 80051ca:	6804      	ldr	r4, [r0, #0]
 80051cc:	66c3      	str	r3, [r0, #108]	; 0x6c
 80051ce:	4b0b      	ldr	r3, [pc, #44]	; (80051fc <HAL_UART_Receive_IT+0x50>)
 80051d0:	429c      	cmp	r4, r3
 80051d2:	d00a      	beq.n	80051ea <HAL_UART_Receive_IT+0x3e>
 80051d4:	6863      	ldr	r3, [r4, #4]
 80051d6:	021b      	lsls	r3, r3, #8
 80051d8:	d507      	bpl.n	80051ea <HAL_UART_Receive_IT+0x3e>
 80051da:	e854 3f00 	ldrex	r3, [r4]
 80051de:	f043 6380 	orr.w	r3, r3, #67108864	; 0x4000000
 80051e2:	e844 3500 	strex	r5, r3, [r4]
 80051e6:	2d00      	cmp	r5, #0
 80051e8:	d1f7      	bne.n	80051da <HAL_UART_Receive_IT+0x2e>
 80051ea:	bc30      	pop	{r4, r5}
 80051ec:	f7ff bf4c 	b.w	8005088 <UART_Start_Receive_IT>
 80051f0:	2001      	movs	r0, #1
 80051f2:	bc30      	pop	{r4, r5}
 80051f4:	4770      	bx	lr
 80051f6:	2002      	movs	r0, #2
 80051f8:	e7fb      	b.n	80051f2 <HAL_UART_Receive_IT+0x46>
 80051fa:	bf00      	nop
 80051fc:	40008000 	.word	0x40008000

08005200 <UARTEx_SetNbDataToProcess>:
 8005200:	6e43      	ldr	r3, [r0, #100]	; 0x64
 8005202:	b530      	push	{r4, r5, lr}
 8005204:	b91b      	cbnz	r3, 800520e <UARTEx_SetNbDataToProcess+0xe>
 8005206:	f04f 1301 	mov.w	r3, #65537	; 0x10001
 800520a:	6683      	str	r3, [r0, #104]	; 0x68
 800520c:	bd30      	pop	{r4, r5, pc}
 800520e:	6803      	ldr	r3, [r0, #0]
 8005210:	4d0a      	ldr	r5, [pc, #40]	; (800523c <UARTEx_SetNbDataToProcess+0x3c>)
 8005212:	689a      	ldr	r2, [r3, #8]
 8005214:	6899      	ldr	r1, [r3, #8]
 8005216:	4c0a      	ldr	r4, [pc, #40]	; (8005240 <UARTEx_SetNbDataToProcess+0x40>)
 8005218:	0f49      	lsrs	r1, r1, #29
 800521a:	f3c2 6242 	ubfx	r2, r2, #25, #3
 800521e:	5c6b      	ldrb	r3, [r5, r1]
 8005220:	5c61      	ldrb	r1, [r4, r1]
 8005222:	00db      	lsls	r3, r3, #3
 8005224:	fbb3 f3f1 	udiv	r3, r3, r1
 8005228:	f8a0 306a 	strh.w	r3, [r0, #106]	; 0x6a
 800522c:	5cab      	ldrb	r3, [r5, r2]
 800522e:	5ca2      	ldrb	r2, [r4, r2]
 8005230:	00db      	lsls	r3, r3, #3
 8005232:	fbb3 f3f2 	udiv	r3, r3, r2
 8005236:	f8a0 3068 	strh.w	r3, [r0, #104]	; 0x68
 800523a:	e7e7      	b.n	800520c <UARTEx_SetNbDataToProcess+0xc>
 800523c:	0800ea9c 	.word	0x0800ea9c
 8005240:	0800ea94 	.word	0x0800ea94

08005244 <HAL_UARTEx_WakeupCallback>:
 8005244:	4770      	bx	lr

08005246 <HAL_UARTEx_RxFifoFullCallback>:
 8005246:	4770      	bx	lr

08005248 <HAL_UARTEx_TxFifoEmptyCallback>:
 8005248:	4770      	bx	lr

0800524a <HAL_UARTEx_StopModeWakeUpSourceConfig>:
 800524a:	b51f      	push	{r0, r1, r2, r3, r4, lr}
 800524c:	ab04      	add	r3, sp, #16
 800524e:	e903 0006 	stmdb	r3, {r1, r2}
 8005252:	f890 3080 	ldrb.w	r3, [r0, #128]	; 0x80
 8005256:	2b01      	cmp	r3, #1
 8005258:	4604      	mov	r4, r0
 800525a:	d03a      	beq.n	80052d2 <HAL_UARTEx_StopModeWakeUpSourceConfig+0x88>
 800525c:	2301      	movs	r3, #1
 800525e:	f880 3080 	strb.w	r3, [r0, #128]	; 0x80
 8005262:	2324      	movs	r3, #36	; 0x24
 8005264:	f8c0 3084 	str.w	r3, [r0, #132]	; 0x84
 8005268:	6803      	ldr	r3, [r0, #0]
 800526a:	681a      	ldr	r2, [r3, #0]
 800526c:	f022 0201 	bic.w	r2, r2, #1
 8005270:	601a      	str	r2, [r3, #0]
 8005272:	689a      	ldr	r2, [r3, #8]
 8005274:	f422 1240 	bic.w	r2, r2, #3145728	; 0x300000
 8005278:	430a      	orrs	r2, r1
 800527a:	609a      	str	r2, [r3, #8]
 800527c:	b971      	cbnz	r1, 800529c <HAL_UARTEx_StopModeWakeUpSourceConfig+0x52>
 800527e:	6859      	ldr	r1, [r3, #4]
 8005280:	f8bd 200c 	ldrh.w	r2, [sp, #12]
 8005284:	f89d 000e 	ldrb.w	r0, [sp, #14]
 8005288:	f021 0110 	bic.w	r1, r1, #16
 800528c:	4311      	orrs	r1, r2
 800528e:	6059      	str	r1, [r3, #4]
 8005290:	685a      	ldr	r2, [r3, #4]
 8005292:	f022 427f 	bic.w	r2, r2, #4278190080	; 0xff000000
 8005296:	ea42 6200 	orr.w	r2, r2, r0, lsl #24
 800529a:	605a      	str	r2, [r3, #4]
 800529c:	681a      	ldr	r2, [r3, #0]
 800529e:	f042 0201 	orr.w	r2, r2, #1
 80052a2:	601a      	str	r2, [r3, #0]
 80052a4:	f7fc f954 	bl	8001550 <HAL_GetTick>
 80052a8:	f06f 427e 	mvn.w	r2, #4261412864	; 0xfe000000
 80052ac:	4603      	mov	r3, r0
 80052ae:	9200      	str	r2, [sp, #0]
 80052b0:	f44f 0180 	mov.w	r1, #4194304	; 0x400000
 80052b4:	2200      	movs	r2, #0
 80052b6:	4620      	mov	r0, r4
 80052b8:	f7ff fe20 	bl	8004efc <UART_WaitOnFlagUntilTimeout>
 80052bc:	b938      	cbnz	r0, 80052ce <HAL_UARTEx_StopModeWakeUpSourceConfig+0x84>
 80052be:	2320      	movs	r3, #32
 80052c0:	f8c4 3084 	str.w	r3, [r4, #132]	; 0x84
 80052c4:	2300      	movs	r3, #0
 80052c6:	f884 3080 	strb.w	r3, [r4, #128]	; 0x80
 80052ca:	b004      	add	sp, #16
 80052cc:	bd10      	pop	{r4, pc}
 80052ce:	2003      	movs	r0, #3
 80052d0:	e7f8      	b.n	80052c4 <HAL_UARTEx_StopModeWakeUpSourceConfig+0x7a>
 80052d2:	2002      	movs	r0, #2
 80052d4:	e7f9      	b.n	80052ca <HAL_UARTEx_StopModeWakeUpSourceConfig+0x80>

080052d6 <HAL_UARTEx_EnableStopMode>:
 80052d6:	f890 2080 	ldrb.w	r2, [r0, #128]	; 0x80
 80052da:	2a01      	cmp	r2, #1
 80052dc:	4603      	mov	r3, r0
 80052de:	d00e      	beq.n	80052fe <HAL_UARTEx_EnableStopMode+0x28>
 80052e0:	2201      	movs	r2, #1
 80052e2:	f880 2080 	strb.w	r2, [r0, #128]	; 0x80
 80052e6:	6819      	ldr	r1, [r3, #0]
 80052e8:	e851 2f00 	ldrex	r2, [r1]
 80052ec:	f042 0202 	orr.w	r2, r2, #2
 80052f0:	e841 2000 	strex	r0, r2, [r1]
 80052f4:	2800      	cmp	r0, #0
 80052f6:	d1f6      	bne.n	80052e6 <HAL_UARTEx_EnableStopMode+0x10>
 80052f8:	f883 0080 	strb.w	r0, [r3, #128]	; 0x80
 80052fc:	4770      	bx	lr
 80052fe:	2002      	movs	r0, #2
 8005300:	4770      	bx	lr

08005302 <HAL_UARTEx_DisableFifoMode>:
 8005302:	f890 3080 	ldrb.w	r3, [r0, #128]	; 0x80
 8005306:	2b01      	cmp	r3, #1
 8005308:	d014      	beq.n	8005334 <HAL_UARTEx_DisableFifoMode+0x32>
 800530a:	6802      	ldr	r2, [r0, #0]
 800530c:	2324      	movs	r3, #36	; 0x24
 800530e:	f8c0 3084 	str.w	r3, [r0, #132]	; 0x84
 8005312:	6811      	ldr	r1, [r2, #0]
 8005314:	6813      	ldr	r3, [r2, #0]
 8005316:	f023 0301 	bic.w	r3, r3, #1
 800531a:	6013      	str	r3, [r2, #0]
 800531c:	f021 5100 	bic.w	r1, r1, #536870912	; 0x20000000
 8005320:	2300      	movs	r3, #0
 8005322:	6643      	str	r3, [r0, #100]	; 0x64
 8005324:	6011      	str	r1, [r2, #0]
 8005326:	2220      	movs	r2, #32
 8005328:	f8c0 2084 	str.w	r2, [r0, #132]	; 0x84
 800532c:	f880 3080 	strb.w	r3, [r0, #128]	; 0x80
 8005330:	4618      	mov	r0, r3
 8005332:	4770      	bx	lr
 8005334:	2002      	movs	r0, #2
 8005336:	4770      	bx	lr

08005338 <HAL_UARTEx_SetTxFifoThreshold>:
 8005338:	b538      	push	{r3, r4, r5, lr}
 800533a:	f890 3080 	ldrb.w	r3, [r0, #128]	; 0x80
 800533e:	2b01      	cmp	r3, #1
 8005340:	4604      	mov	r4, r0
 8005342:	d01b      	beq.n	800537c <HAL_UARTEx_SetTxFifoThreshold+0x44>
 8005344:	2301      	movs	r3, #1
 8005346:	f880 3080 	strb.w	r3, [r0, #128]	; 0x80
 800534a:	2324      	movs	r3, #36	; 0x24
 800534c:	f8c0 3084 	str.w	r3, [r0, #132]	; 0x84
 8005350:	6803      	ldr	r3, [r0, #0]
 8005352:	681d      	ldr	r5, [r3, #0]
 8005354:	681a      	ldr	r2, [r3, #0]
 8005356:	f022 0201 	bic.w	r2, r2, #1
 800535a:	601a      	str	r2, [r3, #0]
 800535c:	689a      	ldr	r2, [r3, #8]
 800535e:	f022 4260 	bic.w	r2, r2, #3758096384	; 0xe0000000
 8005362:	4311      	orrs	r1, r2
 8005364:	6099      	str	r1, [r3, #8]
 8005366:	f7ff ff4b 	bl	8005200 <UARTEx_SetNbDataToProcess>
 800536a:	6803      	ldr	r3, [r0, #0]
 800536c:	601d      	str	r5, [r3, #0]
 800536e:	2320      	movs	r3, #32
 8005370:	f8c0 3084 	str.w	r3, [r0, #132]	; 0x84
 8005374:	2000      	movs	r0, #0
 8005376:	f884 0080 	strb.w	r0, [r4, #128]	; 0x80
 800537a:	bd38      	pop	{r3, r4, r5, pc}
 800537c:	2002      	movs	r0, #2
 800537e:	e7fc      	b.n	800537a <HAL_UARTEx_SetTxFifoThreshold+0x42>

08005380 <HAL_UARTEx_SetRxFifoThreshold>:
 8005380:	b538      	push	{r3, r4, r5, lr}
 8005382:	f890 3080 	ldrb.w	r3, [r0, #128]	; 0x80
 8005386:	2b01      	cmp	r3, #1
 8005388:	4604      	mov	r4, r0
 800538a:	d01b      	beq.n	80053c4 <HAL_UARTEx_SetRxFifoThreshold+0x44>
 800538c:	2301      	movs	r3, #1
 800538e:	f880 3080 	strb.w	r3, [r0, #128]	; 0x80
 8005392:	2324      	movs	r3, #36	; 0x24
 8005394:	f8c0 3084 	str.w	r3, [r0, #132]	; 0x84
 8005398:	6803      	ldr	r3, [r0, #0]
 800539a:	681d      	ldr	r5, [r3, #0]
 800539c:	681a      	ldr	r2, [r3, #0]
 800539e:	f022 0201 	bic.w	r2, r2, #1
 80053a2:	601a      	str	r2, [r3, #0]
 80053a4:	689a      	ldr	r2, [r3, #8]
 80053a6:	f022 6260 	bic.w	r2, r2, #234881024	; 0xe000000
 80053aa:	4311      	orrs	r1, r2
 80053ac:	6099      	str	r1, [r3, #8]
 80053ae:	f7ff ff27 	bl	8005200 <UARTEx_SetNbDataToProcess>
 80053b2:	6803      	ldr	r3, [r0, #0]
 80053b4:	601d      	str	r5, [r3, #0]
 80053b6:	2320      	movs	r3, #32
 80053b8:	f8c0 3084 	str.w	r3, [r0, #132]	; 0x84
 80053bc:	2000      	movs	r0, #0
 80053be:	f884 0080 	strb.w	r0, [r4, #128]	; 0x80
 80053c2:	bd38      	pop	{r3, r4, r5, pc}
 80053c4:	2002      	movs	r0, #2
 80053c6:	e7fc      	b.n	80053c2 <HAL_UARTEx_SetRxFifoThreshold+0x42>

080053c8 <MX_LoRaWAN_Init>:
 80053c8:	b508      	push	{r3, lr}
 80053ca:	f7fc f823 	bl	8001414 <SystemApp_Init>
 80053ce:	e8bd 4008 	ldmia.w	sp!, {r3, lr}
 80053d2:	f000 b8ef 	b.w	80055b4 <LoRaWAN_Init>

080053d6 <MX_LoRaWAN_Process>:
 80053d6:	f04f 30ff 	mov.w	r0, #4294967295
 80053da:	f008 bae9 	b.w	800d9b0 <UTIL_SEQ_Run>

080053de <OnRxData>:
 80053de:	4770      	bx	lr

080053e0 <OnJoinRequest>:
 80053e0:	4770      	bx	lr

080053e2 <OnClassChange>:
 80053e2:	4770      	bx	lr

080053e4 <OnTxFrameCtrlChanged>:
 80053e4:	4b01      	ldr	r3, [pc, #4]	; (80053ec <OnTxFrameCtrlChanged+0x8>)
 80053e6:	70d8      	strb	r0, [r3, #3]
 80053e8:	4770      	bx	lr
 80053ea:	bf00      	nop
 80053ec:	20000060 	.word	0x20000060

080053f0 <OnPingSlotPeriodicityChanged>:
 80053f0:	4b01      	ldr	r3, [pc, #4]	; (80053f8 <OnPingSlotPeriodicityChanged+0x8>)
 80053f2:	7318      	strb	r0, [r3, #12]
 80053f4:	4770      	bx	lr
 80053f6:	bf00      	nop
 80053f8:	20000060 	.word	0x20000060

080053fc <OnTxTimerEvent>:
 80053fc:	b508      	push	{r3, lr}
 80053fe:	2002      	movs	r0, #2
 8005400:	2100      	movs	r1, #0
 8005402:	f008 fa9d 	bl	800d940 <UTIL_SEQ_SetTask>
 8005406:	e8bd 4008 	ldmia.w	sp!, {r3, lr}
 800540a:	4801      	ldr	r0, [pc, #4]	; (8005410 <OnTxTimerEvent+0x14>)
 800540c:	f008 bc1c 	b.w	800dc48 <UTIL_TIMER_Start>
 8005410:	20000474 	.word	0x20000474

08005414 <OnMacProcessNotify>:
 8005414:	2100      	movs	r1, #0
 8005416:	2001      	movs	r0, #1
 8005418:	f008 ba92 	b.w	800d940 <UTIL_SEQ_SetTask>

0800541c <OnTxPeriodicityChanged>:
 800541c:	b510      	push	{r4, lr}
 800541e:	4c09      	ldr	r4, [pc, #36]	; (8005444 <OnTxPeriodicityChanged+0x28>)
 8005420:	b160      	cbz	r0, 800543c <OnTxPeriodicityChanged+0x20>
 8005422:	6020      	str	r0, [r4, #0]
 8005424:	4808      	ldr	r0, [pc, #32]	; (8005448 <OnTxPeriodicityChanged+0x2c>)
 8005426:	f008 fbbf 	bl	800dba8 <UTIL_TIMER_Stop>
 800542a:	6821      	ldr	r1, [r4, #0]
 800542c:	4806      	ldr	r0, [pc, #24]	; (8005448 <OnTxPeriodicityChanged+0x2c>)
 800542e:	f008 fc45 	bl	800dcbc <UTIL_TIMER_SetPeriod>
 8005432:	e8bd 4010 	ldmia.w	sp!, {r4, lr}
 8005436:	4804      	ldr	r0, [pc, #16]	; (8005448 <OnTxPeriodicityChanged+0x2c>)
 8005438:	f008 bc06 	b.w	800dc48 <UTIL_TIMER_Start>
 800543c:	f247 5330 	movw	r3, #30000	; 0x7530
 8005440:	6023      	str	r3, [r4, #0]
 8005442:	e7ef      	b.n	8005424 <OnTxPeriodicityChanged+0x8>
 8005444:	20000074 	.word	0x20000074
 8005448:	20000474 	.word	0x20000474

0800544c <OnRestoreContextRequest>:
 800544c:	b28a      	uxth	r2, r1
 800544e:	4901      	ldr	r1, [pc, #4]	; (8005454 <OnRestoreContextRequest+0x8>)
 8005450:	f008 b86c 	b.w	800d52c <UTIL_MEM_cpy_8>
 8005454:	0803f000 	.word	0x0803f000

08005458 <StopJoin>:
 8005458:	b538      	push	{r3, r4, r5, lr}
 800545a:	480c      	ldr	r0, [pc, #48]	; (800548c <StopJoin+0x34>)
 800545c:	f008 fba4 	bl	800dba8 <UTIL_TIMER_Stop>
 8005460:	f001 fac0 	bl	80069e4 <LmHandlerStop>
 8005464:	b960      	cbnz	r0, 8005480 <StopJoin+0x28>
 8005466:	4c0a      	ldr	r4, [pc, #40]	; (8005490 <StopJoin+0x38>)
 8005468:	480a      	ldr	r0, [pc, #40]	; (8005494 <StopJoin+0x3c>)
 800546a:	2501      	movs	r5, #1
 800546c:	7025      	strb	r5, [r4, #0]
 800546e:	f001 f983 	bl	8006778 <LmHandlerConfigure>
 8005472:	7820      	ldrb	r0, [r4, #0]
 8005474:	4629      	mov	r1, r5
 8005476:	f000 ff43 	bl	8006300 <LmHandlerJoin>
 800547a:	4804      	ldr	r0, [pc, #16]	; (800548c <StopJoin+0x34>)
 800547c:	f008 fbe4 	bl	800dc48 <UTIL_TIMER_Start>
 8005480:	e8bd 4038 	ldmia.w	sp!, {r3, r4, r5, lr}
 8005484:	4804      	ldr	r0, [pc, #16]	; (8005498 <StopJoin+0x40>)
 8005486:	f008 bbdf 	b.w	800dc48 <UTIL_TIMER_Start>
 800548a:	bf00      	nop
 800548c:	20000474 	.word	0x20000474
 8005490:	20000008 	.word	0x20000008
 8005494:	20000060 	.word	0x20000060
 8005498:	2000045c 	.word	0x2000045c

0800549c <StoreContext>:
 800549c:	f001 bab4 	b.w	8006a08 <LmHandlerNvmDataStore>

080054a0 <SendTxData>:
 80054a0:	b510      	push	{r4, lr}
 80054a2:	f7fb fc8d 	bl	8000dc0 <SYS_GetTemperatureLevel>
 80054a6:	4c14      	ldr	r4, [pc, #80]	; (80054f8 <SendTxData+0x58>)
 80054a8:	4a14      	ldr	r2, [pc, #80]	; (80054fc <SendTxData+0x5c>)
 80054aa:	2302      	movs	r3, #2
 80054ac:	7023      	strb	r3, [r4, #0]
 80054ae:	21f2      	movs	r1, #242	; 0xf2
 80054b0:	f340 230f 	sbfx	r3, r0, #8, #16
 80054b4:	6860      	ldr	r0, [r4, #4]
 80054b6:	f008 fd09 	bl	800decc <sniprintf>
 80054ba:	4b11      	ldr	r3, [pc, #68]	; (8005500 <SendTxData+0x60>)
 80054bc:	7060      	strb	r0, [r4, #1]
 80054be:	78d9      	ldrb	r1, [r3, #3]
 80054c0:	2200      	movs	r2, #0
 80054c2:	4620      	mov	r0, r4
 80054c4:	f000 ff74 	bl	80063b0 <LmHandlerSend>
 80054c8:	3006      	adds	r0, #6
 80054ca:	d112      	bne.n	80054f2 <SendTxData+0x52>
 80054cc:	f000 feb4 	bl	8006238 <LmHandlerGetDutyCycleWaitTime>
 80054d0:	4604      	mov	r4, r0
 80054d2:	480c      	ldr	r0, [pc, #48]	; (8005504 <SendTxData+0x64>)
 80054d4:	f008 fb68 	bl	800dba8 <UTIL_TIMER_Stop>
 80054d8:	4b0b      	ldr	r3, [pc, #44]	; (8005508 <SendTxData+0x68>)
 80054da:	480a      	ldr	r0, [pc, #40]	; (8005504 <SendTxData+0x64>)
 80054dc:	6819      	ldr	r1, [r3, #0]
 80054de:	42a1      	cmp	r1, r4
 80054e0:	bf38      	it	cc
 80054e2:	4621      	movcc	r1, r4
 80054e4:	f008 fbea 	bl	800dcbc <UTIL_TIMER_SetPeriod>
 80054e8:	e8bd 4010 	ldmia.w	sp!, {r4, lr}
 80054ec:	4805      	ldr	r0, [pc, #20]	; (8005504 <SendTxData+0x64>)
 80054ee:	f008 bbab 	b.w	800dc48 <UTIL_TIMER_Start>
 80054f2:	2400      	movs	r4, #0
 80054f4:	e7ed      	b.n	80054d2 <SendTxData+0x32>
 80054f6:	bf00      	nop
 80054f8:	2000000c 	.word	0x2000000c
 80054fc:	0800eaa4 	.word	0x0800eaa4
 8005500:	20000060 	.word	0x20000060
 8005504:	20000474 	.word	0x20000474
 8005508:	20000074 	.word	0x20000074

0800550c <OnStopJoinTimerEvent>:
 800550c:	4b04      	ldr	r3, [pc, #16]	; (8005520 <OnStopJoinTimerEvent+0x14>)
 800550e:	781b      	ldrb	r3, [r3, #0]
 8005510:	2b02      	cmp	r3, #2
 8005512:	d103      	bne.n	800551c <OnStopJoinTimerEvent+0x10>
 8005514:	2100      	movs	r1, #0
 8005516:	2008      	movs	r0, #8
 8005518:	f008 ba12 	b.w	800d940 <UTIL_SEQ_SetTask>
 800551c:	4770      	bx	lr
 800551e:	bf00      	nop
 8005520:	20000008 	.word	0x20000008

08005524 <OnSystemReset>:
 8005524:	b508      	push	{r3, lr}
 8005526:	f001 fa66 	bl	80069f6 <LmHandlerHalt>
 800552a:	b980      	cbnz	r0, 800554e <OnSystemReset+0x2a>
 800552c:	f000 fe8a 	bl	8006244 <LmHandlerJoinStatus>
 8005530:	2801      	cmp	r0, #1
 8005532:	d10c      	bne.n	800554e <OnSystemReset+0x2a>
 8005534:	f3bf 8f4f 	dsb	sy
 8005538:	4905      	ldr	r1, [pc, #20]	; (8005550 <OnSystemReset+0x2c>)
 800553a:	4b06      	ldr	r3, [pc, #24]	; (8005554 <OnSystemReset+0x30>)
 800553c:	68ca      	ldr	r2, [r1, #12]
 800553e:	f402 62e0 	and.w	r2, r2, #1792	; 0x700
 8005542:	4313      	orrs	r3, r2
 8005544:	60cb      	str	r3, [r1, #12]
 8005546:	f3bf 8f4f 	dsb	sy
 800554a:	bf00      	nop
 800554c:	e7fd      	b.n	800554a <OnSystemReset+0x26>
 800554e:	bd08      	pop	{r3, pc}
 8005550:	e000ed00 	.word	0xe000ed00
 8005554:	05fa0004 	.word	0x05fa0004

08005558 <OnStoreContextRequest>:
 8005558:	b538      	push	{r3, r4, r5, lr}
 800555a:	4604      	mov	r4, r0
 800555c:	460d      	mov	r5, r1
 800555e:	f7fd f9b5 	bl	80028cc <HAL_FLASH_Unlock>
 8005562:	4602      	mov	r2, r0
 8005564:	b9d8      	cbnz	r0, 800559e <OnStoreContextRequest+0x46>
 8005566:	4b0e      	ldr	r3, [pc, #56]	; (80055a0 <OnStoreContextRequest+0x48>)
 8005568:	f8d3 05e0 	ldr.w	r0, [r3, #1504]	; 0x5e0
 800556c:	4b0d      	ldr	r3, [pc, #52]	; (80055a4 <OnStoreContextRequest+0x4c>)
 800556e:	ea03 2080 	and.w	r0, r3, r0, lsl #10
 8005572:	f44f 337c 	mov.w	r3, #258048	; 0x3f000
 8005576:	fbb3 f3f0 	udiv	r3, r3, r0
 800557a:	4343      	muls	r3, r0
 800557c:	f5c3 337c 	rsb	r3, r3, #258048	; 0x3f000
 8005580:	0ad8      	lsrs	r0, r3, #11
 8005582:	2101      	movs	r1, #1
 8005584:	f7fb fcb8 	bl	8000ef8 <FLASH_IF_EraseByPages>
 8005588:	4603      	mov	r3, r0
 800558a:	b920      	cbnz	r0, 8005596 <OnStoreContextRequest+0x3e>
 800558c:	4806      	ldr	r0, [pc, #24]	; (80055a8 <OnStoreContextRequest+0x50>)
 800558e:	462a      	mov	r2, r5
 8005590:	4621      	mov	r1, r4
 8005592:	f7fb fcc9 	bl	8000f28 <FLASH_IF_Write>
 8005596:	e8bd 4038 	ldmia.w	sp!, {r3, r4, r5, lr}
 800559a:	f7fd b9a9 	b.w	80028f0 <HAL_FLASH_Lock>
 800559e:	bd38      	pop	{r3, r4, r5, pc}
 80055a0:	1fff7000 	.word	0x1fff7000
 80055a4:	03fffc00 	.word	0x03fffc00
 80055a8:	0803f000 	.word	0x0803f000

080055ac <OnNvmDataChange>:
 80055ac:	4770      	bx	lr

080055ae <OnTxData>:
 80055ae:	4770      	bx	lr

080055b0 <OnBeaconStatusChange>:
 80055b0:	4770      	bx	lr
	...

080055b4 <LoRaWAN_Init>:
 80055b4:	b537      	push	{r0, r1, r2, r4, r5, lr}
 80055b6:	2400      	movs	r4, #0
 80055b8:	4b1c      	ldr	r3, [pc, #112]	; (800562c <LoRaWAN_Init+0x78>)
 80055ba:	9400      	str	r4, [sp, #0]
 80055bc:	4622      	mov	r2, r4
 80055be:	f44f 61fa 	mov.w	r1, #2000	; 0x7d0
 80055c2:	481b      	ldr	r0, [pc, #108]	; (8005630 <LoRaWAN_Init+0x7c>)
 80055c4:	4d1b      	ldr	r5, [pc, #108]	; (8005634 <LoRaWAN_Init+0x80>)
 80055c6:	f008 fa91 	bl	800daec <UTIL_TIMER_Create>
 80055ca:	4621      	mov	r1, r4
 80055cc:	4a1a      	ldr	r2, [pc, #104]	; (8005638 <LoRaWAN_Init+0x84>)
 80055ce:	2001      	movs	r0, #1
 80055d0:	f008 fa72 	bl	800dab8 <UTIL_SEQ_RegTask>
 80055d4:	4621      	mov	r1, r4
 80055d6:	4a19      	ldr	r2, [pc, #100]	; (800563c <LoRaWAN_Init+0x88>)
 80055d8:	2002      	movs	r0, #2
 80055da:	f008 fa6d 	bl	800dab8 <UTIL_SEQ_RegTask>
 80055de:	4621      	mov	r1, r4
 80055e0:	4a17      	ldr	r2, [pc, #92]	; (8005640 <LoRaWAN_Init+0x8c>)
 80055e2:	2004      	movs	r0, #4
 80055e4:	f008 fa68 	bl	800dab8 <UTIL_SEQ_RegTask>
 80055e8:	4a16      	ldr	r2, [pc, #88]	; (8005644 <LoRaWAN_Init+0x90>)
 80055ea:	4621      	mov	r1, r4
 80055ec:	2008      	movs	r0, #8
 80055ee:	f008 fa63 	bl	800dab8 <UTIL_SEQ_RegTask>
 80055f2:	f000 f833 	bl	800565c <LoraInfo_Init>
 80055f6:	f04f 7181 	mov.w	r1, #16908288	; 0x1020000
 80055fa:	4813      	ldr	r0, [pc, #76]	; (8005648 <LoRaWAN_Init+0x94>)
 80055fc:	f001 f9c0 	bl	8006980 <LmHandlerInit>
 8005600:	4812      	ldr	r0, [pc, #72]	; (800564c <LoRaWAN_Init+0x98>)
 8005602:	f001 f8b9 	bl	8006778 <LmHandlerConfigure>
 8005606:	4b12      	ldr	r3, [pc, #72]	; (8005650 <LoRaWAN_Init+0x9c>)
 8005608:	2101      	movs	r1, #1
 800560a:	7818      	ldrb	r0, [r3, #0]
 800560c:	f000 fe78 	bl	8006300 <LmHandlerJoin>
 8005610:	4910      	ldr	r1, [pc, #64]	; (8005654 <LoRaWAN_Init+0xa0>)
 8005612:	9400      	str	r4, [sp, #0]
 8005614:	4b10      	ldr	r3, [pc, #64]	; (8005658 <LoRaWAN_Init+0xa4>)
 8005616:	6809      	ldr	r1, [r1, #0]
 8005618:	4622      	mov	r2, r4
 800561a:	4628      	mov	r0, r5
 800561c:	f008 fa66 	bl	800daec <UTIL_TIMER_Create>
 8005620:	4628      	mov	r0, r5
 8005622:	b003      	add	sp, #12
 8005624:	e8bd 4030 	ldmia.w	sp!, {r4, r5, lr}
 8005628:	f008 bb0e 	b.w	800dc48 <UTIL_TIMER_Start>
 800562c:	0800550d 	.word	0x0800550d
 8005630:	2000045c 	.word	0x2000045c
 8005634:	20000474 	.word	0x20000474
 8005638:	08006201 	.word	0x08006201
 800563c:	080054a1 	.word	0x080054a1
 8005640:	0800549d 	.word	0x0800549d
 8005644:	08005459 	.word	0x08005459
 8005648:	20000014 	.word	0x20000014
 800564c:	20000060 	.word	0x20000060
 8005650:	20000008 	.word	0x20000008
 8005654:	20000074 	.word	0x20000074
 8005658:	080053fd 	.word	0x080053fd

0800565c <LoraInfo_Init>:
 800565c:	4b04      	ldr	r3, [pc, #16]	; (8005670 <LoraInfo_Init+0x14>)
 800565e:	2200      	movs	r2, #0
 8005660:	e9c3 2202 	strd	r2, r2, [r3, #8]
 8005664:	2120      	movs	r1, #32
 8005666:	2203      	movs	r2, #3
 8005668:	e9c3 2100 	strd	r2, r1, [r3]
 800566c:	4770      	bx	lr
 800566e:	bf00      	nop
 8005670:	2000048c 	.word	0x2000048c

08005674 <LoraInfo_GetPtr>:
 8005674:	4800      	ldr	r0, [pc, #0]	; (8005678 <LoraInfo_GetPtr+0x4>)
 8005676:	4770      	bx	lr
 8005678:	2000048c 	.word	0x2000048c

0800567c <RBI_Init>:
 800567c:	e92d 41f0 	stmdb	sp!, {r4, r5, r6, r7, r8, lr}
 8005680:	4d13      	ldr	r5, [pc, #76]	; (80056d0 <RBI_Init+0x54>)
 8005682:	4f14      	ldr	r7, [pc, #80]	; (80056d4 <RBI_Init+0x58>)
 8005684:	b086      	sub	sp, #24
 8005686:	f44f 7680 	mov.w	r6, #256	; 0x100
 800568a:	2301      	movs	r3, #1
 800568c:	2400      	movs	r4, #0
 800568e:	e9cd 6301 	strd	r6, r3, [sp, #4]
 8005692:	a901      	add	r1, sp, #4
 8005694:	2303      	movs	r3, #3
 8005696:	4628      	mov	r0, r5
 8005698:	9304      	str	r3, [sp, #16]
 800569a:	f44f 5800 	mov.w	r8, #8192	; 0x2000
 800569e:	9403      	str	r4, [sp, #12]
 80056a0:	9405      	str	r4, [sp, #20]
 80056a2:	f7fd fa25 	bl	8002af0 <HAL_GPIO_Init>
 80056a6:	a901      	add	r1, sp, #4
 80056a8:	4638      	mov	r0, r7
 80056aa:	f8cd 8004 	str.w	r8, [sp, #4]
 80056ae:	f7fd fa1f 	bl	8002af0 <HAL_GPIO_Init>
 80056b2:	4622      	mov	r2, r4
 80056b4:	4641      	mov	r1, r8
 80056b6:	4638      	mov	r0, r7
 80056b8:	f7fd fb3a 	bl	8002d30 <HAL_GPIO_WritePin>
 80056bc:	4628      	mov	r0, r5
 80056be:	4622      	mov	r2, r4
 80056c0:	4631      	mov	r1, r6
 80056c2:	f7fd fb35 	bl	8002d30 <HAL_GPIO_WritePin>
 80056c6:	4620      	mov	r0, r4
 80056c8:	b006      	add	sp, #24
 80056ca:	e8bd 81f0 	ldmia.w	sp!, {r4, r5, r6, r7, r8, pc}
 80056ce:	bf00      	nop
 80056d0:	48000400 	.word	0x48000400
 80056d4:	48000800 	.word	0x48000800

080056d8 <RBI_ConfigRFSwitch>:
 80056d8:	b508      	push	{r3, lr}
 80056da:	2803      	cmp	r0, #3
 80056dc:	d80f      	bhi.n	80056fe <RBI_ConfigRFSwitch+0x26>
 80056de:	e8df f000 	tbb	[pc, r0]
 80056e2:	1002      	.short	0x1002
 80056e4:	1a12      	.short	0x1a12
 80056e6:	2200      	movs	r2, #0
 80056e8:	480c      	ldr	r0, [pc, #48]	; (800571c <RBI_ConfigRFSwitch+0x44>)
 80056ea:	f44f 7180 	mov.w	r1, #256	; 0x100
 80056ee:	f7fd fb1f 	bl	8002d30 <HAL_GPIO_WritePin>
 80056f2:	2200      	movs	r2, #0
 80056f4:	480a      	ldr	r0, [pc, #40]	; (8005720 <RBI_ConfigRFSwitch+0x48>)
 80056f6:	f44f 5100 	mov.w	r1, #8192	; 0x2000
 80056fa:	f7fd fb19 	bl	8002d30 <HAL_GPIO_WritePin>
 80056fe:	2000      	movs	r0, #0
 8005700:	bd08      	pop	{r3, pc}
 8005702:	2201      	movs	r2, #1
 8005704:	e7f0      	b.n	80056e8 <RBI_ConfigRFSwitch+0x10>
 8005706:	2201      	movs	r2, #1
 8005708:	4804      	ldr	r0, [pc, #16]	; (800571c <RBI_ConfigRFSwitch+0x44>)
 800570a:	f44f 7180 	mov.w	r1, #256	; 0x100
 800570e:	f7fd fb0f 	bl	8002d30 <HAL_GPIO_WritePin>
 8005712:	2201      	movs	r2, #1
 8005714:	e7ee      	b.n	80056f4 <RBI_ConfigRFSwitch+0x1c>
 8005716:	2200      	movs	r2, #0
 8005718:	e7f6      	b.n	8005708 <RBI_ConfigRFSwitch+0x30>
 800571a:	bf00      	nop
 800571c:	48000400 	.word	0x48000400
 8005720:	48000800 	.word	0x48000800

08005724 <RBI_GetTxConfig>:
 8005724:	2002      	movs	r0, #2
 8005726:	4770      	bx	lr

08005728 <RBI_IsTCXO>:
 8005728:	2000      	movs	r0, #0
 800572a:	4770      	bx	lr

0800572c <RBI_IsDCDC>:
 800572c:	2001      	movs	r0, #1
 800572e:	4770      	bx	lr

08005730 <RBI_GetRFOMaxPowerConfig>:
 8005730:	2800      	cmp	r0, #0
 8005732:	bf0c      	ite	eq
 8005734:	200f      	moveq	r0, #15
 8005736:	2016      	movne	r0, #22
 8005738:	4770      	bx	lr

0800573a <AES_CMAC_Init>:
 800573a:	b510      	push	{r4, lr}
 800573c:	2210      	movs	r2, #16
 800573e:	4604      	mov	r4, r0
 8005740:	2100      	movs	r1, #0
 8005742:	30f1      	adds	r0, #241	; 0xf1
 8005744:	f005 ffd8 	bl	800b6f8 <memset1>
 8005748:	2100      	movs	r1, #0
 800574a:	f8c4 1114 	str.w	r1, [r4, #276]	; 0x114
 800574e:	4620      	mov	r0, r4
 8005750:	22f0      	movs	r2, #240	; 0xf0
 8005752:	e8bd 4010 	ldmia.w	sp!, {r4, lr}
 8005756:	f005 bfcf 	b.w	800b6f8 <memset1>

0800575a <AES_CMAC_SetKey>:
 800575a:	4602      	mov	r2, r0
 800575c:	4608      	mov	r0, r1
 800575e:	2110      	movs	r1, #16
 8005760:	f000 b99c 	b.w	8005a9c <lorawan_aes_set_key>

08005764 <AES_CMAC_Update>:
 8005764:	e92d 43f0 	stmdb	sp!, {r4, r5, r6, r7, r8, r9, lr}
 8005768:	4604      	mov	r4, r0
 800576a:	f8d0 0114 	ldr.w	r0, [r0, #276]	; 0x114
 800576e:	b085      	sub	sp, #20
 8005770:	460e      	mov	r6, r1
 8005772:	4615      	mov	r5, r2
 8005774:	f204 1701 	addw	r7, r4, #257	; 0x101
 8005778:	b388      	cbz	r0, 80057de <AES_CMAC_Update+0x7a>
 800577a:	f1c0 0910 	rsb	r9, r0, #16
 800577e:	4591      	cmp	r9, r2
 8005780:	46c8      	mov	r8, r9
 8005782:	bf28      	it	cs
 8005784:	4690      	movcs	r8, r2
 8005786:	fa1f f288 	uxth.w	r2, r8
 800578a:	4438      	add	r0, r7
 800578c:	f005 ffa0 	bl	800b6d0 <memcpy1>
 8005790:	f8d4 3114 	ldr.w	r3, [r4, #276]	; 0x114
 8005794:	4443      	add	r3, r8
 8005796:	2b0f      	cmp	r3, #15
 8005798:	f8c4 3114 	str.w	r3, [r4, #276]	; 0x114
 800579c:	d928      	bls.n	80057f0 <AES_CMAC_Update+0x8c>
 800579e:	45a9      	cmp	r9, r5
 80057a0:	d226      	bcs.n	80057f0 <AES_CMAC_Update+0x8c>
 80057a2:	f104 03f1 	add.w	r3, r4, #241	; 0xf1
 80057a6:	4699      	mov	r9, r3
 80057a8:	f813 2b01 	ldrb.w	r2, [r3], #1
 80057ac:	7bd9      	ldrb	r1, [r3, #15]
 80057ae:	42bb      	cmp	r3, r7
 80057b0:	ea82 0201 	eor.w	r2, r2, r1
 80057b4:	f803 2c01 	strb.w	r2, [r3, #-1]
 80057b8:	d1f6      	bne.n	80057a8 <AES_CMAC_Update+0x44>
 80057ba:	2210      	movs	r2, #16
 80057bc:	4649      	mov	r1, r9
 80057be:	4668      	mov	r0, sp
 80057c0:	f005 ff86 	bl	800b6d0 <memcpy1>
 80057c4:	4622      	mov	r2, r4
 80057c6:	4669      	mov	r1, sp
 80057c8:	4668      	mov	r0, sp
 80057ca:	f000 f9e3 	bl	8005b94 <lorawan_aes_encrypt>
 80057ce:	2210      	movs	r2, #16
 80057d0:	4669      	mov	r1, sp
 80057d2:	4648      	mov	r0, r9
 80057d4:	f005 ff7c 	bl	800b6d0 <memcpy1>
 80057d8:	4446      	add	r6, r8
 80057da:	eba5 0508 	sub.w	r5, r5, r8
 80057de:	2d10      	cmp	r5, #16
 80057e0:	d809      	bhi.n	80057f6 <AES_CMAC_Update+0x92>
 80057e2:	b2aa      	uxth	r2, r5
 80057e4:	4631      	mov	r1, r6
 80057e6:	4638      	mov	r0, r7
 80057e8:	f005 ff72 	bl	800b6d0 <memcpy1>
 80057ec:	f8c4 5114 	str.w	r5, [r4, #276]	; 0x114
 80057f0:	b005      	add	sp, #20
 80057f2:	e8bd 83f0 	ldmia.w	sp!, {r4, r5, r6, r7, r8, r9, pc}
 80057f6:	f104 03f1 	add.w	r3, r4, #241	; 0xf1
 80057fa:	1e71      	subs	r1, r6, #1
 80057fc:	4698      	mov	r8, r3
 80057fe:	781a      	ldrb	r2, [r3, #0]
 8005800:	f811 0f01 	ldrb.w	r0, [r1, #1]!
 8005804:	4042      	eors	r2, r0
 8005806:	f803 2b01 	strb.w	r2, [r3], #1
 800580a:	42bb      	cmp	r3, r7
 800580c:	d1f7      	bne.n	80057fe <AES_CMAC_Update+0x9a>
 800580e:	2210      	movs	r2, #16
 8005810:	4641      	mov	r1, r8
 8005812:	4668      	mov	r0, sp
 8005814:	f005 ff5c 	bl	800b6d0 <memcpy1>
 8005818:	4622      	mov	r2, r4
 800581a:	4669      	mov	r1, sp
 800581c:	4668      	mov	r0, sp
 800581e:	f000 f9b9 	bl	8005b94 <lorawan_aes_encrypt>
 8005822:	2210      	movs	r2, #16
 8005824:	4669      	mov	r1, sp
 8005826:	4640      	mov	r0, r8
 8005828:	f005 ff52 	bl	800b6d0 <memcpy1>
 800582c:	3610      	adds	r6, #16
 800582e:	3d10      	subs	r5, #16
 8005830:	e7d5      	b.n	80057de <AES_CMAC_Update+0x7a>

08005832 <AES_CMAC_Final>:
 8005832:	b5f0      	push	{r4, r5, r6, r7, lr}
 8005834:	b089      	sub	sp, #36	; 0x24
 8005836:	460c      	mov	r4, r1
 8005838:	2210      	movs	r2, #16
 800583a:	2100      	movs	r1, #0
 800583c:	4606      	mov	r6, r0
 800583e:	4668      	mov	r0, sp
 8005840:	f005 ff5a 	bl	800b6f8 <memset1>
 8005844:	4622      	mov	r2, r4
 8005846:	4669      	mov	r1, sp
 8005848:	4668      	mov	r0, sp
 800584a:	f000 f9a3 	bl	8005b94 <lorawan_aes_encrypt>
 800584e:	f99d 3000 	ldrsb.w	r3, [sp]
 8005852:	2b00      	cmp	r3, #0
 8005854:	466a      	mov	r2, sp
 8005856:	f04f 0100 	mov.w	r1, #0
 800585a:	da41      	bge.n	80058e0 <AES_CMAC_Final+0xae>
 800585c:	7813      	ldrb	r3, [r2, #0]
 800585e:	f812 0f01 	ldrb.w	r0, [r2, #1]!
 8005862:	3101      	adds	r1, #1
 8005864:	005b      	lsls	r3, r3, #1
 8005866:	ea43 13d0 	orr.w	r3, r3, r0, lsr #7
 800586a:	290f      	cmp	r1, #15
 800586c:	f802 3c01 	strb.w	r3, [r2, #-1]
 8005870:	d1f4      	bne.n	800585c <AES_CMAC_Final+0x2a>
 8005872:	f89d 300f 	ldrb.w	r3, [sp, #15]
 8005876:	005b      	lsls	r3, r3, #1
 8005878:	f083 0387 	eor.w	r3, r3, #135	; 0x87
 800587c:	f88d 300f 	strb.w	r3, [sp, #15]
 8005880:	f8d4 3114 	ldr.w	r3, [r4, #276]	; 0x114
 8005884:	2b10      	cmp	r3, #16
 8005886:	d13a      	bne.n	80058fe <AES_CMAC_Final+0xcc>
 8005888:	f204 1301 	addw	r3, r4, #257	; 0x101
 800588c:	4669      	mov	r1, sp
 800588e:	f204 1011 	addw	r0, r4, #273	; 0x111
 8005892:	781a      	ldrb	r2, [r3, #0]
 8005894:	f811 5b01 	ldrb.w	r5, [r1], #1
 8005898:	406a      	eors	r2, r5
 800589a:	f803 2b01 	strb.w	r2, [r3], #1
 800589e:	4298      	cmp	r0, r3
 80058a0:	d1f7      	bne.n	8005892 <AES_CMAC_Final+0x60>
 80058a2:	f104 03f1 	add.w	r3, r4, #241	; 0xf1
 80058a6:	f204 1001 	addw	r0, r4, #257	; 0x101
 80058aa:	4619      	mov	r1, r3
 80058ac:	f813 2b01 	ldrb.w	r2, [r3], #1
 80058b0:	7bdd      	ldrb	r5, [r3, #15]
 80058b2:	4283      	cmp	r3, r0
 80058b4:	ea82 0205 	eor.w	r2, r2, r5
 80058b8:	f803 2c01 	strb.w	r2, [r3, #-1]
 80058bc:	d1f6      	bne.n	80058ac <AES_CMAC_Final+0x7a>
 80058be:	2210      	movs	r2, #16
 80058c0:	eb0d 0002 	add.w	r0, sp, r2
 80058c4:	f005 ff04 	bl	800b6d0 <memcpy1>
 80058c8:	4622      	mov	r2, r4
 80058ca:	4631      	mov	r1, r6
 80058cc:	a804      	add	r0, sp, #16
 80058ce:	f000 f961 	bl	8005b94 <lorawan_aes_encrypt>
 80058d2:	2210      	movs	r2, #16
 80058d4:	2100      	movs	r1, #0
 80058d6:	4668      	mov	r0, sp
 80058d8:	f005 ff0e 	bl	800b6f8 <memset1>
 80058dc:	b009      	add	sp, #36	; 0x24
 80058de:	bdf0      	pop	{r4, r5, r6, r7, pc}
 80058e0:	7813      	ldrb	r3, [r2, #0]
 80058e2:	f812 0f01 	ldrb.w	r0, [r2, #1]!
 80058e6:	3101      	adds	r1, #1
 80058e8:	005b      	lsls	r3, r3, #1
 80058ea:	ea43 13d0 	orr.w	r3, r3, r0, lsr #7
 80058ee:	290f      	cmp	r1, #15
 80058f0:	f802 3c01 	strb.w	r3, [r2, #-1]
 80058f4:	d1f4      	bne.n	80058e0 <AES_CMAC_Final+0xae>
 80058f6:	f89d 300f 	ldrb.w	r3, [sp, #15]
 80058fa:	005b      	lsls	r3, r3, #1
 80058fc:	e7be      	b.n	800587c <AES_CMAC_Final+0x4a>
 80058fe:	f99d 2000 	ldrsb.w	r2, [sp]
 8005902:	2a00      	cmp	r2, #0
 8005904:	4669      	mov	r1, sp
 8005906:	f04f 0000 	mov.w	r0, #0
 800590a:	da35      	bge.n	8005978 <AES_CMAC_Final+0x146>
 800590c:	780a      	ldrb	r2, [r1, #0]
 800590e:	f811 5f01 	ldrb.w	r5, [r1, #1]!
 8005912:	3001      	adds	r0, #1
 8005914:	0052      	lsls	r2, r2, #1
 8005916:	ea42 12d5 	orr.w	r2, r2, r5, lsr #7
 800591a:	280f      	cmp	r0, #15
 800591c:	f801 2c01 	strb.w	r2, [r1, #-1]
 8005920:	d1f4      	bne.n	800590c <AES_CMAC_Final+0xda>
 8005922:	f89d 200f 	ldrb.w	r2, [sp, #15]
 8005926:	0052      	lsls	r2, r2, #1
 8005928:	f082 0287 	eor.w	r2, r2, #135	; 0x87
 800592c:	1c5f      	adds	r7, r3, #1
 800592e:	f88d 200f 	strb.w	r2, [sp, #15]
 8005932:	2f10      	cmp	r7, #16
 8005934:	eb04 0203 	add.w	r2, r4, r3
 8005938:	f1c3 050f 	rsb	r5, r3, #15
 800593c:	f04f 0180 	mov.w	r1, #128	; 0x80
 8005940:	bf88      	it	hi
 8005942:	2500      	movhi	r5, #0
 8005944:	f503 7381 	add.w	r3, r3, #258	; 0x102
 8005948:	f882 1101 	strb.w	r1, [r2, #257]	; 0x101
 800594c:	18e0      	adds	r0, r4, r3
 800594e:	462a      	mov	r2, r5
 8005950:	2100      	movs	r1, #0
 8005952:	443d      	add	r5, r7
 8005954:	f008 fab2 	bl	800debc <memset>
 8005958:	f8c4 5114 	str.w	r5, [r4, #276]	; 0x114
 800595c:	f204 1301 	addw	r3, r4, #257	; 0x101
 8005960:	4669      	mov	r1, sp
 8005962:	f204 1011 	addw	r0, r4, #273	; 0x111
 8005966:	781a      	ldrb	r2, [r3, #0]
 8005968:	f811 5b01 	ldrb.w	r5, [r1], #1
 800596c:	406a      	eors	r2, r5
 800596e:	f803 2b01 	strb.w	r2, [r3], #1
 8005972:	4298      	cmp	r0, r3
 8005974:	d1f7      	bne.n	8005966 <AES_CMAC_Final+0x134>
 8005976:	e794      	b.n	80058a2 <AES_CMAC_Final+0x70>
 8005978:	780a      	ldrb	r2, [r1, #0]
 800597a:	f811 5f01 	ldrb.w	r5, [r1, #1]!
 800597e:	3001      	adds	r0, #1
 8005980:	0052      	lsls	r2, r2, #1
 8005982:	ea42 12d5 	orr.w	r2, r2, r5, lsr #7
 8005986:	280f      	cmp	r0, #15
 8005988:	f801 2c01 	strb.w	r2, [r1, #-1]
 800598c:	d1f4      	bne.n	8005978 <AES_CMAC_Final+0x146>
 800598e:	f89d 200f 	ldrb.w	r2, [sp, #15]
 8005992:	0052      	lsls	r2, r2, #1
 8005994:	e7ca      	b.n	800592c <AES_CMAC_Final+0xfa>

08005996 <xor_block>:
 8005996:	780a      	ldrb	r2, [r1, #0]
 8005998:	7803      	ldrb	r3, [r0, #0]
 800599a:	4053      	eors	r3, r2
 800599c:	7003      	strb	r3, [r0, #0]
 800599e:	784a      	ldrb	r2, [r1, #1]
 80059a0:	7843      	ldrb	r3, [r0, #1]
 80059a2:	4053      	eors	r3, r2
 80059a4:	7043      	strb	r3, [r0, #1]
 80059a6:	788a      	ldrb	r2, [r1, #2]
 80059a8:	7883      	ldrb	r3, [r0, #2]
 80059aa:	4053      	eors	r3, r2
 80059ac:	7083      	strb	r3, [r0, #2]
 80059ae:	78ca      	ldrb	r2, [r1, #3]
 80059b0:	78c3      	ldrb	r3, [r0, #3]
 80059b2:	4053      	eors	r3, r2
 80059b4:	70c3      	strb	r3, [r0, #3]
 80059b6:	790a      	ldrb	r2, [r1, #4]
 80059b8:	7903      	ldrb	r3, [r0, #4]
 80059ba:	4053      	eors	r3, r2
 80059bc:	7103      	strb	r3, [r0, #4]
 80059be:	794a      	ldrb	r2, [r1, #5]
 80059c0:	7943      	ldrb	r3, [r0, #5]
 80059c2:	4053      	eors	r3, r2
 80059c4:	7143      	strb	r3, [r0, #5]
 80059c6:	798a      	ldrb	r2, [r1, #6]
 80059c8:	7983      	ldrb	r3, [r0, #6]
 80059ca:	4053      	eors	r3, r2
 80059cc:	7183      	strb	r3, [r0, #6]
 80059ce:	79ca      	ldrb	r2, [r1, #7]
 80059d0:	79c3      	ldrb	r3, [r0, #7]
 80059d2:	4053      	eors	r3, r2
 80059d4:	71c3      	strb	r3, [r0, #7]
 80059d6:	7a0a      	ldrb	r2, [r1, #8]
 80059d8:	7a03      	ldrb	r3, [r0, #8]
 80059da:	4053      	eors	r3, r2
 80059dc:	7203      	strb	r3, [r0, #8]
 80059de:	7a4a      	ldrb	r2, [r1, #9]
 80059e0:	7a43      	ldrb	r3, [r0, #9]
 80059e2:	4053      	eors	r3, r2
 80059e4:	7243      	strb	r3, [r0, #9]
 80059e6:	7a8a      	ldrb	r2, [r1, #10]
 80059e8:	7a83      	ldrb	r3, [r0, #10]
 80059ea:	4053      	eors	r3, r2
 80059ec:	7283      	strb	r3, [r0, #10]
 80059ee:	7aca      	ldrb	r2, [r1, #11]
 80059f0:	7ac3      	ldrb	r3, [r0, #11]
 80059f2:	4053      	eors	r3, r2
 80059f4:	72c3      	strb	r3, [r0, #11]
 80059f6:	7b0a      	ldrb	r2, [r1, #12]
 80059f8:	7b03      	ldrb	r3, [r0, #12]
 80059fa:	4053      	eors	r3, r2
 80059fc:	7303      	strb	r3, [r0, #12]
 80059fe:	7b4a      	ldrb	r2, [r1, #13]
 8005a00:	7b43      	ldrb	r3, [r0, #13]
 8005a02:	4053      	eors	r3, r2
 8005a04:	7343      	strb	r3, [r0, #13]
 8005a06:	7b8a      	ldrb	r2, [r1, #14]
 8005a08:	7b83      	ldrb	r3, [r0, #14]
 8005a0a:	4053      	eors	r3, r2
 8005a0c:	7383      	strb	r3, [r0, #14]
 8005a0e:	7bca      	ldrb	r2, [r1, #15]
 8005a10:	7bc3      	ldrb	r3, [r0, #15]
 8005a12:	4053      	eors	r3, r2
 8005a14:	73c3      	strb	r3, [r0, #15]
 8005a16:	4770      	bx	lr

08005a18 <copy_and_key>:
 8005a18:	b510      	push	{r4, lr}
 8005a1a:	780b      	ldrb	r3, [r1, #0]
 8005a1c:	7814      	ldrb	r4, [r2, #0]
 8005a1e:	4063      	eors	r3, r4
 8005a20:	7003      	strb	r3, [r0, #0]
 8005a22:	7854      	ldrb	r4, [r2, #1]
 8005a24:	784b      	ldrb	r3, [r1, #1]
 8005a26:	4063      	eors	r3, r4
 8005a28:	7043      	strb	r3, [r0, #1]
 8005a2a:	7894      	ldrb	r4, [r2, #2]
 8005a2c:	788b      	ldrb	r3, [r1, #2]
 8005a2e:	4063      	eors	r3, r4
 8005a30:	7083      	strb	r3, [r0, #2]
 8005a32:	78d4      	ldrb	r4, [r2, #3]
 8005a34:	78cb      	ldrb	r3, [r1, #3]
 8005a36:	4063      	eors	r3, r4
 8005a38:	70c3      	strb	r3, [r0, #3]
 8005a3a:	7914      	ldrb	r4, [r2, #4]
 8005a3c:	790b      	ldrb	r3, [r1, #4]
 8005a3e:	4063      	eors	r3, r4
 8005a40:	7103      	strb	r3, [r0, #4]
 8005a42:	7954      	ldrb	r4, [r2, #5]
 8005a44:	794b      	ldrb	r3, [r1, #5]
 8005a46:	4063      	eors	r3, r4
 8005a48:	7143      	strb	r3, [r0, #5]
 8005a4a:	7994      	ldrb	r4, [r2, #6]
 8005a4c:	798b      	ldrb	r3, [r1, #6]
 8005a4e:	4063      	eors	r3, r4
 8005a50:	7183      	strb	r3, [r0, #6]
 8005a52:	79d4      	ldrb	r4, [r2, #7]
 8005a54:	79cb      	ldrb	r3, [r1, #7]
 8005a56:	4063      	eors	r3, r4
 8005a58:	71c3      	strb	r3, [r0, #7]
 8005a5a:	7a14      	ldrb	r4, [r2, #8]
 8005a5c:	7a0b      	ldrb	r3, [r1, #8]
 8005a5e:	4063      	eors	r3, r4
 8005a60:	7203      	strb	r3, [r0, #8]
 8005a62:	7a54      	ldrb	r4, [r2, #9]
 8005a64:	7a4b      	ldrb	r3, [r1, #9]
 8005a66:	4063      	eors	r3, r4
 8005a68:	7243      	strb	r3, [r0, #9]
 8005a6a:	7a8b      	ldrb	r3, [r1, #10]
 8005a6c:	7a94      	ldrb	r4, [r2, #10]
 8005a6e:	4063      	eors	r3, r4
 8005a70:	7283      	strb	r3, [r0, #10]
 8005a72:	7ad4      	ldrb	r4, [r2, #11]
 8005a74:	7acb      	ldrb	r3, [r1, #11]
 8005a76:	4063      	eors	r3, r4
 8005a78:	72c3      	strb	r3, [r0, #11]
 8005a7a:	7b14      	ldrb	r4, [r2, #12]
 8005a7c:	7b0b      	ldrb	r3, [r1, #12]
 8005a7e:	4063      	eors	r3, r4
 8005a80:	7303      	strb	r3, [r0, #12]
 8005a82:	7b54      	ldrb	r4, [r2, #13]
 8005a84:	7b4b      	ldrb	r3, [r1, #13]
 8005a86:	4063      	eors	r3, r4
 8005a88:	7343      	strb	r3, [r0, #13]
 8005a8a:	7b94      	ldrb	r4, [r2, #14]
 8005a8c:	7b8b      	ldrb	r3, [r1, #14]
 8005a8e:	4063      	eors	r3, r4
 8005a90:	7383      	strb	r3, [r0, #14]
 8005a92:	7bcb      	ldrb	r3, [r1, #15]
 8005a94:	7bd2      	ldrb	r2, [r2, #15]
 8005a96:	4053      	eors	r3, r2
 8005a98:	73c3      	strb	r3, [r0, #15]
 8005a9a:	bd10      	pop	{r4, pc}

08005a9c <lorawan_aes_set_key>:
 8005a9c:	f1a1 0310 	sub.w	r3, r1, #16
 8005aa0:	e92d 47f0 	stmdb	sp!, {r4, r5, r6, r7, r8, r9, sl, lr}
 8005aa4:	b2dc      	uxtb	r4, r3
 8005aa6:	2c10      	cmp	r4, #16
 8005aa8:	d806      	bhi.n	8005ab8 <lorawan_aes_set_key+0x1c>
 8005aaa:	2301      	movs	r3, #1
 8005aac:	40a3      	lsls	r3, r4
 8005aae:	f003 3301 	and.w	r3, r3, #16843009	; 0x1010101
 8005ab2:	f023 7380 	bic.w	r3, r3, #16777216	; 0x1000000
 8005ab6:	b92b      	cbnz	r3, 8005ac4 <lorawan_aes_set_key+0x28>
 8005ab8:	2300      	movs	r3, #0
 8005aba:	f882 30f0 	strb.w	r3, [r2, #240]	; 0xf0
 8005abe:	20ff      	movs	r0, #255	; 0xff
 8005ac0:	e8bd 87f0 	ldmia.w	sp!, {r4, r5, r6, r7, r8, r9, sl, pc}
 8005ac4:	1e53      	subs	r3, r2, #1
 8005ac6:	1844      	adds	r4, r0, r1
 8005ac8:	42a0      	cmp	r0, r4
 8005aca:	d152      	bne.n	8005b72 <lorawan_aes_set_key+0xd6>
 8005acc:	f101 031c 	add.w	r3, r1, #28
 8005ad0:	009b      	lsls	r3, r3, #2
 8005ad2:	fa5f f883 	uxtb.w	r8, r3
 8005ad6:	f3c3 1303 	ubfx	r3, r3, #4, #4
 8005ada:	3b01      	subs	r3, #1
 8005adc:	4c2c      	ldr	r4, [pc, #176]	; (8005b90 <lorawan_aes_set_key+0xf4>)
 8005ade:	f882 30f0 	strb.w	r3, [r2, #240]	; 0xf0
 8005ae2:	f04f 0901 	mov.w	r9, #1
 8005ae6:	460b      	mov	r3, r1
 8005ae8:	eb02 0c03 	add.w	ip, r2, r3
 8005aec:	fbb3 f0f1 	udiv	r0, r3, r1
 8005af0:	fb01 3010 	mls	r0, r1, r0, r3
 8005af4:	f010 00ff 	ands.w	r0, r0, #255	; 0xff
 8005af8:	f81c ac04 	ldrb.w	sl, [ip, #-4]
 8005afc:	f81c 7c03 	ldrb.w	r7, [ip, #-3]
 8005b00:	f81c 6c02 	ldrb.w	r6, [ip, #-2]
 8005b04:	f81c 5c01 	ldrb.w	r5, [ip, #-1]
 8005b08:	d138      	bne.n	8005b7c <lorawan_aes_set_key+0xe0>
 8005b0a:	ea4f 10d9 	mov.w	r0, r9, lsr #7
 8005b0e:	f814 e007 	ldrb.w	lr, [r4, r7]
 8005b12:	5da7      	ldrb	r7, [r4, r6]
 8005b14:	5d66      	ldrb	r6, [r4, r5]
 8005b16:	f814 500a 	ldrb.w	r5, [r4, sl]
 8005b1a:	eb00 0040 	add.w	r0, r0, r0, lsl #1
 8005b1e:	eb00 00c0 	add.w	r0, r0, r0, lsl #3
 8005b22:	ea89 0e0e 	eor.w	lr, r9, lr
 8005b26:	ea80 0049 	eor.w	r0, r0, r9, lsl #1
 8005b2a:	fa5f f980 	uxtb.w	r9, r0
 8005b2e:	46f2      	mov	sl, lr
 8005b30:	1a58      	subs	r0, r3, r1
 8005b32:	b2c0      	uxtb	r0, r0
 8005b34:	f812 e000 	ldrb.w	lr, [r2, r0]
 8005b38:	ea8a 0a0e 	eor.w	sl, sl, lr
 8005b3c:	f802 a003 	strb.w	sl, [r2, r3]
 8005b40:	4410      	add	r0, r2
 8005b42:	f103 0e01 	add.w	lr, r3, #1
 8005b46:	f890 a001 	ldrb.w	sl, [r0, #1]
 8005b4a:	fa5f fe8e 	uxtb.w	lr, lr
 8005b4e:	ea87 070a 	eor.w	r7, r7, sl
 8005b52:	f802 700e 	strb.w	r7, [r2, lr]
 8005b56:	7887      	ldrb	r7, [r0, #2]
 8005b58:	407e      	eors	r6, r7
 8005b5a:	f88c 6002 	strb.w	r6, [ip, #2]
 8005b5e:	78c0      	ldrb	r0, [r0, #3]
 8005b60:	3304      	adds	r3, #4
 8005b62:	b2db      	uxtb	r3, r3
 8005b64:	4045      	eors	r5, r0
 8005b66:	4598      	cmp	r8, r3
 8005b68:	f88c 5003 	strb.w	r5, [ip, #3]
 8005b6c:	d8bc      	bhi.n	8005ae8 <lorawan_aes_set_key+0x4c>
 8005b6e:	2000      	movs	r0, #0
 8005b70:	e7a6      	b.n	8005ac0 <lorawan_aes_set_key+0x24>
 8005b72:	f810 5b01 	ldrb.w	r5, [r0], #1
 8005b76:	f803 5f01 	strb.w	r5, [r3, #1]!
 8005b7a:	e7a5      	b.n	8005ac8 <lorawan_aes_set_key+0x2c>
 8005b7c:	2918      	cmp	r1, #24
 8005b7e:	d9d7      	bls.n	8005b30 <lorawan_aes_set_key+0x94>
 8005b80:	2810      	cmp	r0, #16
 8005b82:	bf01      	itttt	eq
 8005b84:	f814 a00a 	ldrbeq.w	sl, [r4, sl]
 8005b88:	5de7      	ldrbeq	r7, [r4, r7]
 8005b8a:	5da6      	ldrbeq	r6, [r4, r6]
 8005b8c:	5d65      	ldrbeq	r5, [r4, r5]
 8005b8e:	e7cf      	b.n	8005b30 <lorawan_aes_set_key+0x94>
 8005b90:	0800eca7 	.word	0x0800eca7

08005b94 <lorawan_aes_encrypt>:
 8005b94:	e92d 4ff0 	stmdb	sp!, {r4, r5, r6, r7, r8, r9, sl, fp, lr}
 8005b98:	b093      	sub	sp, #76	; 0x4c
 8005b9a:	f892 30f0 	ldrb.w	r3, [r2, #240]	; 0xf0
 8005b9e:	910d      	str	r1, [sp, #52]	; 0x34
 8005ba0:	920b      	str	r2, [sp, #44]	; 0x2c
 8005ba2:	2b00      	cmp	r3, #0
 8005ba4:	f000 8144 	beq.w	8005e30 <lorawan_aes_encrypt+0x29c>
 8005ba8:	4601      	mov	r1, r0
 8005baa:	a80e      	add	r0, sp, #56	; 0x38
 8005bac:	f7ff ff34 	bl	8005a18 <copy_and_key>
 8005bb0:	4ca0      	ldr	r4, [pc, #640]	; (8005e34 <lorawan_aes_encrypt+0x2a0>)
 8005bb2:	4da1      	ldr	r5, [pc, #644]	; (8005e38 <lorawan_aes_encrypt+0x2a4>)
 8005bb4:	4ea1      	ldr	r6, [pc, #644]	; (8005e3c <lorawan_aes_encrypt+0x2a8>)
 8005bb6:	2301      	movs	r3, #1
 8005bb8:	9301      	str	r3, [sp, #4]
 8005bba:	9a01      	ldr	r2, [sp, #4]
 8005bbc:	9b0b      	ldr	r3, [sp, #44]	; 0x2c
 8005bbe:	f8dd 9004 	ldr.w	r9, [sp, #4]
 8005bc2:	f89d 8038 	ldrb.w	r8, [sp, #56]	; 0x38
 8005bc6:	f89d e03c 	ldrb.w	lr, [sp, #60]	; 0x3c
 8005bca:	f89d c03d 	ldrb.w	ip, [sp, #61]	; 0x3d
 8005bce:	f89d 7041 	ldrb.w	r7, [sp, #65]	; 0x41
 8005bd2:	f89d 0042 	ldrb.w	r0, [sp, #66]	; 0x42
 8005bd6:	f89d 1046 	ldrb.w	r1, [sp, #70]	; 0x46
 8005bda:	eb03 1302 	add.w	r3, r3, r2, lsl #4
 8005bde:	930c      	str	r3, [sp, #48]	; 0x30
 8005be0:	f89d 3039 	ldrb.w	r3, [sp, #57]	; 0x39
 8005be4:	9302      	str	r3, [sp, #8]
 8005be6:	f89d 303a 	ldrb.w	r3, [sp, #58]	; 0x3a
 8005bea:	9303      	str	r3, [sp, #12]
 8005bec:	f89d 303b 	ldrb.w	r3, [sp, #59]	; 0x3b
 8005bf0:	9304      	str	r3, [sp, #16]
 8005bf2:	f89d 303e 	ldrb.w	r3, [sp, #62]	; 0x3e
 8005bf6:	9305      	str	r3, [sp, #20]
 8005bf8:	f89d 303f 	ldrb.w	r3, [sp, #63]	; 0x3f
 8005bfc:	9306      	str	r3, [sp, #24]
 8005bfe:	f89d 3040 	ldrb.w	r3, [sp, #64]	; 0x40
 8005c02:	9307      	str	r3, [sp, #28]
 8005c04:	f89d 3043 	ldrb.w	r3, [sp, #67]	; 0x43
 8005c08:	9308      	str	r3, [sp, #32]
 8005c0a:	f89d 3044 	ldrb.w	r3, [sp, #68]	; 0x44
 8005c0e:	9309      	str	r3, [sp, #36]	; 0x24
 8005c10:	f89d 3045 	ldrb.w	r3, [sp, #69]	; 0x45
 8005c14:	930a      	str	r3, [sp, #40]	; 0x28
 8005c16:	9b0b      	ldr	r3, [sp, #44]	; 0x2c
 8005c18:	f89d 2047 	ldrb.w	r2, [sp, #71]	; 0x47
 8005c1c:	f893 30f0 	ldrb.w	r3, [r3, #240]	; 0xf0
 8005c20:	454b      	cmp	r3, r9
 8005c22:	d844      	bhi.n	8005cae <lorawan_aes_encrypt+0x11a>
 8005c24:	f814 3008 	ldrb.w	r3, [r4, r8]
 8005c28:	f88d 3038 	strb.w	r3, [sp, #56]	; 0x38
 8005c2c:	f814 300e 	ldrb.w	r3, [r4, lr]
 8005c30:	f88d 303c 	strb.w	r3, [sp, #60]	; 0x3c
 8005c34:	9b07      	ldr	r3, [sp, #28]
 8005c36:	5ce3      	ldrb	r3, [r4, r3]
 8005c38:	f88d 3040 	strb.w	r3, [sp, #64]	; 0x40
 8005c3c:	9b09      	ldr	r3, [sp, #36]	; 0x24
 8005c3e:	5ce3      	ldrb	r3, [r4, r3]
 8005c40:	f88d 3044 	strb.w	r3, [sp, #68]	; 0x44
 8005c44:	f814 300c 	ldrb.w	r3, [r4, ip]
 8005c48:	f88d 3039 	strb.w	r3, [sp, #57]	; 0x39
 8005c4c:	5de3      	ldrb	r3, [r4, r7]
 8005c4e:	f88d 303d 	strb.w	r3, [sp, #61]	; 0x3d
 8005c52:	9b0a      	ldr	r3, [sp, #40]	; 0x28
 8005c54:	5ce3      	ldrb	r3, [r4, r3]
 8005c56:	f88d 3041 	strb.w	r3, [sp, #65]	; 0x41
 8005c5a:	9b02      	ldr	r3, [sp, #8]
 8005c5c:	5ce3      	ldrb	r3, [r4, r3]
 8005c5e:	f88d 3045 	strb.w	r3, [sp, #69]	; 0x45
 8005c62:	5c23      	ldrb	r3, [r4, r0]
 8005c64:	f88d 303a 	strb.w	r3, [sp, #58]	; 0x3a
 8005c68:	9b03      	ldr	r3, [sp, #12]
 8005c6a:	5ce3      	ldrb	r3, [r4, r3]
 8005c6c:	f88d 3042 	strb.w	r3, [sp, #66]	; 0x42
 8005c70:	5c63      	ldrb	r3, [r4, r1]
 8005c72:	f88d 303e 	strb.w	r3, [sp, #62]	; 0x3e
 8005c76:	9b05      	ldr	r3, [sp, #20]
 8005c78:	5ce3      	ldrb	r3, [r4, r3]
 8005c7a:	f88d 3046 	strb.w	r3, [sp, #70]	; 0x46
 8005c7e:	9b08      	ldr	r3, [sp, #32]
 8005c80:	5ce3      	ldrb	r3, [r4, r3]
 8005c82:	f88d 3047 	strb.w	r3, [sp, #71]	; 0x47
 8005c86:	9b06      	ldr	r3, [sp, #24]
 8005c88:	980d      	ldr	r0, [sp, #52]	; 0x34
 8005c8a:	5ce3      	ldrb	r3, [r4, r3]
 8005c8c:	f88d 3043 	strb.w	r3, [sp, #67]	; 0x43
 8005c90:	9b04      	ldr	r3, [sp, #16]
 8005c92:	5ce3      	ldrb	r3, [r4, r3]
 8005c94:	f88d 303f 	strb.w	r3, [sp, #63]	; 0x3f
 8005c98:	a90e      	add	r1, sp, #56	; 0x38
 8005c9a:	5ca3      	ldrb	r3, [r4, r2]
 8005c9c:	9a0c      	ldr	r2, [sp, #48]	; 0x30
 8005c9e:	f88d 303b 	strb.w	r3, [sp, #59]	; 0x3b
 8005ca2:	f7ff feb9 	bl	8005a18 <copy_and_key>
 8005ca6:	2000      	movs	r0, #0
 8005ca8:	b013      	add	sp, #76	; 0x4c
 8005caa:	e8bd 8ff0 	ldmia.w	sp!, {r4, r5, r6, r7, r8, r9, sl, fp, pc}
 8005cae:	f816 b00c 	ldrb.w	fp, [r6, ip]
 8005cb2:	f815 9008 	ldrb.w	r9, [r5, r8]
 8005cb6:	f814 a000 	ldrb.w	sl, [r4, r0]
 8005cba:	5ca3      	ldrb	r3, [r4, r2]
 8005cbc:	ea89 090b 	eor.w	r9, r9, fp
 8005cc0:	ea8a 0909 	eor.w	r9, sl, r9
 8005cc4:	ea83 0909 	eor.w	r9, r3, r9
 8005cc8:	f88d 9038 	strb.w	r9, [sp, #56]	; 0x38
 8005ccc:	f814 9008 	ldrb.w	r9, [r4, r8]
 8005cd0:	f815 b00c 	ldrb.w	fp, [r5, ip]
 8005cd4:	ea83 0309 	eor.w	r3, r3, r9
 8005cd8:	ea8b 0303 	eor.w	r3, fp, r3
 8005cdc:	f816 b000 	ldrb.w	fp, [r6, r0]
 8005ce0:	5c28      	ldrb	r0, [r5, r0]
 8005ce2:	ea83 030b 	eor.w	r3, r3, fp
 8005ce6:	f88d 3039 	strb.w	r3, [sp, #57]	; 0x39
 8005cea:	f814 300c 	ldrb.w	r3, [r4, ip]
 8005cee:	f816 c007 	ldrb.w	ip, [r6, r7]
 8005cf2:	ea89 0903 	eor.w	r9, r9, r3
 8005cf6:	ea8a 0303 	eor.w	r3, sl, r3
 8005cfa:	f816 a008 	ldrb.w	sl, [r6, r8]
 8005cfe:	ea8a 0a03 	eor.w	sl, sl, r3
 8005d02:	5cab      	ldrb	r3, [r5, r2]
 8005d04:	ea89 0900 	eor.w	r9, r9, r0
 8005d08:	ea8a 0303 	eor.w	r3, sl, r3
 8005d0c:	5cb0      	ldrb	r0, [r6, r2]
 8005d0e:	f88d 303b 	strb.w	r3, [sp, #59]	; 0x3b
 8005d12:	f815 200e 	ldrb.w	r2, [r5, lr]
 8005d16:	9b04      	ldr	r3, [sp, #16]
 8005d18:	ea89 0900 	eor.w	r9, r9, r0
 8005d1c:	5c60      	ldrb	r0, [r4, r1]
 8005d1e:	5ce3      	ldrb	r3, [r4, r3]
 8005d20:	f88d 903a 	strb.w	r9, [sp, #58]	; 0x3a
 8005d24:	ea82 020c 	eor.w	r2, r2, ip
 8005d28:	4042      	eors	r2, r0
 8005d2a:	405a      	eors	r2, r3
 8005d2c:	f88d 203c 	strb.w	r2, [sp, #60]	; 0x3c
 8005d30:	f814 200e 	ldrb.w	r2, [r4, lr]
 8005d34:	f815 c007 	ldrb.w	ip, [r5, r7]
 8005d38:	4053      	eors	r3, r2
 8005d3a:	ea8c 0303 	eor.w	r3, ip, r3
 8005d3e:	f816 c001 	ldrb.w	ip, [r6, r1]
 8005d42:	5c69      	ldrb	r1, [r5, r1]
 8005d44:	ea83 030c 	eor.w	r3, r3, ip
 8005d48:	f88d 303d 	strb.w	r3, [sp, #61]	; 0x3d
 8005d4c:	5de3      	ldrb	r3, [r4, r7]
 8005d4e:	405a      	eors	r2, r3
 8005d50:	404a      	eors	r2, r1
 8005d52:	9904      	ldr	r1, [sp, #16]
 8005d54:	5c71      	ldrb	r1, [r6, r1]
 8005d56:	4043      	eors	r3, r0
 8005d58:	f816 000e 	ldrb.w	r0, [r6, lr]
 8005d5c:	404a      	eors	r2, r1
 8005d5e:	4058      	eors	r0, r3
 8005d60:	f88d 203e 	strb.w	r2, [sp, #62]	; 0x3e
 8005d64:	9b04      	ldr	r3, [sp, #16]
 8005d66:	9a07      	ldr	r2, [sp, #28]
 8005d68:	5ceb      	ldrb	r3, [r5, r3]
 8005d6a:	5caa      	ldrb	r2, [r5, r2]
 8005d6c:	4043      	eors	r3, r0
 8005d6e:	f88d 303f 	strb.w	r3, [sp, #63]	; 0x3f
 8005d72:	980a      	ldr	r0, [sp, #40]	; 0x28
 8005d74:	9b03      	ldr	r3, [sp, #12]
 8005d76:	5c30      	ldrb	r0, [r6, r0]
 8005d78:	5ce1      	ldrb	r1, [r4, r3]
 8005d7a:	9b06      	ldr	r3, [sp, #24]
 8005d7c:	4042      	eors	r2, r0
 8005d7e:	5ce3      	ldrb	r3, [r4, r3]
 8005d80:	980a      	ldr	r0, [sp, #40]	; 0x28
 8005d82:	404a      	eors	r2, r1
 8005d84:	405a      	eors	r2, r3
 8005d86:	f88d 2040 	strb.w	r2, [sp, #64]	; 0x40
 8005d8a:	9a07      	ldr	r2, [sp, #28]
 8005d8c:	5c28      	ldrb	r0, [r5, r0]
 8005d8e:	5ca2      	ldrb	r2, [r4, r2]
 8005d90:	4053      	eors	r3, r2
 8005d92:	4043      	eors	r3, r0
 8005d94:	9803      	ldr	r0, [sp, #12]
 8005d96:	5c30      	ldrb	r0, [r6, r0]
 8005d98:	4043      	eors	r3, r0
 8005d9a:	f88d 3041 	strb.w	r3, [sp, #65]	; 0x41
 8005d9e:	9b0a      	ldr	r3, [sp, #40]	; 0x28
 8005da0:	9803      	ldr	r0, [sp, #12]
 8005da2:	5ce3      	ldrb	r3, [r4, r3]
 8005da4:	5c28      	ldrb	r0, [r5, r0]
 8005da6:	405a      	eors	r2, r3
 8005da8:	4042      	eors	r2, r0
 8005daa:	9806      	ldr	r0, [sp, #24]
 8005dac:	5c30      	ldrb	r0, [r6, r0]
 8005dae:	4042      	eors	r2, r0
 8005db0:	f88d 2042 	strb.w	r2, [sp, #66]	; 0x42
 8005db4:	9a07      	ldr	r2, [sp, #28]
 8005db6:	404b      	eors	r3, r1
 8005db8:	5cb1      	ldrb	r1, [r6, r2]
 8005dba:	9a06      	ldr	r2, [sp, #24]
 8005dbc:	404b      	eors	r3, r1
 8005dbe:	5ca9      	ldrb	r1, [r5, r2]
 8005dc0:	404b      	eors	r3, r1
 8005dc2:	f88d 3043 	strb.w	r3, [sp, #67]	; 0x43
 8005dc6:	9b05      	ldr	r3, [sp, #20]
 8005dc8:	5ce3      	ldrb	r3, [r4, r3]
 8005dca:	9a08      	ldr	r2, [sp, #32]
 8005dcc:	9802      	ldr	r0, [sp, #8]
 8005dce:	5ca1      	ldrb	r1, [r4, r2]
 8005dd0:	9a09      	ldr	r2, [sp, #36]	; 0x24
 8005dd2:	5c30      	ldrb	r0, [r6, r0]
 8005dd4:	5caa      	ldrb	r2, [r5, r2]
 8005dd6:	4042      	eors	r2, r0
 8005dd8:	405a      	eors	r2, r3
 8005dda:	404a      	eors	r2, r1
 8005ddc:	f88d 2044 	strb.w	r2, [sp, #68]	; 0x44
 8005de0:	9a09      	ldr	r2, [sp, #36]	; 0x24
 8005de2:	9802      	ldr	r0, [sp, #8]
 8005de4:	5ca2      	ldrb	r2, [r4, r2]
 8005de6:	5c28      	ldrb	r0, [r5, r0]
 8005de8:	4051      	eors	r1, r2
 8005dea:	4041      	eors	r1, r0
 8005dec:	9805      	ldr	r0, [sp, #20]
 8005dee:	5c30      	ldrb	r0, [r6, r0]
 8005df0:	4041      	eors	r1, r0
 8005df2:	f88d 1045 	strb.w	r1, [sp, #69]	; 0x45
 8005df6:	9902      	ldr	r1, [sp, #8]
 8005df8:	9805      	ldr	r0, [sp, #20]
 8005dfa:	5c61      	ldrb	r1, [r4, r1]
 8005dfc:	5c28      	ldrb	r0, [r5, r0]
 8005dfe:	404a      	eors	r2, r1
 8005e00:	4042      	eors	r2, r0
 8005e02:	9808      	ldr	r0, [sp, #32]
 8005e04:	5c30      	ldrb	r0, [r6, r0]
 8005e06:	4042      	eors	r2, r0
 8005e08:	f88d 2046 	strb.w	r2, [sp, #70]	; 0x46
 8005e0c:	9a09      	ldr	r2, [sp, #36]	; 0x24
 8005e0e:	5cb2      	ldrb	r2, [r6, r2]
 8005e10:	404b      	eors	r3, r1
 8005e12:	4053      	eors	r3, r2
 8005e14:	9a08      	ldr	r2, [sp, #32]
 8005e16:	990c      	ldr	r1, [sp, #48]	; 0x30
 8005e18:	5caa      	ldrb	r2, [r5, r2]
 8005e1a:	a80e      	add	r0, sp, #56	; 0x38
 8005e1c:	4053      	eors	r3, r2
 8005e1e:	f88d 3047 	strb.w	r3, [sp, #71]	; 0x47
 8005e22:	f7ff fdb8 	bl	8005996 <xor_block>
 8005e26:	9b01      	ldr	r3, [sp, #4]
 8005e28:	3301      	adds	r3, #1
 8005e2a:	b2db      	uxtb	r3, r3
 8005e2c:	9301      	str	r3, [sp, #4]
 8005e2e:	e6c4      	b.n	8005bba <lorawan_aes_encrypt+0x26>
 8005e30:	20ff      	movs	r0, #255	; 0xff
 8005e32:	e739      	b.n	8005ca8 <lorawan_aes_encrypt+0x114>
 8005e34:	0800eca7 	.word	0x0800eca7
 8005e38:	0800eaa7 	.word	0x0800eaa7
 8005e3c:	0800eba7 	.word	0x0800eba7

08005e40 <SecureElementInit>:
 8005e40:	b508      	push	{r3, lr}
 8005e42:	b138      	cbz	r0, 8005e54 <SecureElementInit+0x14>
 8005e44:	4a04      	ldr	r2, [pc, #16]	; (8005e58 <SecureElementInit+0x18>)
 8005e46:	4905      	ldr	r1, [pc, #20]	; (8005e5c <SecureElementInit+0x1c>)
 8005e48:	6010      	str	r0, [r2, #0]
 8005e4a:	22c0      	movs	r2, #192	; 0xc0
 8005e4c:	f005 fc40 	bl	800b6d0 <memcpy1>
 8005e50:	2000      	movs	r0, #0
 8005e52:	bd08      	pop	{r3, pc}
 8005e54:	2002      	movs	r0, #2
 8005e56:	e7fc      	b.n	8005e52 <SecureElementInit+0x12>
 8005e58:	2000049c 	.word	0x2000049c
 8005e5c:	0800f008 	.word	0x0800f008

08005e60 <SecureElementGetKeyByID>:
 8005e60:	4b0a      	ldr	r3, [pc, #40]	; (8005e8c <SecureElementGetKeyByID+0x2c>)
 8005e62:	681a      	ldr	r2, [r3, #0]
 8005e64:	b570      	push	{r4, r5, r6, lr}
 8005e66:	2300      	movs	r3, #0
 8005e68:	f102 0510 	add.w	r5, r2, #16
 8005e6c:	eb03 1403 	add.w	r4, r3, r3, lsl #4
 8005e70:	5d2e      	ldrb	r6, [r5, r4]
 8005e72:	4286      	cmp	r6, r0
 8005e74:	d104      	bne.n	8005e80 <SecureElementGetKeyByID+0x20>
 8005e76:	3410      	adds	r4, #16
 8005e78:	4422      	add	r2, r4
 8005e7a:	600a      	str	r2, [r1, #0]
 8005e7c:	2000      	movs	r0, #0
 8005e7e:	bd70      	pop	{r4, r5, r6, pc}
 8005e80:	3301      	adds	r3, #1
 8005e82:	2b0a      	cmp	r3, #10
 8005e84:	d1f2      	bne.n	8005e6c <SecureElementGetKeyByID+0xc>
 8005e86:	2003      	movs	r0, #3
 8005e88:	e7f9      	b.n	8005e7e <SecureElementGetKeyByID+0x1e>
 8005e8a:	bf00      	nop
 8005e8c:	2000049c 	.word	0x2000049c

08005e90 <ComputeCmac>:
 8005e90:	e92d 41f0 	stmdb	sp!, {r4, r5, r6, r7, r8, lr}
 8005e94:	b0cc      	sub	sp, #304	; 0x130
 8005e96:	4606      	mov	r6, r0
 8005e98:	f8dd 8148 	ldr.w	r8, [sp, #328]	; 0x148
 8005e9c:	4617      	mov	r7, r2
 8005e9e:	461c      	mov	r4, r3
 8005ea0:	460d      	mov	r5, r1
 8005ea2:	b331      	cbz	r1, 8005ef2 <ComputeCmac+0x62>
 8005ea4:	f1b8 0f00 	cmp.w	r8, #0
 8005ea8:	d023      	beq.n	8005ef2 <ComputeCmac+0x62>
 8005eaa:	a806      	add	r0, sp, #24
 8005eac:	f7ff fc45 	bl	800573a <AES_CMAC_Init>
 8005eb0:	4620      	mov	r0, r4
 8005eb2:	a901      	add	r1, sp, #4
 8005eb4:	f7ff ffd4 	bl	8005e60 <SecureElementGetKeyByID>
 8005eb8:	4604      	mov	r4, r0
 8005eba:	b9b0      	cbnz	r0, 8005eea <ComputeCmac+0x5a>
 8005ebc:	9901      	ldr	r1, [sp, #4]
 8005ebe:	a806      	add	r0, sp, #24
 8005ec0:	3101      	adds	r1, #1
 8005ec2:	f7ff fc4a 	bl	800575a <AES_CMAC_SetKey>
 8005ec6:	b126      	cbz	r6, 8005ed2 <ComputeCmac+0x42>
 8005ec8:	2210      	movs	r2, #16
 8005eca:	4631      	mov	r1, r6
 8005ecc:	a806      	add	r0, sp, #24
 8005ece:	f7ff fc49 	bl	8005764 <AES_CMAC_Update>
 8005ed2:	463a      	mov	r2, r7
 8005ed4:	4629      	mov	r1, r5
 8005ed6:	a806      	add	r0, sp, #24
 8005ed8:	f7ff fc44 	bl	8005764 <AES_CMAC_Update>
 8005edc:	a906      	add	r1, sp, #24
 8005ede:	a802      	add	r0, sp, #8
 8005ee0:	f7ff fca7 	bl	8005832 <AES_CMAC_Final>
 8005ee4:	9b02      	ldr	r3, [sp, #8]
 8005ee6:	f8c8 3000 	str.w	r3, [r8]
 8005eea:	4620      	mov	r0, r4
 8005eec:	b04c      	add	sp, #304	; 0x130
 8005eee:	e8bd 81f0 	ldmia.w	sp!, {r4, r5, r6, r7, r8, pc}
 8005ef2:	2402      	movs	r4, #2
 8005ef4:	e7f9      	b.n	8005eea <ComputeCmac+0x5a>

08005ef6 <PrintKey>:
 8005ef6:	b507      	push	{r0, r1, r2, lr}
 8005ef8:	a901      	add	r1, sp, #4
 8005efa:	f7ff ffb1 	bl	8005e60 <SecureElementGetKeyByID>
 8005efe:	b003      	add	sp, #12
 8005f00:	f85d fb04 	ldr.w	pc, [sp], #4

08005f04 <SecureElementPrintKeys>:
 8005f04:	b508      	push	{r3, lr}
 8005f06:	2000      	movs	r0, #0
 8005f08:	f7ff fff5 	bl	8005ef6 <PrintKey>
 8005f0c:	2001      	movs	r0, #1
 8005f0e:	f7ff fff2 	bl	8005ef6 <PrintKey>
 8005f12:	2003      	movs	r0, #3
 8005f14:	f7ff ffef 	bl	8005ef6 <PrintKey>
 8005f18:	2002      	movs	r0, #2
 8005f1a:	f7ff ffec 	bl	8005ef6 <PrintKey>
 8005f1e:	2000      	movs	r0, #0
 8005f20:	bd08      	pop	{r3, pc}

08005f22 <SecureElementPrintSessionKeys>:
 8005f22:	b508      	push	{r3, lr}
 8005f24:	2004      	movs	r0, #4
 8005f26:	f7ff ffe6 	bl	8005ef6 <PrintKey>
 8005f2a:	207f      	movs	r0, #127	; 0x7f
 8005f2c:	f7ff ffe3 	bl	8005ef6 <PrintKey>
 8005f30:	2002      	movs	r0, #2
 8005f32:	f7ff ffe0 	bl	8005ef6 <PrintKey>
 8005f36:	2003      	movs	r0, #3
 8005f38:	f7ff ffdd 	bl	8005ef6 <PrintKey>
 8005f3c:	2000      	movs	r0, #0
 8005f3e:	bd08      	pop	{r3, pc}

08005f40 <SecureElementComputeAesCmac>:
 8005f40:	2b7e      	cmp	r3, #126	; 0x7e
 8005f42:	b410      	push	{r4}
 8005f44:	d802      	bhi.n	8005f4c <SecureElementComputeAesCmac+0xc>
 8005f46:	bc10      	pop	{r4}
 8005f48:	f7ff bfa2 	b.w	8005e90 <ComputeCmac>
 8005f4c:	2003      	movs	r0, #3
 8005f4e:	bc10      	pop	{r4}
 8005f50:	4770      	bx	lr

08005f52 <SecureElementVerifyAesCmac>:
 8005f52:	b530      	push	{r4, r5, lr}
 8005f54:	460d      	mov	r5, r1
 8005f56:	b085      	sub	sp, #20
 8005f58:	4614      	mov	r4, r2
 8005f5a:	4601      	mov	r1, r0
 8005f5c:	b168      	cbz	r0, 8005f7a <SecureElementVerifyAesCmac+0x28>
 8005f5e:	aa03      	add	r2, sp, #12
 8005f60:	2000      	movs	r0, #0
 8005f62:	9200      	str	r2, [sp, #0]
 8005f64:	462a      	mov	r2, r5
 8005f66:	9003      	str	r0, [sp, #12]
 8005f68:	f7ff ff92 	bl	8005e90 <ComputeCmac>
 8005f6c:	b918      	cbnz	r0, 8005f76 <SecureElementVerifyAesCmac+0x24>
 8005f6e:	9803      	ldr	r0, [sp, #12]
 8005f70:	1b00      	subs	r0, r0, r4
 8005f72:	bf18      	it	ne
 8005f74:	2001      	movne	r0, #1
 8005f76:	b005      	add	sp, #20
 8005f78:	bd30      	pop	{r4, r5, pc}
 8005f7a:	2002      	movs	r0, #2
 8005f7c:	e7fb      	b.n	8005f76 <SecureElementVerifyAesCmac+0x24>

08005f7e <SecureElementAesEncrypt>:
 8005f7e:	e92d 43f0 	stmdb	sp!, {r4, r5, r6, r7, r8, r9, lr}
 8005f82:	460e      	mov	r6, r1
 8005f84:	b0bf      	sub	sp, #252	; 0xfc
 8005f86:	4614      	mov	r4, r2
 8005f88:	4699      	mov	r9, r3
 8005f8a:	4680      	mov	r8, r0
 8005f8c:	b328      	cbz	r0, 8005fda <SecureElementAesEncrypt+0x5c>
 8005f8e:	b323      	cbz	r3, 8005fda <SecureElementAesEncrypt+0x5c>
 8005f90:	f011 010f 	ands.w	r1, r1, #15
 8005f94:	d123      	bne.n	8005fde <SecureElementAesEncrypt+0x60>
 8005f96:	22f0      	movs	r2, #240	; 0xf0
 8005f98:	a801      	add	r0, sp, #4
 8005f9a:	f005 fbad 	bl	800b6f8 <memset1>
 8005f9e:	4620      	mov	r0, r4
 8005fa0:	4669      	mov	r1, sp
 8005fa2:	f7ff ff5d 	bl	8005e60 <SecureElementGetKeyByID>
 8005fa6:	4604      	mov	r4, r0
 8005fa8:	b948      	cbnz	r0, 8005fbe <SecureElementAesEncrypt+0x40>
 8005faa:	9800      	ldr	r0, [sp, #0]
 8005fac:	aa01      	add	r2, sp, #4
 8005fae:	2110      	movs	r1, #16
 8005fb0:	3001      	adds	r0, #1
 8005fb2:	f7ff fd73 	bl	8005a9c <lorawan_aes_set_key>
 8005fb6:	4635      	mov	r5, r6
 8005fb8:	1b77      	subs	r7, r6, r5
 8005fba:	b2ff      	uxtb	r7, r7
 8005fbc:	b91d      	cbnz	r5, 8005fc6 <SecureElementAesEncrypt+0x48>
 8005fbe:	4620      	mov	r0, r4
 8005fc0:	b03f      	add	sp, #252	; 0xfc
 8005fc2:	e8bd 83f0 	ldmia.w	sp!, {r4, r5, r6, r7, r8, r9, pc}
 8005fc6:	aa01      	add	r2, sp, #4
 8005fc8:	eb09 0107 	add.w	r1, r9, r7
 8005fcc:	eb08 0007 	add.w	r0, r8, r7
 8005fd0:	3d10      	subs	r5, #16
 8005fd2:	f7ff fddf 	bl	8005b94 <lorawan_aes_encrypt>
 8005fd6:	b2ad      	uxth	r5, r5
 8005fd8:	e7ee      	b.n	8005fb8 <SecureElementAesEncrypt+0x3a>
 8005fda:	2402      	movs	r4, #2
 8005fdc:	e7ef      	b.n	8005fbe <SecureElementAesEncrypt+0x40>
 8005fde:	2405      	movs	r4, #5
 8005fe0:	e7ed      	b.n	8005fbe <SecureElementAesEncrypt+0x40>
	...

08005fe4 <SecureElementSetKey.part.0>:
 8005fe4:	b57f      	push	{r0, r1, r2, r3, r4, r5, r6, lr}
 8005fe6:	4e18      	ldr	r6, [pc, #96]	; (8006048 <SecureElementSetKey.part.0+0x64>)
 8005fe8:	6835      	ldr	r5, [r6, #0]
 8005fea:	4602      	mov	r2, r0
 8005fec:	2300      	movs	r3, #0
 8005fee:	4608      	mov	r0, r1
 8005ff0:	f105 0110 	add.w	r1, r5, #16
 8005ff4:	eb03 1403 	add.w	r4, r3, r3, lsl #4
 8005ff8:	3301      	adds	r3, #1
 8005ffa:	5d0c      	ldrb	r4, [r1, r4]
 8005ffc:	4294      	cmp	r4, r2
 8005ffe:	d11e      	bne.n	800603e <SecureElementSetKey.part.0+0x5a>
 8006000:	2a80      	cmp	r2, #128	; 0x80
 8006002:	eb03 1403 	add.w	r4, r3, r3, lsl #4
 8006006:	d113      	bne.n	8006030 <SecureElementSetKey.part.0+0x4c>
 8006008:	2300      	movs	r3, #0
 800600a:	e9cd 3300 	strd	r3, r3, [sp]
 800600e:	e9cd 3302 	strd	r3, r3, [sp, #8]
 8006012:	227f      	movs	r2, #127	; 0x7f
 8006014:	2110      	movs	r1, #16
 8006016:	466b      	mov	r3, sp
 8006018:	f7ff ffb1 	bl	8005f7e <SecureElementAesEncrypt>
 800601c:	4605      	mov	r5, r0
 800601e:	6830      	ldr	r0, [r6, #0]
 8006020:	2210      	movs	r2, #16
 8006022:	4669      	mov	r1, sp
 8006024:	4420      	add	r0, r4
 8006026:	f005 fb53 	bl	800b6d0 <memcpy1>
 800602a:	4628      	mov	r0, r5
 800602c:	b004      	add	sp, #16
 800602e:	bd70      	pop	{r4, r5, r6, pc}
 8006030:	4601      	mov	r1, r0
 8006032:	2210      	movs	r2, #16
 8006034:	1928      	adds	r0, r5, r4
 8006036:	f005 fb4b 	bl	800b6d0 <memcpy1>
 800603a:	2500      	movs	r5, #0
 800603c:	e7f5      	b.n	800602a <SecureElementSetKey.part.0+0x46>
 800603e:	2b0a      	cmp	r3, #10
 8006040:	d1d8      	bne.n	8005ff4 <SecureElementSetKey.part.0+0x10>
 8006042:	2503      	movs	r5, #3
 8006044:	e7f1      	b.n	800602a <SecureElementSetKey.part.0+0x46>
 8006046:	bf00      	nop
 8006048:	2000049c 	.word	0x2000049c

0800604c <SecureElementSetKey>:
 800604c:	b109      	cbz	r1, 8006052 <SecureElementSetKey+0x6>
 800604e:	f7ff bfc9 	b.w	8005fe4 <SecureElementSetKey.part.0>
 8006052:	2002      	movs	r0, #2
 8006054:	4770      	bx	lr

08006056 <SecureElementDeriveAndStoreKey>:
 8006056:	b51f      	push	{r0, r1, r2, r3, r4, lr}
 8006058:	4614      	mov	r4, r2
 800605a:	b1a0      	cbz	r0, 8006086 <SecureElementDeriveAndStoreKey+0x30>
 800605c:	2a7f      	cmp	r2, #127	; 0x7f
 800605e:	d101      	bne.n	8006064 <SecureElementDeriveAndStoreKey+0xe>
 8006060:	2904      	cmp	r1, #4
 8006062:	d112      	bne.n	800608a <SecureElementDeriveAndStoreKey+0x34>
 8006064:	2300      	movs	r3, #0
 8006066:	e9cd 3300 	strd	r3, r3, [sp]
 800606a:	e9cd 3302 	strd	r3, r3, [sp, #8]
 800606e:	460a      	mov	r2, r1
 8006070:	466b      	mov	r3, sp
 8006072:	2110      	movs	r1, #16
 8006074:	f7ff ff83 	bl	8005f7e <SecureElementAesEncrypt>
 8006078:	b918      	cbnz	r0, 8006082 <SecureElementDeriveAndStoreKey+0x2c>
 800607a:	4669      	mov	r1, sp
 800607c:	4620      	mov	r0, r4
 800607e:	f7ff ffb1 	bl	8005fe4 <SecureElementSetKey.part.0>
 8006082:	b004      	add	sp, #16
 8006084:	bd10      	pop	{r4, pc}
 8006086:	2002      	movs	r0, #2
 8006088:	e7fb      	b.n	8006082 <SecureElementDeriveAndStoreKey+0x2c>
 800608a:	2003      	movs	r0, #3
 800608c:	e7f9      	b.n	8006082 <SecureElementDeriveAndStoreKey+0x2c>

0800608e <SecureElementProcessJoinAccept>:
 800608e:	e92d 41f0 	stmdb	sp!, {r4, r5, r6, r7, r8, lr}
 8006092:	461f      	mov	r7, r3
 8006094:	e9dd 5807 	ldrd	r5, r8, [sp, #28]
 8006098:	f89d 4018 	ldrb.w	r4, [sp, #24]
 800609c:	b393      	cbz	r3, 8006104 <SecureElementProcessJoinAccept+0x76>
 800609e:	b38d      	cbz	r5, 8006104 <SecureElementProcessJoinAccept+0x76>
 80060a0:	f1b8 0f00 	cmp.w	r8, #0
 80060a4:	d02e      	beq.n	8006104 <SecureElementProcessJoinAccept+0x76>
 80060a6:	2c21      	cmp	r4, #33	; 0x21
 80060a8:	d82e      	bhi.n	8006108 <SecureElementProcessJoinAccept+0x7a>
 80060aa:	b2a6      	uxth	r6, r4
 80060ac:	4619      	mov	r1, r3
 80060ae:	4632      	mov	r2, r6
 80060b0:	4628      	mov	r0, r5
 80060b2:	f005 fb0d 	bl	800b6d0 <memcpy1>
 80060b6:	1e71      	subs	r1, r6, #1
 80060b8:	2201      	movs	r2, #1
 80060ba:	1c6b      	adds	r3, r5, #1
 80060bc:	b289      	uxth	r1, r1
 80060be:	18b8      	adds	r0, r7, r2
 80060c0:	f7ff ff5d 	bl	8005f7e <SecureElementAesEncrypt>
 80060c4:	bb10      	cbnz	r0, 800610c <SecureElementProcessJoinAccept+0x7e>
 80060c6:	7aeb      	ldrb	r3, [r5, #11]
 80060c8:	09db      	lsrs	r3, r3, #7
 80060ca:	f888 3000 	strb.w	r3, [r8]
 80060ce:	b9fb      	cbnz	r3, 8006110 <SecureElementProcessJoinAccept+0x82>
 80060d0:	192b      	adds	r3, r5, r4
 80060d2:	1f31      	subs	r1, r6, #4
 80060d4:	f813 0c01 	ldrb.w	r0, [r3, #-1]
 80060d8:	f813 2c02 	ldrb.w	r2, [r3, #-2]
 80060dc:	0600      	lsls	r0, r0, #24
 80060de:	ea40 4002 	orr.w	r0, r0, r2, lsl #16
 80060e2:	f813 2c04 	ldrb.w	r2, [r3, #-4]
 80060e6:	4310      	orrs	r0, r2
 80060e8:	f813 2c03 	ldrb.w	r2, [r3, #-3]
 80060ec:	b289      	uxth	r1, r1
 80060ee:	ea40 2202 	orr.w	r2, r0, r2, lsl #8
 80060f2:	2301      	movs	r3, #1
 80060f4:	4628      	mov	r0, r5
 80060f6:	f7ff ff2c 	bl	8005f52 <SecureElementVerifyAesCmac>
 80060fa:	3800      	subs	r0, #0
 80060fc:	bf18      	it	ne
 80060fe:	2001      	movne	r0, #1
 8006100:	e8bd 81f0 	ldmia.w	sp!, {r4, r5, r6, r7, r8, pc}
 8006104:	2002      	movs	r0, #2
 8006106:	e7fb      	b.n	8006100 <SecureElementProcessJoinAccept+0x72>
 8006108:	2005      	movs	r0, #5
 800610a:	e7f9      	b.n	8006100 <SecureElementProcessJoinAccept+0x72>
 800610c:	2007      	movs	r0, #7
 800610e:	e7f7      	b.n	8006100 <SecureElementProcessJoinAccept+0x72>
 8006110:	2004      	movs	r0, #4
 8006112:	e7f5      	b.n	8006100 <SecureElementProcessJoinAccept+0x72>

08006114 <SecureElementRandomNumber>:
 8006114:	b510      	push	{r4, lr}
 8006116:	4604      	mov	r4, r0
 8006118:	b128      	cbz	r0, 8006126 <SecureElementRandomNumber+0x12>
 800611a:	4b04      	ldr	r3, [pc, #16]	; (800612c <SecureElementRandomNumber+0x18>)
 800611c:	695b      	ldr	r3, [r3, #20]
 800611e:	4798      	blx	r3
 8006120:	6020      	str	r0, [r4, #0]
 8006122:	2000      	movs	r0, #0
 8006124:	bd10      	pop	{r4, pc}
 8006126:	2002      	movs	r0, #2
 8006128:	e7fc      	b.n	8006124 <SecureElementRandomNumber+0x10>
 800612a:	bf00      	nop
 800612c:	0800ee40 	.word	0x0800ee40

08006130 <SecureElementSetDevEui>:
 8006130:	b508      	push	{r3, lr}
 8006132:	4601      	mov	r1, r0
 8006134:	b130      	cbz	r0, 8006144 <SecureElementSetDevEui+0x14>
 8006136:	4b04      	ldr	r3, [pc, #16]	; (8006148 <SecureElementSetDevEui+0x18>)
 8006138:	2208      	movs	r2, #8
 800613a:	6818      	ldr	r0, [r3, #0]
 800613c:	f005 fac8 	bl	800b6d0 <memcpy1>
 8006140:	2000      	movs	r0, #0
 8006142:	bd08      	pop	{r3, pc}
 8006144:	2002      	movs	r0, #2
 8006146:	e7fc      	b.n	8006142 <SecureElementSetDevEui+0x12>
 8006148:	2000049c 	.word	0x2000049c

0800614c <SecureElementGetDevEui>:
 800614c:	4b01      	ldr	r3, [pc, #4]	; (8006154 <SecureElementGetDevEui+0x8>)
 800614e:	6818      	ldr	r0, [r3, #0]
 8006150:	4770      	bx	lr
 8006152:	bf00      	nop
 8006154:	2000049c 	.word	0x2000049c

08006158 <SecureElementSetJoinEui>:
 8006158:	b508      	push	{r3, lr}
 800615a:	4601      	mov	r1, r0
 800615c:	b138      	cbz	r0, 800616e <SecureElementSetJoinEui+0x16>
 800615e:	4b05      	ldr	r3, [pc, #20]	; (8006174 <SecureElementSetJoinEui+0x1c>)
 8006160:	6818      	ldr	r0, [r3, #0]
 8006162:	2208      	movs	r2, #8
 8006164:	4410      	add	r0, r2
 8006166:	f005 fab3 	bl	800b6d0 <memcpy1>
 800616a:	2000      	movs	r0, #0
 800616c:	bd08      	pop	{r3, pc}
 800616e:	2002      	movs	r0, #2
 8006170:	e7fc      	b.n	800616c <SecureElementSetJoinEui+0x14>
 8006172:	bf00      	nop
 8006174:	2000049c 	.word	0x2000049c

08006178 <SecureElementGetJoinEui>:
 8006178:	4b01      	ldr	r3, [pc, #4]	; (8006180 <SecureElementGetJoinEui+0x8>)
 800617a:	6818      	ldr	r0, [r3, #0]
 800617c:	3008      	adds	r0, #8
 800617e:	4770      	bx	lr
 8006180:	2000049c 	.word	0x2000049c

08006184 <LmHandlerDeviceTimeReq>:
 8006184:	b57f      	push	{r0, r1, r2, r3, r4, r5, r6, lr}
 8006186:	230a      	movs	r3, #10
 8006188:	a801      	add	r0, sp, #4
 800618a:	f88d 3004 	strb.w	r3, [sp, #4]
 800618e:	f002 ff77 	bl	8009080 <LoRaMacMlmeRequest>
 8006192:	3800      	subs	r0, #0
 8006194:	4b04      	ldr	r3, [pc, #16]	; (80061a8 <LmHandlerDeviceTimeReq+0x24>)
 8006196:	9a05      	ldr	r2, [sp, #20]
 8006198:	601a      	str	r2, [r3, #0]
 800619a:	bf18      	it	ne
 800619c:	2001      	movne	r0, #1
 800619e:	4240      	negs	r0, r0
 80061a0:	b007      	add	sp, #28
 80061a2:	f85d fb04 	ldr.w	pc, [sp], #4
 80061a6:	bf00      	nop
 80061a8:	20000594 	.word	0x20000594

080061ac <McpsConfirm>:
 80061ac:	b570      	push	{r4, r5, r6, lr}
 80061ae:	4604      	mov	r4, r0
 80061b0:	4810      	ldr	r0, [pc, #64]	; (80061f4 <McpsConfirm+0x48>)
 80061b2:	4e11      	ldr	r6, [pc, #68]	; (80061f8 <McpsConfirm+0x4c>)
 80061b4:	2301      	movs	r3, #1
 80061b6:	7003      	strb	r3, [r0, #0]
 80061b8:	7863      	ldrb	r3, [r4, #1]
 80061ba:	7043      	strb	r3, [r0, #1]
 80061bc:	78a3      	ldrb	r3, [r4, #2]
 80061be:	7283      	strb	r3, [r0, #10]
 80061c0:	68e3      	ldr	r3, [r4, #12]
 80061c2:	60c3      	str	r3, [r0, #12]
 80061c4:	78e3      	ldrb	r3, [r4, #3]
 80061c6:	7603      	strb	r3, [r0, #24]
 80061c8:	6923      	ldr	r3, [r4, #16]
 80061ca:	7643      	strb	r3, [r0, #25]
 80061cc:	7923      	ldrb	r3, [r4, #4]
 80061ce:	7243      	strb	r3, [r0, #9]
 80061d0:	4b0a      	ldr	r3, [pc, #40]	; (80061fc <McpsConfirm+0x50>)
 80061d2:	681b      	ldr	r3, [r3, #0]
 80061d4:	6a9b      	ldr	r3, [r3, #40]	; 0x28
 80061d6:	4798      	blx	r3
 80061d8:	2500      	movs	r5, #0
 80061da:	f856 3b04 	ldr.w	r3, [r6], #4
 80061de:	b11b      	cbz	r3, 80061e8 <McpsConfirm+0x3c>
 80061e0:	699b      	ldr	r3, [r3, #24]
 80061e2:	b10b      	cbz	r3, 80061e8 <McpsConfirm+0x3c>
 80061e4:	4620      	mov	r0, r4
 80061e6:	4798      	blx	r3
 80061e8:	3501      	adds	r5, #1
 80061ea:	b2eb      	uxtb	r3, r5
 80061ec:	2b05      	cmp	r3, #5
 80061ee:	b26d      	sxtb	r5, r5
 80061f0:	d1f3      	bne.n	80061da <McpsConfirm+0x2e>
 80061f2:	bd70      	pop	{r4, r5, r6, pc}
 80061f4:	200000b8 	.word	0x200000b8
 80061f8:	2000059c 	.word	0x2000059c
 80061fc:	20000598 	.word	0x20000598

08006200 <LmHandlerProcess>:
 8006200:	b538      	push	{r3, r4, r5, lr}
 8006202:	f001 fda7 	bl	8007d54 <LoRaMacProcess>
 8006206:	4d0b      	ldr	r5, [pc, #44]	; (8006234 <LmHandlerProcess+0x34>)
 8006208:	2405      	movs	r4, #5
 800620a:	f855 3b04 	ldr.w	r3, [r5], #4
 800620e:	b15b      	cbz	r3, 8006228 <LmHandlerProcess+0x28>
 8006210:	691b      	ldr	r3, [r3, #16]
 8006212:	b14b      	cbz	r3, 8006228 <LmHandlerProcess+0x28>
 8006214:	f855 3c04 	ldr.w	r3, [r5, #-4]
 8006218:	689b      	ldr	r3, [r3, #8]
 800621a:	b12b      	cbz	r3, 8006228 <LmHandlerProcess+0x28>
 800621c:	4798      	blx	r3
 800621e:	b118      	cbz	r0, 8006228 <LmHandlerProcess+0x28>
 8006220:	f855 3c04 	ldr.w	r3, [r5, #-4]
 8006224:	691b      	ldr	r3, [r3, #16]
 8006226:	4798      	blx	r3
 8006228:	3c01      	subs	r4, #1
 800622a:	f014 04ff 	ands.w	r4, r4, #255	; 0xff
 800622e:	d1ec      	bne.n	800620a <LmHandlerProcess+0xa>
 8006230:	bd38      	pop	{r3, r4, r5, pc}
 8006232:	bf00      	nop
 8006234:	2000059c 	.word	0x2000059c

08006238 <LmHandlerGetDutyCycleWaitTime>:
 8006238:	4b01      	ldr	r3, [pc, #4]	; (8006240 <LmHandlerGetDutyCycleWaitTime+0x8>)
 800623a:	6818      	ldr	r0, [r3, #0]
 800623c:	4770      	bx	lr
 800623e:	bf00      	nop
 8006240:	20000594 	.word	0x20000594

08006244 <LmHandlerJoinStatus>:
 8006244:	b500      	push	{lr}
 8006246:	b08b      	sub	sp, #44	; 0x2c
 8006248:	2301      	movs	r3, #1
 800624a:	a801      	add	r0, sp, #4
 800624c:	f88d 3004 	strb.w	r3, [sp, #4]
 8006250:	f002 fc2c 	bl	8008aac <LoRaMacMibGetRequestConfirm>
 8006254:	b938      	cbnz	r0, 8006266 <LmHandlerJoinStatus+0x22>
 8006256:	f89d 0008 	ldrb.w	r0, [sp, #8]
 800625a:	3800      	subs	r0, #0
 800625c:	bf18      	it	ne
 800625e:	2001      	movne	r0, #1
 8006260:	b00b      	add	sp, #44	; 0x2c
 8006262:	f85d fb04 	ldr.w	pc, [sp], #4
 8006266:	2000      	movs	r0, #0
 8006268:	e7fa      	b.n	8006260 <LmHandlerJoinStatus+0x1c>
	...

0800626c <LmHandlerRequestClass>:
 800626c:	b530      	push	{r4, r5, lr}
 800626e:	b08b      	sub	sp, #44	; 0x2c
 8006270:	4605      	mov	r5, r0
 8006272:	f001 fd61 	bl	8007d38 <LoRaMacIsBusy>
 8006276:	4604      	mov	r4, r0
 8006278:	2800      	cmp	r0, #0
 800627a:	d139      	bne.n	80062f0 <LmHandlerRequestClass+0x84>
 800627c:	f7ff ffe2 	bl	8006244 <LmHandlerJoinStatus>
 8006280:	2801      	cmp	r0, #1
 8006282:	d138      	bne.n	80062f6 <LmHandlerRequestClass+0x8a>
 8006284:	a801      	add	r0, sp, #4
 8006286:	f88d 4004 	strb.w	r4, [sp, #4]
 800628a:	f002 fc0f 	bl	8008aac <LoRaMacMibGetRequestConfirm>
 800628e:	b110      	cbz	r0, 8006296 <LmHandlerRequestClass+0x2a>
 8006290:	f04f 30ff 	mov.w	r0, #4294967295
 8006294:	e004      	b.n	80062a0 <LmHandlerRequestClass+0x34>
 8006296:	f89d 3008 	ldrb.w	r3, [sp, #8]
 800629a:	42ab      	cmp	r3, r5
 800629c:	d102      	bne.n	80062a4 <LmHandlerRequestClass+0x38>
 800629e:	2000      	movs	r0, #0
 80062a0:	b00b      	add	sp, #44	; 0x2c
 80062a2:	bd30      	pop	{r4, r5, pc}
 80062a4:	2d01      	cmp	r5, #1
 80062a6:	d0f3      	beq.n	8006290 <LmHandlerRequestClass+0x24>
 80062a8:	2d02      	cmp	r5, #2
 80062aa:	d011      	beq.n	80062d0 <LmHandlerRequestClass+0x64>
 80062ac:	2d00      	cmp	r5, #0
 80062ae:	d1f7      	bne.n	80062a0 <LmHandlerRequestClass+0x34>
 80062b0:	2b00      	cmp	r3, #0
 80062b2:	d0f4      	beq.n	800629e <LmHandlerRequestClass+0x32>
 80062b4:	a801      	add	r0, sp, #4
 80062b6:	f88d 5008 	strb.w	r5, [sp, #8]
 80062ba:	f002 fcbb 	bl	8008c34 <LoRaMacMibSetRequestConfirm>
 80062be:	2800      	cmp	r0, #0
 80062c0:	d1e6      	bne.n	8006290 <LmHandlerRequestClass+0x24>
 80062c2:	4b0e      	ldr	r3, [pc, #56]	; (80062fc <LmHandlerRequestClass+0x90>)
 80062c4:	681b      	ldr	r3, [r3, #0]
 80062c6:	6b1b      	ldr	r3, [r3, #48]	; 0x30
 80062c8:	2b00      	cmp	r3, #0
 80062ca:	d0e8      	beq.n	800629e <LmHandlerRequestClass+0x32>
 80062cc:	4798      	blx	r3
 80062ce:	e7e6      	b.n	800629e <LmHandlerRequestClass+0x32>
 80062d0:	2b00      	cmp	r3, #0
 80062d2:	d1dd      	bne.n	8006290 <LmHandlerRequestClass+0x24>
 80062d4:	a801      	add	r0, sp, #4
 80062d6:	f88d 5008 	strb.w	r5, [sp, #8]
 80062da:	f002 fcab 	bl	8008c34 <LoRaMacMibSetRequestConfirm>
 80062de:	2800      	cmp	r0, #0
 80062e0:	d1d6      	bne.n	8006290 <LmHandlerRequestClass+0x24>
 80062e2:	4b06      	ldr	r3, [pc, #24]	; (80062fc <LmHandlerRequestClass+0x90>)
 80062e4:	681b      	ldr	r3, [r3, #0]
 80062e6:	6b1b      	ldr	r3, [r3, #48]	; 0x30
 80062e8:	2b00      	cmp	r3, #0
 80062ea:	d0d8      	beq.n	800629e <LmHandlerRequestClass+0x32>
 80062ec:	4628      	mov	r0, r5
 80062ee:	e7ed      	b.n	80062cc <LmHandlerRequestClass+0x60>
 80062f0:	f06f 0001 	mvn.w	r0, #1
 80062f4:	e7d4      	b.n	80062a0 <LmHandlerRequestClass+0x34>
 80062f6:	f06f 0002 	mvn.w	r0, #2
 80062fa:	e7d1      	b.n	80062a0 <LmHandlerRequestClass+0x34>
 80062fc:	20000598 	.word	0x20000598

08006300 <LmHandlerJoin>:
 8006300:	b530      	push	{r4, r5, lr}
 8006302:	4c26      	ldr	r4, [pc, #152]	; (800639c <LmHandlerJoin+0x9c>)
 8006304:	4b26      	ldr	r3, [pc, #152]	; (80063a0 <LmHandlerJoin+0xa0>)
 8006306:	f994 2004 	ldrsb.w	r2, [r4, #4]
 800630a:	b08f      	sub	sp, #60	; 0x3c
 800630c:	2501      	movs	r5, #1
 800630e:	2802      	cmp	r0, #2
 8006310:	f88d 5000 	strb.w	r5, [sp]
 8006314:	f88d 2005 	strb.w	r2, [sp, #5]
 8006318:	d10a      	bne.n	8006330 <LmHandlerJoin+0x30>
 800631a:	f88d 0004 	strb.w	r0, [sp, #4]
 800631e:	7198      	strb	r0, [r3, #6]
 8006320:	71d9      	strb	r1, [r3, #7]
 8006322:	f002 fb21 	bl	8008968 <LoRaMacStart>
 8006326:	4668      	mov	r0, sp
 8006328:	f002 feaa 	bl	8009080 <LoRaMacMlmeRequest>
 800632c:	b00f      	add	sp, #60	; 0x3c
 800632e:	bd30      	pop	{r4, r5, pc}
 8006330:	2000      	movs	r0, #0
 8006332:	719d      	strb	r5, [r3, #6]
 8006334:	711a      	strb	r2, [r3, #4]
 8006336:	7158      	strb	r0, [r3, #5]
 8006338:	71d9      	strb	r1, [r3, #7]
 800633a:	4b1a      	ldr	r3, [pc, #104]	; (80063a4 <LmHandlerJoin+0xa4>)
 800633c:	f88d 5004 	strb.w	r5, [sp, #4]
 8006340:	781b      	ldrb	r3, [r3, #0]
 8006342:	b9c3      	cbnz	r3, 8006376 <LmHandlerJoin+0x76>
 8006344:	231e      	movs	r3, #30
 8006346:	a805      	add	r0, sp, #20
 8006348:	f88d 3014 	strb.w	r3, [sp, #20]
 800634c:	f88d 2018 	strb.w	r2, [sp, #24]
 8006350:	f002 fc70 	bl	8008c34 <LoRaMacMibSetRequestConfirm>
 8006354:	231f      	movs	r3, #31
 8006356:	f88d 3014 	strb.w	r3, [sp, #20]
 800635a:	a805      	add	r0, sp, #20
 800635c:	7923      	ldrb	r3, [r4, #4]
 800635e:	f88d 3018 	strb.w	r3, [sp, #24]
 8006362:	f002 fc67 	bl	8008c34 <LoRaMacMibSetRequestConfirm>
 8006366:	2328      	movs	r3, #40	; 0x28
 8006368:	f88d 3014 	strb.w	r3, [sp, #20]
 800636c:	a805      	add	r0, sp, #20
 800636e:	4b0e      	ldr	r3, [pc, #56]	; (80063a8 <LmHandlerJoin+0xa8>)
 8006370:	9306      	str	r3, [sp, #24]
 8006372:	f002 fc5f 	bl	8008c34 <LoRaMacMibSetRequestConfirm>
 8006376:	f002 faf7 	bl	8008968 <LoRaMacStart>
 800637a:	2301      	movs	r3, #1
 800637c:	a805      	add	r0, sp, #20
 800637e:	f88d 3014 	strb.w	r3, [sp, #20]
 8006382:	f88d 3018 	strb.w	r3, [sp, #24]
 8006386:	f002 fc55 	bl	8008c34 <LoRaMacMibSetRequestConfirm>
 800638a:	4b08      	ldr	r3, [pc, #32]	; (80063ac <LmHandlerJoin+0xac>)
 800638c:	4804      	ldr	r0, [pc, #16]	; (80063a0 <LmHandlerJoin+0xa0>)
 800638e:	681b      	ldr	r3, [r3, #0]
 8006390:	6a5b      	ldr	r3, [r3, #36]	; 0x24
 8006392:	4798      	blx	r3
 8006394:	7860      	ldrb	r0, [r4, #1]
 8006396:	f7ff ff69 	bl	800626c <LmHandlerRequestClass>
 800639a:	e7c7      	b.n	800632c <LmHandlerJoin+0x2c>
 800639c:	200005b0 	.word	0x200005b0
 80063a0:	20000090 	.word	0x20000090
 80063a4:	20000592 	.word	0x20000592
 80063a8:	01000300 	.word	0x01000300
 80063ac:	20000598 	.word	0x20000598

080063b0 <LmHandlerSend>:
 80063b0:	e92d 41f0 	stmdb	sp!, {r4, r5, r6, r7, r8, lr}
 80063b4:	b086      	sub	sp, #24
 80063b6:	4605      	mov	r5, r0
 80063b8:	460c      	mov	r4, r1
 80063ba:	4616      	mov	r6, r2
 80063bc:	f001 fcbc 	bl	8007d38 <LoRaMacIsBusy>
 80063c0:	2800      	cmp	r0, #0
 80063c2:	f040 808a 	bne.w	80064da <LmHandlerSend+0x12a>
 80063c6:	f7ff ff3d 	bl	8006244 <LmHandlerJoinStatus>
 80063ca:	2801      	cmp	r0, #1
 80063cc:	d00a      	beq.n	80063e4 <LmHandlerSend+0x34>
 80063ce:	4b44      	ldr	r3, [pc, #272]	; (80064e0 <LmHandlerSend+0x130>)
 80063d0:	79d9      	ldrb	r1, [r3, #7]
 80063d2:	7998      	ldrb	r0, [r3, #6]
 80063d4:	f7ff ff94 	bl	8006300 <LmHandlerJoin>
 80063d8:	f06f 0402 	mvn.w	r4, #2
 80063dc:	4620      	mov	r0, r4
 80063de:	b006      	add	sp, #24
 80063e0:	e8bd 81f0 	ldmia.w	sp!, {r4, r5, r6, r7, r8, pc}
 80063e4:	4f3f      	ldr	r7, [pc, #252]	; (80064e4 <LmHandlerSend+0x134>)
 80063e6:	683b      	ldr	r3, [r7, #0]
 80063e8:	68db      	ldr	r3, [r3, #12]
 80063ea:	4798      	blx	r3
 80063ec:	b130      	cbz	r0, 80063fc <LmHandlerSend+0x4c>
 80063ee:	683a      	ldr	r2, [r7, #0]
 80063f0:	782b      	ldrb	r3, [r5, #0]
 80063f2:	7812      	ldrb	r2, [r2, #0]
 80063f4:	429a      	cmp	r2, r3
 80063f6:	d001      	beq.n	80063fc <LmHandlerSend+0x4c>
 80063f8:	2b00      	cmp	r3, #0
 80063fa:	d16b      	bne.n	80064d4 <LmHandlerSend+0x124>
 80063fc:	4f3a      	ldr	r7, [pc, #232]	; (80064e8 <LmHandlerSend+0x138>)
 80063fe:	f8df 80ec 	ldr.w	r8, [pc, #236]	; 80064ec <LmHandlerSend+0x13c>
 8006402:	723c      	strb	r4, [r7, #8]
 8006404:	3c00      	subs	r4, #0
 8006406:	bf18      	it	ne
 8006408:	2401      	movne	r4, #1
 800640a:	f898 3004 	ldrb.w	r3, [r8, #4]
 800640e:	7868      	ldrb	r0, [r5, #1]
 8006410:	f88d 4004 	strb.w	r4, [sp, #4]
 8006414:	4669      	mov	r1, sp
 8006416:	f88d 3012 	strb.w	r3, [sp, #18]
 800641a:	f002 faef 	bl	80089fc <LoRaMacQueryTxPossible>
 800641e:	2800      	cmp	r0, #0
 8006420:	d040      	beq.n	80064a4 <LmHandlerSend+0xf4>
 8006422:	2300      	movs	r3, #0
 8006424:	f88d 3004 	strb.w	r3, [sp, #4]
 8006428:	9303      	str	r3, [sp, #12]
 800642a:	f8ad 3010 	strh.w	r3, [sp, #16]
 800642e:	f06f 0406 	mvn.w	r4, #6
 8006432:	e895 0003 	ldmia.w	r5, {r0, r1}
 8006436:	4b2e      	ldr	r3, [pc, #184]	; (80064f0 <LmHandlerSend+0x140>)
 8006438:	e883 0003 	stmia.w	r3, {r0, r1}
 800643c:	f898 3004 	ldrb.w	r3, [r8, #4]
 8006440:	72bb      	strb	r3, [r7, #10]
 8006442:	4631      	mov	r1, r6
 8006444:	a801      	add	r0, sp, #4
 8006446:	f002 ff11 	bl	800926c <LoRaMacMcpsRequest>
 800644a:	4b2a      	ldr	r3, [pc, #168]	; (80064f4 <LmHandlerSend+0x144>)
 800644c:	9a05      	ldr	r2, [sp, #20]
 800644e:	601a      	str	r2, [r3, #0]
 8006450:	2811      	cmp	r0, #17
 8006452:	d83c      	bhi.n	80064ce <LmHandlerSend+0x11e>
 8006454:	a301      	add	r3, pc, #4	; (adr r3, 800645c <LmHandlerSend+0xac>)
 8006456:	f853 f020 	ldr.w	pc, [r3, r0, lsl #2]
 800645a:	bf00      	nop
 800645c:	080064bb 	.word	0x080064bb
 8006460:	080064db 	.word	0x080064db
 8006464:	080064cf 	.word	0x080064cf
 8006468:	080064cf 	.word	0x080064cf
 800646c:	080064cf 	.word	0x080064cf
 8006470:	080064cf 	.word	0x080064cf
 8006474:	080064cf 	.word	0x080064cf
 8006478:	080063d9 	.word	0x080063d9
 800647c:	080064cf 	.word	0x080064cf
 8006480:	080064cf 	.word	0x080064cf
 8006484:	080064cf 	.word	0x080064cf
 8006488:	080064c9 	.word	0x080064c9
 800648c:	080064cf 	.word	0x080064cf
 8006490:	080064cf 	.word	0x080064cf
 8006494:	080064db 	.word	0x080064db
 8006498:	080064db 	.word	0x080064db
 800649c:	080064db 	.word	0x080064db
 80064a0:	080064c3 	.word	0x080064c3
 80064a4:	782b      	ldrb	r3, [r5, #0]
 80064a6:	f88d 3008 	strb.w	r3, [sp, #8]
 80064aa:	786b      	ldrb	r3, [r5, #1]
 80064ac:	f8ad 3010 	strh.w	r3, [sp, #16]
 80064b0:	686b      	ldr	r3, [r5, #4]
 80064b2:	9303      	str	r3, [sp, #12]
 80064b4:	f04f 34ff 	mov.w	r4, #4294967295
 80064b8:	e7bb      	b.n	8006432 <LmHandlerSend+0x82>
 80064ba:	1de3      	adds	r3, r4, #7
 80064bc:	bf18      	it	ne
 80064be:	2400      	movne	r4, #0
 80064c0:	e78c      	b.n	80063dc <LmHandlerSend+0x2c>
 80064c2:	f06f 0404 	mvn.w	r4, #4
 80064c6:	e789      	b.n	80063dc <LmHandlerSend+0x2c>
 80064c8:	f06f 0405 	mvn.w	r4, #5
 80064cc:	e786      	b.n	80063dc <LmHandlerSend+0x2c>
 80064ce:	f04f 34ff 	mov.w	r4, #4294967295
 80064d2:	e783      	b.n	80063dc <LmHandlerSend+0x2c>
 80064d4:	f06f 0403 	mvn.w	r4, #3
 80064d8:	e780      	b.n	80063dc <LmHandlerSend+0x2c>
 80064da:	f06f 0401 	mvn.w	r4, #1
 80064de:	e77d      	b.n	80063dc <LmHandlerSend+0x2c>
 80064e0:	20000090 	.word	0x20000090
 80064e4:	2000059c 	.word	0x2000059c
 80064e8:	200000b8 	.word	0x200000b8
 80064ec:	200005b0 	.word	0x200005b0
 80064f0:	200000c8 	.word	0x200000c8
 80064f4:	20000594 	.word	0x20000594

080064f8 <MlmeIndication>:
 80064f8:	b5f7      	push	{r0, r1, r2, r4, r5, r6, r7, lr}
 80064fa:	4604      	mov	r4, r0
 80064fc:	460b      	mov	r3, r1
 80064fe:	491c      	ldr	r1, [pc, #112]	; (8006570 <MlmeIndication+0x78>)
 8006500:	7862      	ldrb	r2, [r4, #1]
 8006502:	704a      	strb	r2, [r1, #1]
 8006504:	2000      	movs	r0, #0
 8006506:	78a2      	ldrb	r2, [r4, #2]
 8006508:	720a      	strb	r2, [r1, #8]
 800650a:	7008      	strb	r0, [r1, #0]
 800650c:	881a      	ldrh	r2, [r3, #0]
 800650e:	724a      	strb	r2, [r1, #9]
 8006510:	789a      	ldrb	r2, [r3, #2]
 8006512:	728a      	strb	r2, [r1, #10]
 8006514:	78db      	ldrb	r3, [r3, #3]
 8006516:	740b      	strb	r3, [r1, #16]
 8006518:	6863      	ldr	r3, [r4, #4]
 800651a:	60cb      	str	r3, [r1, #12]
 800651c:	7823      	ldrb	r3, [r4, #0]
 800651e:	f003 03fb 	and.w	r3, r3, #251	; 0xfb
 8006522:	2b0b      	cmp	r3, #11
 8006524:	d003      	beq.n	800652e <MlmeIndication+0x36>
 8006526:	4b13      	ldr	r3, [pc, #76]	; (8006574 <MlmeIndication+0x7c>)
 8006528:	681b      	ldr	r3, [r3, #0]
 800652a:	6adb      	ldr	r3, [r3, #44]	; 0x2c
 800652c:	4798      	blx	r3
 800652e:	4e12      	ldr	r6, [pc, #72]	; (8006578 <MlmeIndication+0x80>)
 8006530:	2500      	movs	r5, #0
 8006532:	4637      	mov	r7, r6
 8006534:	f856 3b04 	ldr.w	r3, [r6], #4
 8006538:	b11b      	cbz	r3, 8006542 <MlmeIndication+0x4a>
 800653a:	6a5b      	ldr	r3, [r3, #36]	; 0x24
 800653c:	b10b      	cbz	r3, 8006542 <MlmeIndication+0x4a>
 800653e:	4620      	mov	r0, r4
 8006540:	4798      	blx	r3
 8006542:	3501      	adds	r5, #1
 8006544:	b2eb      	uxtb	r3, r5
 8006546:	2b05      	cmp	r3, #5
 8006548:	b26d      	sxtb	r5, r5
 800654a:	d1f3      	bne.n	8006534 <MlmeIndication+0x3c>
 800654c:	7823      	ldrb	r3, [r4, #0]
 800654e:	2b07      	cmp	r3, #7
 8006550:	d10c      	bne.n	800656c <MlmeIndication+0x74>
 8006552:	2300      	movs	r3, #0
 8006554:	f8ad 3000 	strh.w	r3, [sp]
 8006558:	9301      	str	r3, [sp, #4]
 800655a:	683b      	ldr	r3, [r7, #0]
 800655c:	68db      	ldr	r3, [r3, #12]
 800655e:	4798      	blx	r3
 8006560:	4601      	mov	r1, r0
 8006562:	b918      	cbnz	r0, 800656c <MlmeIndication+0x74>
 8006564:	2201      	movs	r2, #1
 8006566:	4668      	mov	r0, sp
 8006568:	f7ff ff22 	bl	80063b0 <LmHandlerSend>
 800656c:	b003      	add	sp, #12
 800656e:	bdf0      	pop	{r4, r5, r6, r7, pc}
 8006570:	200000a4 	.word	0x200000a4
 8006574:	20000598 	.word	0x20000598
 8006578:	2000059c 	.word	0x2000059c

0800657c <LmHandlerGetCurrentClass>:
 800657c:	b510      	push	{r4, lr}
 800657e:	4604      	mov	r4, r0
 8006580:	b08a      	sub	sp, #40	; 0x28
 8006582:	b918      	cbnz	r0, 800658c <LmHandlerGetCurrentClass+0x10>
 8006584:	f04f 30ff 	mov.w	r0, #4294967295
 8006588:	b00a      	add	sp, #40	; 0x28
 800658a:	bd10      	pop	{r4, pc}
 800658c:	2300      	movs	r3, #0
 800658e:	a801      	add	r0, sp, #4
 8006590:	f88d 3004 	strb.w	r3, [sp, #4]
 8006594:	f002 fa8a 	bl	8008aac <LoRaMacMibGetRequestConfirm>
 8006598:	2800      	cmp	r0, #0
 800659a:	d1f3      	bne.n	8006584 <LmHandlerGetCurrentClass+0x8>
 800659c:	f89d 3008 	ldrb.w	r3, [sp, #8]
 80065a0:	7023      	strb	r3, [r4, #0]
 80065a2:	e7f1      	b.n	8006588 <LmHandlerGetCurrentClass+0xc>

080065a4 <McpsIndication>:
 80065a4:	b5f0      	push	{r4, r5, r6, r7, lr}
 80065a6:	b087      	sub	sp, #28
 80065a8:	2200      	movs	r2, #0
 80065aa:	460b      	mov	r3, r1
 80065ac:	492b      	ldr	r1, [pc, #172]	; (800665c <McpsIndication+0xb8>)
 80065ae:	f88d 2007 	strb.w	r2, [sp, #7]
 80065b2:	2201      	movs	r2, #1
 80065b4:	700a      	strb	r2, [r1, #0]
 80065b6:	7842      	ldrb	r2, [r0, #1]
 80065b8:	704a      	strb	r2, [r1, #1]
 80065ba:	4604      	mov	r4, r0
 80065bc:	2a00      	cmp	r2, #0
 80065be:	d142      	bne.n	8006646 <McpsIndication+0xa2>
 80065c0:	7902      	ldrb	r2, [r0, #4]
 80065c2:	720a      	strb	r2, [r1, #8]
 80065c4:	881a      	ldrh	r2, [r3, #0]
 80065c6:	724a      	strb	r2, [r1, #9]
 80065c8:	789a      	ldrb	r2, [r3, #2]
 80065ca:	728a      	strb	r2, [r1, #10]
 80065cc:	78db      	ldrb	r3, [r3, #3]
 80065ce:	740b      	strb	r3, [r1, #16]
 80065d0:	6903      	ldr	r3, [r0, #16]
 80065d2:	60cb      	str	r3, [r1, #12]
 80065d4:	78c3      	ldrb	r3, [r0, #3]
 80065d6:	4d22      	ldr	r5, [pc, #136]	; (8006660 <McpsIndication+0xbc>)
 80065d8:	f88d 3008 	strb.w	r3, [sp, #8]
 80065dc:	7b03      	ldrb	r3, [r0, #12]
 80065de:	f88d 3009 	strb.w	r3, [sp, #9]
 80065e2:	6883      	ldr	r3, [r0, #8]
 80065e4:	9303      	str	r3, [sp, #12]
 80065e6:	682b      	ldr	r3, [r5, #0]
 80065e8:	a802      	add	r0, sp, #8
 80065ea:	6adb      	ldr	r3, [r3, #44]	; 0x2c
 80065ec:	4798      	blx	r3
 80065ee:	682b      	ldr	r3, [r5, #0]
 80065f0:	6b9b      	ldr	r3, [r3, #56]	; 0x38
 80065f2:	b113      	cbz	r3, 80065fa <McpsIndication+0x56>
 80065f4:	7e22      	ldrb	r2, [r4, #24]
 80065f6:	b102      	cbz	r2, 80065fa <McpsIndication+0x56>
 80065f8:	4798      	blx	r3
 80065fa:	4e1a      	ldr	r6, [pc, #104]	; (8006664 <McpsIndication+0xc0>)
 80065fc:	2500      	movs	r5, #0
 80065fe:	4637      	mov	r7, r6
 8006600:	f856 3b04 	ldr.w	r3, [r6], #4
 8006604:	b153      	cbz	r3, 800661c <McpsIndication+0x78>
 8006606:	69da      	ldr	r2, [r3, #28]
 8006608:	b142      	cbz	r2, 800661c <McpsIndication+0x78>
 800660a:	781a      	ldrb	r2, [r3, #0]
 800660c:	78e3      	ldrb	r3, [r4, #3]
 800660e:	429a      	cmp	r2, r3
 8006610:	d11b      	bne.n	800664a <McpsIndication+0xa6>
 8006612:	f856 3c04 	ldr.w	r3, [r6, #-4]
 8006616:	4620      	mov	r0, r4
 8006618:	69db      	ldr	r3, [r3, #28]
 800661a:	4798      	blx	r3
 800661c:	3501      	adds	r5, #1
 800661e:	b2eb      	uxtb	r3, r5
 8006620:	2b05      	cmp	r3, #5
 8006622:	b26d      	sxtb	r5, r5
 8006624:	d1ec      	bne.n	8006600 <McpsIndication+0x5c>
 8006626:	f10d 0007 	add.w	r0, sp, #7
 800662a:	f7ff ffa7 	bl	800657c <LmHandlerGetCurrentClass>
 800662e:	7962      	ldrb	r2, [r4, #5]
 8006630:	2a01      	cmp	r2, #1
 8006632:	d108      	bne.n	8006646 <McpsIndication+0xa2>
 8006634:	f89d 1007 	ldrb.w	r1, [sp, #7]
 8006638:	b929      	cbnz	r1, 8006646 <McpsIndication+0xa2>
 800663a:	a804      	add	r0, sp, #16
 800663c:	f8ad 1010 	strh.w	r1, [sp, #16]
 8006640:	9105      	str	r1, [sp, #20]
 8006642:	f7ff feb5 	bl	80063b0 <LmHandlerSend>
 8006646:	b007      	add	sp, #28
 8006648:	bdf0      	pop	{r4, r5, r6, r7, pc}
 800664a:	2d00      	cmp	r5, #0
 800664c:	d1e6      	bne.n	800661c <McpsIndication+0x78>
 800664e:	683b      	ldr	r3, [r7, #0]
 8006650:	68db      	ldr	r3, [r3, #12]
 8006652:	4798      	blx	r3
 8006654:	2800      	cmp	r0, #0
 8006656:	d1dc      	bne.n	8006612 <McpsIndication+0x6e>
 8006658:	e7e0      	b.n	800661c <McpsIndication+0x78>
 800665a:	bf00      	nop
 800665c:	200000a4 	.word	0x200000a4
 8006660:	20000598 	.word	0x20000598
 8006664:	2000059c 	.word	0x2000059c

08006668 <LmHandlerGetTxDatarate>:
 8006668:	b510      	push	{r4, lr}
 800666a:	4604      	mov	r4, r0
 800666c:	b08a      	sub	sp, #40	; 0x28
 800666e:	b918      	cbnz	r0, 8006678 <LmHandlerGetTxDatarate+0x10>
 8006670:	f04f 30ff 	mov.w	r0, #4294967295
 8006674:	b00a      	add	sp, #40	; 0x28
 8006676:	bd10      	pop	{r4, pc}
 8006678:	231f      	movs	r3, #31
 800667a:	a801      	add	r0, sp, #4
 800667c:	f88d 3004 	strb.w	r3, [sp, #4]
 8006680:	f002 fa14 	bl	8008aac <LoRaMacMibGetRequestConfirm>
 8006684:	2800      	cmp	r0, #0
 8006686:	d1f3      	bne.n	8006670 <LmHandlerGetTxDatarate+0x8>
 8006688:	4a02      	ldr	r2, [pc, #8]	; (8006694 <LmHandlerGetTxDatarate+0x2c>)
 800668a:	f99d 3008 	ldrsb.w	r3, [sp, #8]
 800668e:	7023      	strb	r3, [r4, #0]
 8006690:	7113      	strb	r3, [r2, #4]
 8006692:	e7ef      	b.n	8006674 <LmHandlerGetTxDatarate+0xc>
 8006694:	200005b0 	.word	0x200005b0

08006698 <MlmeConfirm>:
 8006698:	b5f0      	push	{r4, r5, r6, r7, lr}
 800669a:	4604      	mov	r4, r0
 800669c:	4e27      	ldr	r6, [pc, #156]	; (800673c <MlmeConfirm+0xa4>)
 800669e:	4828      	ldr	r0, [pc, #160]	; (8006740 <MlmeConfirm+0xa8>)
 80066a0:	7863      	ldrb	r3, [r4, #1]
 80066a2:	7043      	strb	r3, [r0, #1]
 80066a4:	6833      	ldr	r3, [r6, #0]
 80066a6:	4f27      	ldr	r7, [pc, #156]	; (8006744 <MlmeConfirm+0xac>)
 80066a8:	6a9b      	ldr	r3, [r3, #40]	; 0x28
 80066aa:	2500      	movs	r5, #0
 80066ac:	b08b      	sub	sp, #44	; 0x2c
 80066ae:	7005      	strb	r5, [r0, #0]
 80066b0:	4798      	blx	r3
 80066b2:	f857 3b04 	ldr.w	r3, [r7], #4
 80066b6:	b11b      	cbz	r3, 80066c0 <MlmeConfirm+0x28>
 80066b8:	6a1b      	ldr	r3, [r3, #32]
 80066ba:	b10b      	cbz	r3, 80066c0 <MlmeConfirm+0x28>
 80066bc:	4620      	mov	r0, r4
 80066be:	4798      	blx	r3
 80066c0:	3501      	adds	r5, #1
 80066c2:	b2eb      	uxtb	r3, r5
 80066c4:	2b05      	cmp	r3, #5
 80066c6:	b26d      	sxtb	r5, r5
 80066c8:	d1f3      	bne.n	80066b2 <MlmeConfirm+0x1a>
 80066ca:	7823      	ldrb	r3, [r4, #0]
 80066cc:	2b04      	cmp	r3, #4
 80066ce:	d024      	beq.n	800671a <MlmeConfirm+0x82>
 80066d0:	2b0c      	cmp	r3, #12
 80066d2:	d02a      	beq.n	800672a <MlmeConfirm+0x92>
 80066d4:	2b01      	cmp	r3, #1
 80066d6:	d11b      	bne.n	8006710 <MlmeConfirm+0x78>
 80066d8:	2306      	movs	r3, #6
 80066da:	4d1b      	ldr	r5, [pc, #108]	; (8006748 <MlmeConfirm+0xb0>)
 80066dc:	f88d 3004 	strb.w	r3, [sp, #4]
 80066e0:	a801      	add	r0, sp, #4
 80066e2:	f002 f9e3 	bl	8008aac <LoRaMacMibGetRequestConfirm>
 80066e6:	4b19      	ldr	r3, [pc, #100]	; (800674c <MlmeConfirm+0xb4>)
 80066e8:	9a02      	ldr	r2, [sp, #8]
 80066ea:	615a      	str	r2, [r3, #20]
 80066ec:	1d28      	adds	r0, r5, #4
 80066ee:	f7ff ffbb 	bl	8006668 <LmHandlerGetTxDatarate>
 80066f2:	7863      	ldrb	r3, [r4, #1]
 80066f4:	b973      	cbnz	r3, 8006714 <MlmeConfirm+0x7c>
 80066f6:	716b      	strb	r3, [r5, #5]
 80066f8:	4b15      	ldr	r3, [pc, #84]	; (8006750 <MlmeConfirm+0xb8>)
 80066fa:	7858      	ldrb	r0, [r3, #1]
 80066fc:	f7ff fdb6 	bl	800626c <LmHandlerRequestClass>
 8006700:	6833      	ldr	r3, [r6, #0]
 8006702:	4811      	ldr	r0, [pc, #68]	; (8006748 <MlmeConfirm+0xb0>)
 8006704:	6a5b      	ldr	r3, [r3, #36]	; 0x24
 8006706:	4798      	blx	r3
 8006708:	7863      	ldrb	r3, [r4, #1]
 800670a:	b90b      	cbnz	r3, 8006710 <MlmeConfirm+0x78>
 800670c:	f7ff fc09 	bl	8005f22 <SecureElementPrintSessionKeys>
 8006710:	b00b      	add	sp, #44	; 0x2c
 8006712:	bdf0      	pop	{r4, r5, r6, r7, pc}
 8006714:	23ff      	movs	r3, #255	; 0xff
 8006716:	716b      	strb	r3, [r5, #5]
 8006718:	e7f2      	b.n	8006700 <MlmeConfirm+0x68>
 800671a:	4b0e      	ldr	r3, [pc, #56]	; (8006754 <MlmeConfirm+0xbc>)
 800671c:	2201      	movs	r2, #1
 800671e:	745a      	strb	r2, [r3, #17]
 8006720:	7a22      	ldrb	r2, [r4, #8]
 8006722:	749a      	strb	r2, [r3, #18]
 8006724:	7a62      	ldrb	r2, [r4, #9]
 8006726:	74da      	strb	r2, [r3, #19]
 8006728:	e7f2      	b.n	8006710 <MlmeConfirm+0x78>
 800672a:	7863      	ldrb	r3, [r4, #1]
 800672c:	2b00      	cmp	r3, #0
 800672e:	d0ef      	beq.n	8006710 <MlmeConfirm+0x78>
 8006730:	b00b      	add	sp, #44	; 0x2c
 8006732:	e8bd 40f0 	ldmia.w	sp!, {r4, r5, r6, r7, lr}
 8006736:	f7ff bd25 	b.w	8006184 <LmHandlerDeviceTimeReq>
 800673a:	bf00      	nop
 800673c:	20000598 	.word	0x20000598
 8006740:	200000b8 	.word	0x200000b8
 8006744:	2000059c 	.word	0x2000059c
 8006748:	20000090 	.word	0x20000090
 800674c:	20000078 	.word	0x20000078
 8006750:	200005b0 	.word	0x200005b0
 8006754:	200000a4 	.word	0x200000a4

08006758 <LmHandlerSetSystemMaxRxError>:
 8006758:	b500      	push	{lr}
 800675a:	b08b      	sub	sp, #44	; 0x2c
 800675c:	2322      	movs	r3, #34	; 0x22
 800675e:	9002      	str	r0, [sp, #8]
 8006760:	a801      	add	r0, sp, #4
 8006762:	f88d 3004 	strb.w	r3, [sp, #4]
 8006766:	f002 fa65 	bl	8008c34 <LoRaMacMibSetRequestConfirm>
 800676a:	3800      	subs	r0, #0
 800676c:	bf18      	it	ne
 800676e:	2001      	movne	r0, #1
 8006770:	4240      	negs	r0, r0
 8006772:	b00b      	add	sp, #44	; 0x2c
 8006774:	f85d fb04 	ldr.w	pc, [sp], #4

08006778 <LmHandlerConfigure>:
 8006778:	b5f0      	push	{r4, r5, r6, r7, lr}
 800677a:	4c65      	ldr	r4, [pc, #404]	; (8006910 <LmHandlerConfigure+0x198>)
 800677c:	4601      	mov	r1, r0
 800677e:	2214      	movs	r2, #20
 8006780:	b08d      	sub	sp, #52	; 0x34
 8006782:	4620      	mov	r0, r4
 8006784:	f006 fed2 	bl	800d52c <UTIL_MEM_cpy_8>
 8006788:	f7fe ff74 	bl	8005674 <LoraInfo_GetPtr>
 800678c:	7822      	ldrb	r2, [r4, #0]
 800678e:	6841      	ldr	r1, [r0, #4]
 8006790:	2301      	movs	r3, #1
 8006792:	4093      	lsls	r3, r2
 8006794:	420b      	tst	r3, r1
 8006796:	d100      	bne.n	800679a <LmHandlerConfigure+0x22>
 8006798:	e7fe      	b.n	8006798 <LmHandlerConfigure+0x20>
 800679a:	495e      	ldr	r1, [pc, #376]	; (8006914 <LmHandlerConfigure+0x19c>)
 800679c:	485e      	ldr	r0, [pc, #376]	; (8006918 <LmHandlerConfigure+0x1a0>)
 800679e:	f001 ff29 	bl	80085f4 <LoRaMacInitialization>
 80067a2:	2800      	cmp	r0, #0
 80067a4:	f040 80b0 	bne.w	8006908 <LmHandlerConfigure+0x190>
 80067a8:	2326      	movs	r3, #38	; 0x26
 80067aa:	a803      	add	r0, sp, #12
 80067ac:	f88d 300c 	strb.w	r3, [sp, #12]
 80067b0:	f002 fa40 	bl	8008c34 <LoRaMacMibSetRequestConfirm>
 80067b4:	4f59      	ldr	r7, [pc, #356]	; (800691c <LmHandlerConfigure+0x1a4>)
 80067b6:	4d5a      	ldr	r5, [pc, #360]	; (8006920 <LmHandlerConfigure+0x1a8>)
 80067b8:	4e5a      	ldr	r6, [pc, #360]	; (8006924 <LmHandlerConfigure+0x1ac>)
 80067ba:	2800      	cmp	r0, #0
 80067bc:	d16c      	bne.n	8006898 <LmHandlerConfigure+0x120>
 80067be:	2301      	movs	r3, #1
 80067c0:	703b      	strb	r3, [r7, #0]
 80067c2:	682b      	ldr	r3, [r5, #0]
 80067c4:	69db      	ldr	r3, [r3, #28]
 80067c6:	b10b      	cbz	r3, 80067cc <LmHandlerConfigure+0x54>
 80067c8:	2000      	movs	r0, #0
 80067ca:	4798      	blx	r3
 80067cc:	2306      	movs	r3, #6
 80067ce:	a803      	add	r0, sp, #12
 80067d0:	f88d 300c 	strb.w	r3, [sp, #12]
 80067d4:	f002 f96a 	bl	8008aac <LoRaMacMibGetRequestConfirm>
 80067d8:	9b04      	ldr	r3, [sp, #16]
 80067da:	6173      	str	r3, [r6, #20]
 80067dc:	a803      	add	r0, sp, #12
 80067de:	2326      	movs	r3, #38	; 0x26
 80067e0:	f88d 300c 	strb.w	r3, [sp, #12]
 80067e4:	f002 f962 	bl	8008aac <LoRaMacMibGetRequestConfirm>
 80067e8:	9b04      	ldr	r3, [sp, #16]
 80067ea:	f893 2040 	ldrb.w	r2, [r3, #64]	; 0x40
 80067ee:	7022      	strb	r2, [r4, #0]
 80067f0:	f893 2104 	ldrb.w	r2, [r3, #260]	; 0x104
 80067f4:	f893 3106 	ldrb.w	r3, [r3, #262]	; 0x106
 80067f8:	7062      	strb	r2, [r4, #1]
 80067fa:	70a3      	strb	r3, [r4, #2]
 80067fc:	2302      	movs	r3, #2
 80067fe:	a803      	add	r0, sp, #12
 8006800:	f88d 300c 	strb.w	r3, [sp, #12]
 8006804:	f002 f952 	bl	8008aac <LoRaMacMibGetRequestConfirm>
 8006808:	9904      	ldr	r1, [sp, #16]
 800680a:	4846      	ldr	r0, [pc, #280]	; (8006924 <LmHandlerConfigure+0x1ac>)
 800680c:	2208      	movs	r2, #8
 800680e:	f004 ff5f 	bl	800b6d0 <memcpy1>
 8006812:	2303      	movs	r3, #3
 8006814:	a803      	add	r0, sp, #12
 8006816:	f88d 300c 	strb.w	r3, [sp, #12]
 800681a:	f002 f947 	bl	8008aac <LoRaMacMibGetRequestConfirm>
 800681e:	2208      	movs	r2, #8
 8006820:	9904      	ldr	r1, [sp, #16]
 8006822:	4841      	ldr	r0, [pc, #260]	; (8006928 <LmHandlerConfigure+0x1b0>)
 8006824:	f004 ff54 	bl	800b6d0 <memcpy1>
 8006828:	260f      	movs	r6, #15
 800682a:	f7ff fb6b 	bl	8005f04 <SecureElementPrintKeys>
 800682e:	2301      	movs	r3, #1
 8006830:	a803      	add	r0, sp, #12
 8006832:	2500      	movs	r5, #0
 8006834:	f88d 3010 	strb.w	r3, [sp, #16]
 8006838:	f88d 600c 	strb.w	r6, [sp, #12]
 800683c:	f002 f9fa 	bl	8008c34 <LoRaMacMibSetRequestConfirm>
 8006840:	2310      	movs	r3, #16
 8006842:	a803      	add	r0, sp, #12
 8006844:	f88d 300c 	strb.w	r3, [sp, #12]
 8006848:	f88d 5010 	strb.w	r5, [sp, #16]
 800684c:	f002 f9f2 	bl	8008c34 <LoRaMacMibSetRequestConfirm>
 8006850:	2304      	movs	r3, #4
 8006852:	f88d 300c 	strb.w	r3, [sp, #12]
 8006856:	a803      	add	r0, sp, #12
 8006858:	78a3      	ldrb	r3, [r4, #2]
 800685a:	f88d 3010 	strb.w	r3, [sp, #16]
 800685e:	f002 f9e9 	bl	8008c34 <LoRaMacMibSetRequestConfirm>
 8006862:	2337      	movs	r3, #55	; 0x37
 8006864:	f88d 300c 	strb.w	r3, [sp, #12]
 8006868:	a803      	add	r0, sp, #12
 800686a:	6923      	ldr	r3, [r4, #16]
 800686c:	9304      	str	r3, [sp, #16]
 800686e:	f002 f9e1 	bl	8008c34 <LoRaMacMibSetRequestConfirm>
 8006872:	a901      	add	r1, sp, #4
 8006874:	7820      	ldrb	r0, [r4, #0]
 8006876:	f88d 6004 	strb.w	r6, [sp, #4]
 800687a:	f003 fdb8 	bl	800a3ee <RegionGetPhyParam>
 800687e:	1b40      	subs	r0, r0, r5
 8006880:	bf18      	it	ne
 8006882:	2001      	movne	r0, #1
 8006884:	71a0      	strb	r0, [r4, #6]
 8006886:	2014      	movs	r0, #20
 8006888:	f7ff ff66 	bl	8006758 <LmHandlerSetSystemMaxRxError>
 800688c:	79a0      	ldrb	r0, [r4, #6]
 800688e:	f002 fe75 	bl	800957c <LoRaMacTestSetDutyCycleOn>
 8006892:	4628      	mov	r0, r5
 8006894:	b00d      	add	sp, #52	; 0x34
 8006896:	bdf0      	pop	{r4, r5, r6, r7, pc}
 8006898:	2327      	movs	r3, #39	; 0x27
 800689a:	f88d 300c 	strb.w	r3, [sp, #12]
 800689e:	682b      	ldr	r3, [r5, #0]
 80068a0:	691b      	ldr	r3, [r3, #16]
 80068a2:	b143      	cbz	r3, 80068b6 <LmHandlerConfigure+0x13e>
 80068a4:	a803      	add	r0, sp, #12
 80068a6:	f002 f901 	bl	8008aac <LoRaMacMibGetRequestConfirm>
 80068aa:	682b      	ldr	r3, [r5, #0]
 80068ac:	9804      	ldr	r0, [sp, #16]
 80068ae:	691b      	ldr	r3, [r3, #16]
 80068b0:	f44f 61e5 	mov.w	r1, #1832	; 0x728
 80068b4:	4798      	blx	r3
 80068b6:	2326      	movs	r3, #38	; 0x26
 80068b8:	a803      	add	r0, sp, #12
 80068ba:	f88d 300c 	strb.w	r3, [sp, #12]
 80068be:	f002 f9b9 	bl	8008c34 <LoRaMacMibSetRequestConfirm>
 80068c2:	b950      	cbnz	r0, 80068da <LmHandlerConfigure+0x162>
 80068c4:	2301      	movs	r3, #1
 80068c6:	a803      	add	r0, sp, #12
 80068c8:	f88d 300c 	strb.w	r3, [sp, #12]
 80068cc:	f002 f8ee 	bl	8008aac <LoRaMacMibGetRequestConfirm>
 80068d0:	f89d 3010 	ldrb.w	r3, [sp, #16]
 80068d4:	2b00      	cmp	r3, #0
 80068d6:	f47f af72 	bne.w	80067be <LmHandlerConfigure+0x46>
 80068da:	783b      	ldrb	r3, [r7, #0]
 80068dc:	2b00      	cmp	r3, #0
 80068de:	f47f af70 	bne.w	80067c2 <LmHandlerConfigure+0x4a>
 80068e2:	2205      	movs	r2, #5
 80068e4:	a803      	add	r0, sp, #12
 80068e6:	f88d 200c 	strb.w	r2, [sp, #12]
 80068ea:	9304      	str	r3, [sp, #16]
 80068ec:	f002 f9a2 	bl	8008c34 <LoRaMacMibSetRequestConfirm>
 80068f0:	682b      	ldr	r3, [r5, #0]
 80068f2:	68db      	ldr	r3, [r3, #12]
 80068f4:	4798      	blx	r3
 80068f6:	2306      	movs	r3, #6
 80068f8:	6170      	str	r0, [r6, #20]
 80068fa:	9004      	str	r0, [sp, #16]
 80068fc:	a803      	add	r0, sp, #12
 80068fe:	f88d 300c 	strb.w	r3, [sp, #12]
 8006902:	f002 f997 	bl	8008c34 <LoRaMacMibSetRequestConfirm>
 8006906:	e779      	b.n	80067fc <LmHandlerConfigure+0x84>
 8006908:	f04f 30ff 	mov.w	r0, #4294967295
 800690c:	e7c2      	b.n	8006894 <LmHandlerConfigure+0x11c>
 800690e:	bf00      	nop
 8006910:	200005b0 	.word	0x200005b0
 8006914:	200005c4 	.word	0x200005c4
 8006918:	200005d8 	.word	0x200005d8
 800691c:	20000592 	.word	0x20000592
 8006920:	20000598 	.word	0x20000598
 8006924:	20000078 	.word	0x20000078
 8006928:	20000080 	.word	0x20000080

0800692c <LmHandlerPackageRegister>:
 800692c:	b538      	push	{r3, r4, r5, lr}
 800692e:	460d      	mov	r5, r1
 8006930:	4604      	mov	r4, r0
 8006932:	b110      	cbz	r0, 800693a <LmHandlerPackageRegister+0xe>
 8006934:	f04f 30ff 	mov.w	r0, #4294967295
 8006938:	bd38      	pop	{r3, r4, r5, pc}
 800693a:	f000 fa1d 	bl	8006d78 <LmhpCompliancePackageFactory>
 800693e:	2800      	cmp	r0, #0
 8006940:	d0f8      	beq.n	8006934 <LmHandlerPackageRegister+0x8>
 8006942:	4b09      	ldr	r3, [pc, #36]	; (8006968 <LmHandlerPackageRegister+0x3c>)
 8006944:	4909      	ldr	r1, [pc, #36]	; (800696c <LmHandlerPackageRegister+0x40>)
 8006946:	6018      	str	r0, [r3, #0]
 8006948:	4b09      	ldr	r3, [pc, #36]	; (8006970 <LmHandlerPackageRegister+0x44>)
 800694a:	6283      	str	r3, [r0, #40]	; 0x28
 800694c:	4b09      	ldr	r3, [pc, #36]	; (8006974 <LmHandlerPackageRegister+0x48>)
 800694e:	62c3      	str	r3, [r0, #44]	; 0x2c
 8006950:	4b09      	ldr	r3, [pc, #36]	; (8006978 <LmHandlerPackageRegister+0x4c>)
 8006952:	6303      	str	r3, [r0, #48]	; 0x30
 8006954:	4b09      	ldr	r3, [pc, #36]	; (800697c <LmHandlerPackageRegister+0x50>)
 8006956:	681b      	ldr	r3, [r3, #0]
 8006958:	699b      	ldr	r3, [r3, #24]
 800695a:	6143      	str	r3, [r0, #20]
 800695c:	22f2      	movs	r2, #242	; 0xf2
 800695e:	6843      	ldr	r3, [r0, #4]
 8006960:	4628      	mov	r0, r5
 8006962:	4798      	blx	r3
 8006964:	4620      	mov	r0, r4
 8006966:	e7e7      	b.n	8006938 <LmHandlerPackageRegister+0xc>
 8006968:	2000059c 	.word	0x2000059c
 800696c:	200004a0 	.word	0x200004a0
 8006970:	08006301 	.word	0x08006301
 8006974:	080063b1 	.word	0x080063b1
 8006978:	08006185 	.word	0x08006185
 800697c:	20000598 	.word	0x20000598

08006980 <LmHandlerInit>:
 8006980:	b508      	push	{r3, lr}
 8006982:	4b0f      	ldr	r3, [pc, #60]	; (80069c0 <LmHandlerInit+0x40>)
 8006984:	4a0f      	ldr	r2, [pc, #60]	; (80069c4 <LmHandlerInit+0x44>)
 8006986:	6018      	str	r0, [r3, #0]
 8006988:	4b0f      	ldr	r3, [pc, #60]	; (80069c8 <LmHandlerInit+0x48>)
 800698a:	4910      	ldr	r1, [pc, #64]	; (80069cc <LmHandlerInit+0x4c>)
 800698c:	601a      	str	r2, [r3, #0]
 800698e:	4a10      	ldr	r2, [pc, #64]	; (80069d0 <LmHandlerInit+0x50>)
 8006990:	605a      	str	r2, [r3, #4]
 8006992:	4a10      	ldr	r2, [pc, #64]	; (80069d4 <LmHandlerInit+0x54>)
 8006994:	609a      	str	r2, [r3, #8]
 8006996:	4a10      	ldr	r2, [pc, #64]	; (80069d8 <LmHandlerInit+0x58>)
 8006998:	60da      	str	r2, [r3, #12]
 800699a:	4b10      	ldr	r3, [pc, #64]	; (80069dc <LmHandlerInit+0x5c>)
 800699c:	6802      	ldr	r2, [r0, #0]
 800699e:	601a      	str	r2, [r3, #0]
 80069a0:	6842      	ldr	r2, [r0, #4]
 80069a2:	605a      	str	r2, [r3, #4]
 80069a4:	6882      	ldr	r2, [r0, #8]
 80069a6:	609a      	str	r2, [r3, #8]
 80069a8:	4a0d      	ldr	r2, [pc, #52]	; (80069e0 <LmHandlerInit+0x60>)
 80069aa:	60da      	str	r2, [r3, #12]
 80069ac:	6982      	ldr	r2, [r0, #24]
 80069ae:	611a      	str	r2, [r3, #16]
 80069b0:	2000      	movs	r0, #0
 80069b2:	f7ff ffbb 	bl	800692c <LmHandlerPackageRegister>
 80069b6:	3800      	subs	r0, #0
 80069b8:	bf18      	it	ne
 80069ba:	2001      	movne	r0, #1
 80069bc:	4240      	negs	r0, r0
 80069be:	bd08      	pop	{r3, pc}
 80069c0:	20000598 	.word	0x20000598
 80069c4:	080061ad 	.word	0x080061ad
 80069c8:	200005d8 	.word	0x200005d8
 80069cc:	20000098 	.word	0x20000098
 80069d0:	080065a5 	.word	0x080065a5
 80069d4:	08006699 	.word	0x08006699
 80069d8:	080064f9 	.word	0x080064f9
 80069dc:	200005c4 	.word	0x200005c4
 80069e0:	08006a71 	.word	0x08006a71

080069e4 <LmHandlerStop>:
 80069e4:	b508      	push	{r3, lr}
 80069e6:	f002 fddb 	bl	80095a0 <LoRaMacDeInitialization>
 80069ea:	2800      	cmp	r0, #0
 80069ec:	bf14      	ite	ne
 80069ee:	f06f 0001 	mvnne.w	r0, #1
 80069f2:	2000      	moveq	r0, #0
 80069f4:	bd08      	pop	{r3, pc}

080069f6 <LmHandlerHalt>:
 80069f6:	b508      	push	{r3, lr}
 80069f8:	f001 ffd0 	bl	800899c <LoRaMacHalt>
 80069fc:	2800      	cmp	r0, #0
 80069fe:	bf14      	ite	ne
 8006a00:	f06f 0001 	mvnne.w	r0, #1
 8006a04:	2000      	moveq	r0, #0
 8006a06:	bd08      	pop	{r3, pc}

08006a08 <LmHandlerNvmDataStore>:
 8006a08:	b530      	push	{r4, r5, lr}
 8006a0a:	b08b      	sub	sp, #44	; 0x2c
 8006a0c:	f7ff fff3 	bl	80069f6 <LmHandlerHalt>
 8006a10:	4604      	mov	r4, r0
 8006a12:	b9f0      	cbnz	r0, 8006a52 <LmHandlerNvmDataStore+0x4a>
 8006a14:	f000 f82d 	bl	8006a72 <NvmDataMgmtStoreBegin>
 8006a18:	1c83      	adds	r3, r0, #2
 8006a1a:	d01d      	beq.n	8006a58 <LmHandlerNvmDataStore+0x50>
 8006a1c:	b9f8      	cbnz	r0, 8006a5e <LmHandlerNvmDataStore+0x56>
 8006a1e:	4d13      	ldr	r5, [pc, #76]	; (8006a6c <LmHandlerNvmDataStore+0x64>)
 8006a20:	682b      	ldr	r3, [r5, #0]
 8006a22:	695b      	ldr	r3, [r3, #20]
 8006a24:	b1db      	cbz	r3, 8006a5e <LmHandlerNvmDataStore+0x56>
 8006a26:	2326      	movs	r3, #38	; 0x26
 8006a28:	a801      	add	r0, sp, #4
 8006a2a:	f88d 3004 	strb.w	r3, [sp, #4]
 8006a2e:	f002 f83d 	bl	8008aac <LoRaMacMibGetRequestConfirm>
 8006a32:	682b      	ldr	r3, [r5, #0]
 8006a34:	9802      	ldr	r0, [sp, #8]
 8006a36:	695b      	ldr	r3, [r3, #20]
 8006a38:	f44f 61e5 	mov.w	r1, #1832	; 0x728
 8006a3c:	4798      	blx	r3
 8006a3e:	f000 f81b 	bl	8006a78 <NvmDataMgmtStoreEnd>
 8006a42:	b978      	cbnz	r0, 8006a64 <LmHandlerNvmDataStore+0x5c>
 8006a44:	b92c      	cbnz	r4, 8006a52 <LmHandlerNvmDataStore+0x4a>
 8006a46:	4b09      	ldr	r3, [pc, #36]	; (8006a6c <LmHandlerNvmDataStore+0x64>)
 8006a48:	681b      	ldr	r3, [r3, #0]
 8006a4a:	69db      	ldr	r3, [r3, #28]
 8006a4c:	b10b      	cbz	r3, 8006a52 <LmHandlerNvmDataStore+0x4a>
 8006a4e:	2001      	movs	r0, #1
 8006a50:	4798      	blx	r3
 8006a52:	4620      	mov	r0, r4
 8006a54:	b00b      	add	sp, #44	; 0x2c
 8006a56:	bd30      	pop	{r4, r5, pc}
 8006a58:	f06f 0407 	mvn.w	r4, #7
 8006a5c:	e7ef      	b.n	8006a3e <LmHandlerNvmDataStore+0x36>
 8006a5e:	f04f 34ff 	mov.w	r4, #4294967295
 8006a62:	e7ec      	b.n	8006a3e <LmHandlerNvmDataStore+0x36>
 8006a64:	f04f 34ff 	mov.w	r4, #4294967295
 8006a68:	e7f3      	b.n	8006a52 <LmHandlerNvmDataStore+0x4a>
 8006a6a:	bf00      	nop
 8006a6c:	20000598 	.word	0x20000598

08006a70 <NvmDataMgmtEvent>:
 8006a70:	4770      	bx	lr

08006a72 <NvmDataMgmtStoreBegin>:
 8006a72:	f06f 0004 	mvn.w	r0, #4
 8006a76:	4770      	bx	lr

08006a78 <NvmDataMgmtStoreEnd>:
 8006a78:	f06f 0004 	mvn.w	r0, #4
 8006a7c:	4770      	bx	lr
	...

08006a80 <LmhpComplianceInit>:
 8006a80:	b510      	push	{r4, lr}
 8006a82:	4b06      	ldr	r3, [pc, #24]	; (8006a9c <LmhpComplianceInit+0x1c>)
 8006a84:	4c06      	ldr	r4, [pc, #24]	; (8006aa0 <LmhpComplianceInit+0x20>)
 8006a86:	b130      	cbz	r0, 8006a96 <LmhpComplianceInit+0x16>
 8006a88:	b129      	cbz	r1, 8006a96 <LmhpComplianceInit+0x16>
 8006a8a:	715a      	strb	r2, [r3, #5]
 8006a8c:	6020      	str	r0, [r4, #0]
 8006a8e:	6099      	str	r1, [r3, #8]
 8006a90:	2201      	movs	r2, #1
 8006a92:	701a      	strb	r2, [r3, #0]
 8006a94:	bd10      	pop	{r4, pc}
 8006a96:	2200      	movs	r2, #0
 8006a98:	6022      	str	r2, [r4, #0]
 8006a9a:	e7fa      	b.n	8006a92 <LmhpComplianceInit+0x12>
 8006a9c:	200005e8 	.word	0x200005e8
 8006aa0:	20000614 	.word	0x20000614

08006aa4 <LmhpComplianceIsInitialized>:
 8006aa4:	4b01      	ldr	r3, [pc, #4]	; (8006aac <LmhpComplianceIsInitialized+0x8>)
 8006aa6:	7818      	ldrb	r0, [r3, #0]
 8006aa8:	4770      	bx	lr
 8006aaa:	bf00      	nop
 8006aac:	200005e8 	.word	0x200005e8

08006ab0 <LmhpComplianceIsRunning>:
 8006ab0:	4b02      	ldr	r3, [pc, #8]	; (8006abc <LmhpComplianceIsRunning+0xc>)
 8006ab2:	7818      	ldrb	r0, [r3, #0]
 8006ab4:	b100      	cbz	r0, 8006ab8 <LmhpComplianceIsRunning+0x8>
 8006ab6:	7858      	ldrb	r0, [r3, #1]
 8006ab8:	4770      	bx	lr
 8006aba:	bf00      	nop
 8006abc:	200005e8 	.word	0x200005e8

08006ac0 <LmhpComplianceProcess>:
 8006ac0:	4770      	bx	lr
	...

08006ac4 <LmhpComplianceOnMcpsConfirm>:
 8006ac4:	4b06      	ldr	r3, [pc, #24]	; (8006ae0 <LmhpComplianceOnMcpsConfirm+0x1c>)
 8006ac6:	781a      	ldrb	r2, [r3, #0]
 8006ac8:	b14a      	cbz	r2, 8006ade <LmhpComplianceOnMcpsConfirm+0x1a>
 8006aca:	785a      	ldrb	r2, [r3, #1]
 8006acc:	b13a      	cbz	r2, 8006ade <LmhpComplianceOnMcpsConfirm+0x1a>
 8006ace:	7802      	ldrb	r2, [r0, #0]
 8006ad0:	2a01      	cmp	r2, #1
 8006ad2:	d104      	bne.n	8006ade <LmhpComplianceOnMcpsConfirm+0x1a>
 8006ad4:	7902      	ldrb	r2, [r0, #4]
 8006ad6:	b112      	cbz	r2, 8006ade <LmhpComplianceOnMcpsConfirm+0x1a>
 8006ad8:	899a      	ldrh	r2, [r3, #12]
 8006ada:	3201      	adds	r2, #1
 8006adc:	819a      	strh	r2, [r3, #12]
 8006ade:	4770      	bx	lr
 8006ae0:	200005e8 	.word	0x200005e8

08006ae4 <LmhpComplianceOnMlmeConfirm>:
 8006ae4:	4b07      	ldr	r3, [pc, #28]	; (8006b04 <LmhpComplianceOnMlmeConfirm+0x20>)
 8006ae6:	781a      	ldrb	r2, [r3, #0]
 8006ae8:	b152      	cbz	r2, 8006b00 <LmhpComplianceOnMlmeConfirm+0x1c>
 8006aea:	785a      	ldrb	r2, [r3, #1]
 8006aec:	b142      	cbz	r2, 8006b00 <LmhpComplianceOnMlmeConfirm+0x1c>
 8006aee:	7802      	ldrb	r2, [r0, #0]
 8006af0:	2a04      	cmp	r2, #4
 8006af2:	d105      	bne.n	8006b00 <LmhpComplianceOnMlmeConfirm+0x1c>
 8006af4:	7a01      	ldrb	r1, [r0, #8]
 8006af6:	7a42      	ldrb	r2, [r0, #9]
 8006af8:	73d9      	strb	r1, [r3, #15]
 8006afa:	2001      	movs	r0, #1
 8006afc:	7398      	strb	r0, [r3, #14]
 8006afe:	741a      	strb	r2, [r3, #16]
 8006b00:	4770      	bx	lr
 8006b02:	bf00      	nop
 8006b04:	200005e8 	.word	0x200005e8

08006b08 <LmhpComplianceTxProcess.isra.0>:
 8006b08:	b513      	push	{r0, r1, r4, lr}
 8006b0a:	4c19      	ldr	r4, [pc, #100]	; (8006b70 <LmhpComplianceTxProcess.isra.0+0x68>)
 8006b0c:	7823      	ldrb	r3, [r4, #0]
 8006b0e:	b333      	cbz	r3, 8006b5e <LmhpComplianceTxProcess.isra.0+0x56>
 8006b10:	7863      	ldrb	r3, [r4, #1]
 8006b12:	b323      	cbz	r3, 8006b5e <LmhpComplianceTxProcess.isra.0+0x56>
 8006b14:	7ba2      	ldrb	r2, [r4, #14]
 8006b16:	68a3      	ldr	r3, [r4, #8]
 8006b18:	b162      	cbz	r2, 8006b34 <LmhpComplianceTxProcess.isra.0+0x2c>
 8006b1a:	2200      	movs	r2, #0
 8006b1c:	73a2      	strb	r2, [r4, #14]
 8006b1e:	2203      	movs	r2, #3
 8006b20:	71a2      	strb	r2, [r4, #6]
 8006b22:	2205      	movs	r2, #5
 8006b24:	701a      	strb	r2, [r3, #0]
 8006b26:	7be2      	ldrb	r2, [r4, #15]
 8006b28:	705a      	strb	r2, [r3, #1]
 8006b2a:	7c22      	ldrb	r2, [r4, #16]
 8006b2c:	709a      	strb	r2, [r3, #2]
 8006b2e:	2201      	movs	r2, #1
 8006b30:	70a2      	strb	r2, [r4, #2]
 8006b32:	e004      	b.n	8006b3e <LmhpComplianceTxProcess.isra.0+0x36>
 8006b34:	78a2      	ldrb	r2, [r4, #2]
 8006b36:	2a01      	cmp	r2, #1
 8006b38:	d013      	beq.n	8006b62 <LmhpComplianceTxProcess.isra.0+0x5a>
 8006b3a:	2a04      	cmp	r2, #4
 8006b3c:	d0f7      	beq.n	8006b2e <LmhpComplianceTxProcess.isra.0+0x26>
 8006b3e:	22e0      	movs	r2, #224	; 0xe0
 8006b40:	f88d 2000 	strb.w	r2, [sp]
 8006b44:	480b      	ldr	r0, [pc, #44]	; (8006b74 <LmhpComplianceTxProcess.isra.0+0x6c>)
 8006b46:	79a2      	ldrb	r2, [r4, #6]
 8006b48:	f88d 2001 	strb.w	r2, [sp, #1]
 8006b4c:	9301      	str	r3, [sp, #4]
 8006b4e:	f007 f87b 	bl	800dc48 <UTIL_TIMER_Start>
 8006b52:	4b09      	ldr	r3, [pc, #36]	; (8006b78 <LmhpComplianceTxProcess.isra.0+0x70>)
 8006b54:	78e1      	ldrb	r1, [r4, #3]
 8006b56:	6adb      	ldr	r3, [r3, #44]	; 0x2c
 8006b58:	2201      	movs	r2, #1
 8006b5a:	4668      	mov	r0, sp
 8006b5c:	4798      	blx	r3
 8006b5e:	b002      	add	sp, #8
 8006b60:	bd10      	pop	{r4, pc}
 8006b62:	2202      	movs	r2, #2
 8006b64:	71a2      	strb	r2, [r4, #6]
 8006b66:	89a2      	ldrh	r2, [r4, #12]
 8006b68:	705a      	strb	r2, [r3, #1]
 8006b6a:	0a11      	lsrs	r1, r2, #8
 8006b6c:	7019      	strb	r1, [r3, #0]
 8006b6e:	e7e6      	b.n	8006b3e <LmhpComplianceTxProcess.isra.0+0x36>
 8006b70:	200005e8 	.word	0x200005e8
 8006b74:	200005fc 	.word	0x200005fc
 8006b78:	200000d4 	.word	0x200000d4

08006b7c <OnComplianceTxNextPacketTimerEvent>:
 8006b7c:	f7ff bfc4 	b.w	8006b08 <LmhpComplianceTxProcess.isra.0>

08006b80 <LmhpComplianceOnMcpsIndication>:
 8006b80:	b530      	push	{r4, r5, lr}
 8006b82:	4c78      	ldr	r4, [pc, #480]	; (8006d64 <LmhpComplianceOnMcpsIndication+0x1e4>)
 8006b84:	7823      	ldrb	r3, [r4, #0]
 8006b86:	b08d      	sub	sp, #52	; 0x34
 8006b88:	2b00      	cmp	r3, #0
 8006b8a:	d043      	beq.n	8006c14 <LmhpComplianceOnMcpsIndication+0x94>
 8006b8c:	7b43      	ldrb	r3, [r0, #13]
 8006b8e:	2b00      	cmp	r3, #0
 8006b90:	d040      	beq.n	8006c14 <LmhpComplianceOnMcpsIndication+0x94>
 8006b92:	7865      	ldrb	r5, [r4, #1]
 8006b94:	b125      	cbz	r5, 8006ba0 <LmhpComplianceOnMcpsIndication+0x20>
 8006b96:	7b83      	ldrb	r3, [r0, #14]
 8006b98:	b913      	cbnz	r3, 8006ba0 <LmhpComplianceOnMcpsIndication+0x20>
 8006b9a:	89a3      	ldrh	r3, [r4, #12]
 8006b9c:	3301      	adds	r3, #1
 8006b9e:	81a3      	strh	r3, [r4, #12]
 8006ba0:	78c1      	ldrb	r1, [r0, #3]
 8006ba2:	29e0      	cmp	r1, #224	; 0xe0
 8006ba4:	d136      	bne.n	8006c14 <LmhpComplianceOnMcpsIndication+0x94>
 8006ba6:	2d00      	cmp	r5, #0
 8006ba8:	d136      	bne.n	8006c18 <LmhpComplianceOnMcpsIndication+0x98>
 8006baa:	7b02      	ldrb	r2, [r0, #12]
 8006bac:	2a04      	cmp	r2, #4
 8006bae:	d131      	bne.n	8006c14 <LmhpComplianceOnMcpsIndication+0x94>
 8006bb0:	6883      	ldr	r3, [r0, #8]
 8006bb2:	7818      	ldrb	r0, [r3, #0]
 8006bb4:	2801      	cmp	r0, #1
 8006bb6:	d12d      	bne.n	8006c14 <LmhpComplianceOnMcpsIndication+0x94>
 8006bb8:	7858      	ldrb	r0, [r3, #1]
 8006bba:	2801      	cmp	r0, #1
 8006bbc:	d12a      	bne.n	8006c14 <LmhpComplianceOnMcpsIndication+0x94>
 8006bbe:	7898      	ldrb	r0, [r3, #2]
 8006bc0:	2801      	cmp	r0, #1
 8006bc2:	d127      	bne.n	8006c14 <LmhpComplianceOnMcpsIndication+0x94>
 8006bc4:	78db      	ldrb	r3, [r3, #3]
 8006bc6:	2b01      	cmp	r3, #1
 8006bc8:	d124      	bne.n	8006c14 <LmhpComplianceOnMcpsIndication+0x94>
 8006bca:	2002      	movs	r0, #2
 8006bcc:	8063      	strh	r3, [r4, #2]
 8006bce:	71a0      	strb	r0, [r4, #6]
 8006bd0:	60e5      	str	r5, [r4, #12]
 8006bd2:	a803      	add	r0, sp, #12
 8006bd4:	7063      	strb	r3, [r4, #1]
 8006bd6:	f88d 3010 	strb.w	r3, [sp, #16]
 8006bda:	7121      	strb	r1, [r4, #4]
 8006bdc:	f88d 200c 	strb.w	r2, [sp, #12]
 8006be0:	7425      	strb	r5, [r4, #16]
 8006be2:	f002 f827 	bl	8008c34 <LoRaMacMibSetRequestConfirm>
 8006be6:	4628      	mov	r0, r5
 8006be8:	f002 fcc8 	bl	800957c <LoRaMacTestSetDutyCycleOn>
 8006bec:	4b5e      	ldr	r3, [pc, #376]	; (8006d68 <LmhpComplianceOnMcpsIndication+0x1e8>)
 8006bee:	681b      	ldr	r3, [r3, #0]
 8006bf0:	685b      	ldr	r3, [r3, #4]
 8006bf2:	b103      	cbz	r3, 8006bf6 <LmhpComplianceOnMcpsIndication+0x76>
 8006bf4:	4798      	blx	r3
 8006bf6:	2200      	movs	r2, #0
 8006bf8:	4b5c      	ldr	r3, [pc, #368]	; (8006d6c <LmhpComplianceOnMcpsIndication+0x1ec>)
 8006bfa:	9200      	str	r2, [sp, #0]
 8006bfc:	f04f 31ff 	mov.w	r1, #4294967295
 8006c00:	485b      	ldr	r0, [pc, #364]	; (8006d70 <LmhpComplianceOnMcpsIndication+0x1f0>)
 8006c02:	f006 ff73 	bl	800daec <UTIL_TIMER_Create>
 8006c06:	f241 3188 	movw	r1, #5000	; 0x1388
 8006c0a:	4859      	ldr	r0, [pc, #356]	; (8006d70 <LmhpComplianceOnMcpsIndication+0x1f0>)
 8006c0c:	f007 f856 	bl	800dcbc <UTIL_TIMER_SetPeriod>
 8006c10:	f7ff ff7a 	bl	8006b08 <LmhpComplianceTxProcess.isra.0>
 8006c14:	b00d      	add	sp, #52	; 0x34
 8006c16:	bd30      	pop	{r4, r5, pc}
 8006c18:	6883      	ldr	r3, [r0, #8]
 8006c1a:	781a      	ldrb	r2, [r3, #0]
 8006c1c:	70a2      	strb	r2, [r4, #2]
 8006c1e:	2a0a      	cmp	r2, #10
 8006c20:	d8f8      	bhi.n	8006c14 <LmhpComplianceOnMcpsIndication+0x94>
 8006c22:	e8df f002 	tbb	[pc, r2]
 8006c26:	2106      	.short	0x2106
 8006c28:	3d2a2824 	.word	0x3d2a2824
 8006c2c:	8e8c6344 	.word	0x8e8c6344
 8006c30:	98          	.byte	0x98
 8006c31:	00          	.byte	0x00
 8006c32:	484f      	ldr	r0, [pc, #316]	; (8006d70 <LmhpComplianceOnMcpsIndication+0x1f0>)
 8006c34:	f006 ffb8 	bl	800dba8 <UTIL_TIMER_Stop>
 8006c38:	2300      	movs	r3, #0
 8006c3a:	7063      	strb	r3, [r4, #1]
 8006c3c:	81a3      	strh	r3, [r4, #12]
 8006c3e:	4c4a      	ldr	r4, [pc, #296]	; (8006d68 <LmhpComplianceOnMcpsIndication+0x1e8>)
 8006c40:	2304      	movs	r3, #4
 8006c42:	f88d 300c 	strb.w	r3, [sp, #12]
 8006c46:	6823      	ldr	r3, [r4, #0]
 8006c48:	a803      	add	r0, sp, #12
 8006c4a:	781b      	ldrb	r3, [r3, #0]
 8006c4c:	f88d 3010 	strb.w	r3, [sp, #16]
 8006c50:	f001 fff0 	bl	8008c34 <LoRaMacMibSetRequestConfirm>
 8006c54:	6823      	ldr	r3, [r4, #0]
 8006c56:	7858      	ldrb	r0, [r3, #1]
 8006c58:	f002 fc90 	bl	800957c <LoRaMacTestSetDutyCycleOn>
 8006c5c:	6823      	ldr	r3, [r4, #0]
 8006c5e:	689b      	ldr	r3, [r3, #8]
 8006c60:	2b00      	cmp	r3, #0
 8006c62:	d0d7      	beq.n	8006c14 <LmhpComplianceOnMcpsIndication+0x94>
 8006c64:	4798      	blx	r3
 8006c66:	e7d5      	b.n	8006c14 <LmhpComplianceOnMcpsIndication+0x94>
 8006c68:	2302      	movs	r3, #2
 8006c6a:	71a3      	strb	r3, [r4, #6]
 8006c6c:	e7d2      	b.n	8006c14 <LmhpComplianceOnMcpsIndication+0x94>
 8006c6e:	f240 1301 	movw	r3, #257	; 0x101
 8006c72:	8063      	strh	r3, [r4, #2]
 8006c74:	e7ce      	b.n	8006c14 <LmhpComplianceOnMcpsIndication+0x94>
 8006c76:	2301      	movs	r3, #1
 8006c78:	e7fb      	b.n	8006c72 <LmhpComplianceOnMcpsIndication+0xf2>
 8006c7a:	68a5      	ldr	r5, [r4, #8]
 8006c7c:	7b03      	ldrb	r3, [r0, #12]
 8006c7e:	71a3      	strb	r3, [r4, #6]
 8006c80:	2204      	movs	r2, #4
 8006c82:	702a      	strb	r2, [r5, #0]
 8006c84:	7962      	ldrb	r2, [r4, #5]
 8006c86:	429a      	cmp	r2, r3
 8006c88:	bf28      	it	cs
 8006c8a:	461a      	movcs	r2, r3
 8006c8c:	2300      	movs	r3, #0
 8006c8e:	3301      	adds	r3, #1
 8006c90:	b2d9      	uxtb	r1, r3
 8006c92:	428a      	cmp	r2, r1
 8006c94:	d9be      	bls.n	8006c14 <LmhpComplianceOnMcpsIndication+0x94>
 8006c96:	6881      	ldr	r1, [r0, #8]
 8006c98:	5cc9      	ldrb	r1, [r1, r3]
 8006c9a:	3101      	adds	r1, #1
 8006c9c:	54e9      	strb	r1, [r5, r3]
 8006c9e:	e7f6      	b.n	8006c8e <LmhpComplianceOnMcpsIndication+0x10e>
 8006ca0:	2304      	movs	r3, #4
 8006ca2:	f88d 300c 	strb.w	r3, [sp, #12]
 8006ca6:	a803      	add	r0, sp, #12
 8006ca8:	f002 f9ea 	bl	8009080 <LoRaMacMlmeRequest>
 8006cac:	e7b2      	b.n	8006c14 <LmhpComplianceOnMcpsIndication+0x94>
 8006cae:	4830      	ldr	r0, [pc, #192]	; (8006d70 <LmhpComplianceOnMcpsIndication+0x1f0>)
 8006cb0:	f006 ff7a 	bl	800dba8 <UTIL_TIMER_Stop>
 8006cb4:	2300      	movs	r3, #0
 8006cb6:	7063      	strb	r3, [r4, #1]
 8006cb8:	81a3      	strh	r3, [r4, #12]
 8006cba:	4c2b      	ldr	r4, [pc, #172]	; (8006d68 <LmhpComplianceOnMcpsIndication+0x1e8>)
 8006cbc:	2304      	movs	r3, #4
 8006cbe:	f88d 300c 	strb.w	r3, [sp, #12]
 8006cc2:	6823      	ldr	r3, [r4, #0]
 8006cc4:	a803      	add	r0, sp, #12
 8006cc6:	781b      	ldrb	r3, [r3, #0]
 8006cc8:	f88d 3010 	strb.w	r3, [sp, #16]
 8006ccc:	f001 ffb2 	bl	8008c34 <LoRaMacMibSetRequestConfirm>
 8006cd0:	6823      	ldr	r3, [r4, #0]
 8006cd2:	7858      	ldrb	r0, [r3, #1]
 8006cd4:	f002 fc52 	bl	800957c <LoRaMacTestSetDutyCycleOn>
 8006cd8:	6823      	ldr	r3, [r4, #0]
 8006cda:	689b      	ldr	r3, [r3, #8]
 8006cdc:	b103      	cbz	r3, 8006ce0 <LmhpComplianceOnMcpsIndication+0x160>
 8006cde:	4798      	blx	r3
 8006ce0:	4b24      	ldr	r3, [pc, #144]	; (8006d74 <LmhpComplianceOnMcpsIndication+0x1f4>)
 8006ce2:	2101      	movs	r1, #1
 8006ce4:	6a9b      	ldr	r3, [r3, #40]	; 0x28
 8006ce6:	2002      	movs	r0, #2
 8006ce8:	4798      	blx	r3
 8006cea:	e793      	b.n	8006c14 <LmhpComplianceOnMcpsIndication+0x94>
 8006cec:	7b02      	ldrb	r2, [r0, #12]
 8006cee:	2a03      	cmp	r2, #3
 8006cf0:	d10d      	bne.n	8006d0e <LmhpComplianceOnMcpsIndication+0x18e>
 8006cf2:	2205      	movs	r2, #5
 8006cf4:	f88d 200c 	strb.w	r2, [sp, #12]
 8006cf8:	f8b3 3001 	ldrh.w	r3, [r3, #1]
 8006cfc:	ba5b      	rev16	r3, r3
 8006cfe:	f8ad 3010 	strh.w	r3, [sp, #16]
 8006d02:	a803      	add	r0, sp, #12
 8006d04:	f002 f9bc 	bl	8009080 <LoRaMacMlmeRequest>
 8006d08:	2301      	movs	r3, #1
 8006d0a:	70a3      	strb	r3, [r4, #2]
 8006d0c:	e782      	b.n	8006c14 <LmhpComplianceOnMcpsIndication+0x94>
 8006d0e:	2a07      	cmp	r2, #7
 8006d10:	d1f7      	bne.n	8006d02 <LmhpComplianceOnMcpsIndication+0x182>
 8006d12:	2206      	movs	r2, #6
 8006d14:	f88d 200c 	strb.w	r2, [sp, #12]
 8006d18:	f8b3 2001 	ldrh.w	r2, [r3, #1]
 8006d1c:	ba52      	rev16	r2, r2
 8006d1e:	f8ad 2010 	strh.w	r2, [sp, #16]
 8006d22:	791a      	ldrb	r2, [r3, #4]
 8006d24:	78d9      	ldrb	r1, [r3, #3]
 8006d26:	0212      	lsls	r2, r2, #8
 8006d28:	ea42 4201 	orr.w	r2, r2, r1, lsl #16
 8006d2c:	7959      	ldrb	r1, [r3, #5]
 8006d2e:	430a      	orrs	r2, r1
 8006d30:	2164      	movs	r1, #100	; 0x64
 8006d32:	434a      	muls	r2, r1
 8006d34:	9205      	str	r2, [sp, #20]
 8006d36:	799b      	ldrb	r3, [r3, #6]
 8006d38:	f88d 3018 	strb.w	r3, [sp, #24]
 8006d3c:	e7e1      	b.n	8006d02 <LmhpComplianceOnMcpsIndication+0x182>
 8006d3e:	230a      	movs	r3, #10
 8006d40:	e7af      	b.n	8006ca2 <LmhpComplianceOnMcpsIndication+0x122>
 8006d42:	2200      	movs	r2, #0
 8006d44:	f88d 200c 	strb.w	r2, [sp, #12]
 8006d48:	785b      	ldrb	r3, [r3, #1]
 8006d4a:	f88d 3010 	strb.w	r3, [sp, #16]
 8006d4e:	a803      	add	r0, sp, #12
 8006d50:	f001 ff70 	bl	8008c34 <LoRaMacMibSetRequestConfirm>
 8006d54:	e75e      	b.n	8006c14 <LmhpComplianceOnMcpsIndication+0x94>
 8006d56:	220d      	movs	r2, #13
 8006d58:	f88d 200c 	strb.w	r2, [sp, #12]
 8006d5c:	785b      	ldrb	r3, [r3, #1]
 8006d5e:	f88d 3010 	strb.w	r3, [sp, #16]
 8006d62:	e7a0      	b.n	8006ca6 <LmhpComplianceOnMcpsIndication+0x126>
 8006d64:	200005e8 	.word	0x200005e8
 8006d68:	20000614 	.word	0x20000614
 8006d6c:	08006b7d 	.word	0x08006b7d
 8006d70:	200005fc 	.word	0x200005fc
 8006d74:	200000d4 	.word	0x200000d4

08006d78 <LmhpCompliancePackageFactory>:
 8006d78:	4800      	ldr	r0, [pc, #0]	; (8006d7c <LmhpCompliancePackageFactory+0x4>)
 8006d7a:	4770      	bx	lr
 8006d7c:	200000d4 	.word	0x200000d4

08006d80 <OnRadioTxTimeout>:
 8006d80:	4a06      	ldr	r2, [pc, #24]	; (8006d9c <OnRadioTxTimeout+0x1c>)
 8006d82:	7813      	ldrb	r3, [r2, #0]
 8006d84:	f043 0304 	orr.w	r3, r3, #4
 8006d88:	7013      	strb	r3, [r2, #0]
 8006d8a:	4b05      	ldr	r3, [pc, #20]	; (8006da0 <OnRadioTxTimeout+0x20>)
 8006d8c:	f8d3 3348 	ldr.w	r3, [r3, #840]	; 0x348
 8006d90:	b113      	cbz	r3, 8006d98 <OnRadioTxTimeout+0x18>
 8006d92:	691b      	ldr	r3, [r3, #16]
 8006d94:	b103      	cbz	r3, 8006d98 <OnRadioTxTimeout+0x18>
 8006d96:	4718      	bx	r3
 8006d98:	4770      	bx	lr
 8006d9a:	bf00      	nop
 8006d9c:	20001468 	.word	0x20001468
 8006da0:	2000146c 	.word	0x2000146c

08006da4 <OnRadioRxError>:
 8006da4:	4a06      	ldr	r2, [pc, #24]	; (8006dc0 <OnRadioRxError+0x1c>)
 8006da6:	7813      	ldrb	r3, [r2, #0]
 8006da8:	f043 0302 	orr.w	r3, r3, #2
 8006dac:	7013      	strb	r3, [r2, #0]
 8006dae:	4b05      	ldr	r3, [pc, #20]	; (8006dc4 <OnRadioRxError+0x20>)
 8006db0:	f8d3 3348 	ldr.w	r3, [r3, #840]	; 0x348
 8006db4:	b113      	cbz	r3, 8006dbc <OnRadioRxError+0x18>
 8006db6:	691b      	ldr	r3, [r3, #16]
 8006db8:	b103      	cbz	r3, 8006dbc <OnRadioRxError+0x18>
 8006dba:	4718      	bx	r3
 8006dbc:	4770      	bx	lr
 8006dbe:	bf00      	nop
 8006dc0:	20001468 	.word	0x20001468
 8006dc4:	2000146c 	.word	0x2000146c

08006dc8 <OnRadioRxTimeout>:
 8006dc8:	4a06      	ldr	r2, [pc, #24]	; (8006de4 <OnRadioRxTimeout+0x1c>)
 8006dca:	7813      	ldrb	r3, [r2, #0]
 8006dcc:	f043 0301 	orr.w	r3, r3, #1
 8006dd0:	7013      	strb	r3, [r2, #0]
 8006dd2:	4b05      	ldr	r3, [pc, #20]	; (8006de8 <OnRadioRxTimeout+0x20>)
 8006dd4:	f8d3 3348 	ldr.w	r3, [r3, #840]	; 0x348
 8006dd8:	b113      	cbz	r3, 8006de0 <OnRadioRxTimeout+0x18>
 8006dda:	691b      	ldr	r3, [r3, #16]
 8006ddc:	b103      	cbz	r3, 8006de0 <OnRadioRxTimeout+0x18>
 8006dde:	4718      	bx	r3
 8006de0:	4770      	bx	lr
 8006de2:	bf00      	nop
 8006de4:	20001468 	.word	0x20001468
 8006de8:	2000146c 	.word	0x2000146c

08006dec <UpdateRxSlotIdleState>:
 8006dec:	4b04      	ldr	r3, [pc, #16]	; (8006e00 <UpdateRxSlotIdleState+0x14>)
 8006dee:	4a05      	ldr	r2, [pc, #20]	; (8006e04 <UpdateRxSlotIdleState+0x18>)
 8006df0:	f893 3104 	ldrb.w	r3, [r3, #260]	; 0x104
 8006df4:	2b02      	cmp	r3, #2
 8006df6:	bf18      	it	ne
 8006df8:	2306      	movne	r3, #6
 8006dfa:	f882 3484 	strb.w	r3, [r2, #1156]	; 0x484
 8006dfe:	4770      	bx	lr
 8006e00:	20000d40 	.word	0x20000d40
 8006e04:	2000146c 	.word	0x2000146c

08006e08 <GetMaxAppPayloadWithoutFOptsLength>:
 8006e08:	b51f      	push	{r0, r1, r2, r3, r4, lr}
 8006e0a:	4b0c      	ldr	r3, [pc, #48]	; (8006e3c <GetMaxAppPayloadWithoutFOptsLength+0x34>)
 8006e0c:	f88d 0009 	strb.w	r0, [sp, #9]
 8006e10:	f893 2074 	ldrb.w	r2, [r3, #116]	; 0x74
 8006e14:	f88d 200a 	strb.w	r2, [sp, #10]
 8006e18:	220d      	movs	r2, #13
 8006e1a:	f88d 2008 	strb.w	r2, [sp, #8]
 8006e1e:	f893 2080 	ldrb.w	r2, [r3, #128]	; 0x80
 8006e22:	b112      	cbz	r2, 8006e2a <GetMaxAppPayloadWithoutFOptsLength+0x22>
 8006e24:	220e      	movs	r2, #14
 8006e26:	f88d 2008 	strb.w	r2, [sp, #8]
 8006e2a:	f893 0040 	ldrb.w	r0, [r3, #64]	; 0x40
 8006e2e:	a902      	add	r1, sp, #8
 8006e30:	f003 fadd 	bl	800a3ee <RegionGetPhyParam>
 8006e34:	b2c0      	uxtb	r0, r0
 8006e36:	b005      	add	sp, #20
 8006e38:	f85d fb04 	ldr.w	pc, [sp], #4
 8006e3c:	20000d40 	.word	0x20000d40

08006e40 <OnAckTimeoutTimerEvent>:
 8006e40:	b510      	push	{r4, lr}
 8006e42:	4c0f      	ldr	r4, [pc, #60]	; (8006e80 <OnAckTimeoutTimerEvent+0x40>)
 8006e44:	f504 707e 	add.w	r0, r4, #1016	; 0x3f8
 8006e48:	f006 feae 	bl	800dba8 <UTIL_TIMER_Stop>
 8006e4c:	f894 3414 	ldrb.w	r3, [r4, #1044]	; 0x414
 8006e50:	b113      	cbz	r3, 8006e58 <OnAckTimeoutTimerEvent+0x18>
 8006e52:	2301      	movs	r3, #1
 8006e54:	f884 3413 	strb.w	r3, [r4, #1043]	; 0x413
 8006e58:	4b0a      	ldr	r3, [pc, #40]	; (8006e84 <OnAckTimeoutTimerEvent+0x44>)
 8006e5a:	f893 3104 	ldrb.w	r3, [r3, #260]	; 0x104
 8006e5e:	2b02      	cmp	r3, #2
 8006e60:	bf02      	ittt	eq
 8006e62:	f894 3485 	ldrbeq.w	r3, [r4, #1157]	; 0x485
 8006e66:	f043 0320 	orreq.w	r3, r3, #32
 8006e6a:	f884 3485 	strbeq.w	r3, [r4, #1157]	; 0x485
 8006e6e:	f8d4 3348 	ldr.w	r3, [r4, #840]	; 0x348
 8006e72:	b123      	cbz	r3, 8006e7e <OnAckTimeoutTimerEvent+0x3e>
 8006e74:	691b      	ldr	r3, [r3, #16]
 8006e76:	b113      	cbz	r3, 8006e7e <OnAckTimeoutTimerEvent+0x3e>
 8006e78:	e8bd 4010 	ldmia.w	sp!, {r4, lr}
 8006e7c:	4718      	bx	r3
 8006e7e:	bd10      	pop	{r4, pc}
 8006e80:	2000146c 	.word	0x2000146c
 8006e84:	20000d40 	.word	0x20000d40

08006e88 <PrepareRxDoneAbort>:
 8006e88:	b510      	push	{r4, lr}
 8006e8a:	4c0c      	ldr	r4, [pc, #48]	; (8006ebc <PrepareRxDoneAbort+0x34>)
 8006e8c:	f8d4 3340 	ldr.w	r3, [r4, #832]	; 0x340
 8006e90:	f043 0380 	orr.w	r3, r3, #128	; 0x80
 8006e94:	f8c4 3340 	str.w	r3, [r4, #832]	; 0x340
 8006e98:	f894 3414 	ldrb.w	r3, [r4, #1044]	; 0x414
 8006e9c:	b113      	cbz	r3, 8006ea4 <PrepareRxDoneAbort+0x1c>
 8006e9e:	2000      	movs	r0, #0
 8006ea0:	f7ff ffce 	bl	8006e40 <OnAckTimeoutTimerEvent>
 8006ea4:	f894 3485 	ldrb.w	r3, [r4, #1157]	; 0x485
 8006ea8:	f023 0322 	bic.w	r3, r3, #34	; 0x22
 8006eac:	f043 0322 	orr.w	r3, r3, #34	; 0x22
 8006eb0:	f884 3485 	strb.w	r3, [r4, #1157]	; 0x485
 8006eb4:	e8bd 4010 	ldmia.w	sp!, {r4, lr}
 8006eb8:	f7ff bf98 	b.w	8006dec <UpdateRxSlotIdleState>
 8006ebc:	2000146c 	.word	0x2000146c

08006ec0 <HandleRadioRxErrorTimeout>:
 8006ec0:	e92d 41f0 	stmdb	sp!, {r4, r5, r6, r7, r8, lr}
 8006ec4:	4d2c      	ldr	r5, [pc, #176]	; (8006f78 <HandleRadioRxErrorTimeout+0xb8>)
 8006ec6:	f895 3104 	ldrb.w	r3, [r5, #260]	; 0x104
 8006eca:	2b02      	cmp	r3, #2
 8006ecc:	4607      	mov	r7, r0
 8006ece:	460e      	mov	r6, r1
 8006ed0:	d002      	beq.n	8006ed8 <HandleRadioRxErrorTimeout+0x18>
 8006ed2:	4b2a      	ldr	r3, [pc, #168]	; (8006f7c <HandleRadioRxErrorTimeout+0xbc>)
 8006ed4:	6adb      	ldr	r3, [r3, #44]	; 0x2c
 8006ed6:	4798      	blx	r3
 8006ed8:	f002 fc01 	bl	80096de <LoRaMacClassBIsBeaconExpected>
 8006edc:	4604      	mov	r4, r0
 8006ede:	b128      	cbz	r0, 8006eec <HandleRadioRxErrorTimeout+0x2c>
 8006ee0:	2002      	movs	r0, #2
 8006ee2:	f002 fbf2 	bl	80096ca <LoRaMacClassBSetBeaconState>
 8006ee6:	2000      	movs	r0, #0
 8006ee8:	f002 fbf4 	bl	80096d4 <LoRaMacClassBBeaconTimerEvent>
 8006eec:	f895 3104 	ldrb.w	r3, [r5, #260]	; 0x104
 8006ef0:	2b01      	cmp	r3, #1
 8006ef2:	d117      	bne.n	8006f24 <HandleRadioRxErrorTimeout+0x64>
 8006ef4:	f002 fbf5 	bl	80096e2 <LoRaMacClassBIsPingExpected>
 8006ef8:	4680      	mov	r8, r0
 8006efa:	b130      	cbz	r0, 8006f0a <HandleRadioRxErrorTimeout+0x4a>
 8006efc:	2000      	movs	r0, #0
 8006efe:	f002 fbe5 	bl	80096cc <LoRaMacClassBSetPingSlotState>
 8006f02:	2000      	movs	r0, #0
 8006f04:	f002 fbe7 	bl	80096d6 <LoRaMacClassBPingSlotTimerEvent>
 8006f08:	4644      	mov	r4, r8
 8006f0a:	f002 fbec 	bl	80096e6 <LoRaMacClassBIsMulticastExpected>
 8006f0e:	b148      	cbz	r0, 8006f24 <HandleRadioRxErrorTimeout+0x64>
 8006f10:	2000      	movs	r0, #0
 8006f12:	f002 fbdc 	bl	80096ce <LoRaMacClassBSetMulticastSlotState>
 8006f16:	2000      	movs	r0, #0
 8006f18:	f002 fbde 	bl	80096d8 <LoRaMacClassBMulticastSlotTimerEvent>
 8006f1c:	e8bd 41f0 	ldmia.w	sp!, {r4, r5, r6, r7, r8, lr}
 8006f20:	f7ff bf64 	b.w	8006dec <UpdateRxSlotIdleState>
 8006f24:	2c00      	cmp	r4, #0
 8006f26:	d1f9      	bne.n	8006f1c <HandleRadioRxErrorTimeout+0x5c>
 8006f28:	4c15      	ldr	r4, [pc, #84]	; (8006f80 <HandleRadioRxErrorTimeout+0xc0>)
 8006f2a:	f894 2484 	ldrb.w	r2, [r4, #1156]	; 0x484
 8006f2e:	f894 3414 	ldrb.w	r3, [r4, #1044]	; 0x414
 8006f32:	b9b2      	cbnz	r2, 8006f62 <HandleRadioRxErrorTimeout+0xa2>
 8006f34:	b10b      	cbz	r3, 8006f3a <HandleRadioRxErrorTimeout+0x7a>
 8006f36:	f884 7439 	strb.w	r7, [r4, #1081]	; 0x439
 8006f3a:	4638      	mov	r0, r7
 8006f3c:	f002 fd7a 	bl	8009a34 <LoRaMacConfirmQueueSetStatusCmn>
 8006f40:	6ae8      	ldr	r0, [r5, #44]	; 0x2c
 8006f42:	f006 fdf7 	bl	800db34 <UTIL_TIMER_GetElapsedTime>
 8006f46:	f8d4 33b4 	ldr.w	r3, [r4, #948]	; 0x3b4
 8006f4a:	4298      	cmp	r0, r3
 8006f4c:	d3e6      	bcc.n	8006f1c <HandleRadioRxErrorTimeout+0x5c>
 8006f4e:	480d      	ldr	r0, [pc, #52]	; (8006f84 <HandleRadioRxErrorTimeout+0xc4>)
 8006f50:	f006 fe2a 	bl	800dba8 <UTIL_TIMER_Stop>
 8006f54:	f894 3485 	ldrb.w	r3, [r4, #1157]	; 0x485
 8006f58:	f043 0320 	orr.w	r3, r3, #32
 8006f5c:	f884 3485 	strb.w	r3, [r4, #1157]	; 0x485
 8006f60:	e7dc      	b.n	8006f1c <HandleRadioRxErrorTimeout+0x5c>
 8006f62:	b10b      	cbz	r3, 8006f68 <HandleRadioRxErrorTimeout+0xa8>
 8006f64:	f884 6439 	strb.w	r6, [r4, #1081]	; 0x439
 8006f68:	4630      	mov	r0, r6
 8006f6a:	f002 fd63 	bl	8009a34 <LoRaMacConfirmQueueSetStatusCmn>
 8006f6e:	f895 3104 	ldrb.w	r3, [r5, #260]	; 0x104
 8006f72:	2b02      	cmp	r3, #2
 8006f74:	d1ee      	bne.n	8006f54 <HandleRadioRxErrorTimeout+0x94>
 8006f76:	e7d1      	b.n	8006f1c <HandleRadioRxErrorTimeout+0x5c>
 8006f78:	20000d40 	.word	0x20000d40
 8006f7c:	0800ee40 	.word	0x0800ee40
 8006f80:	2000146c 	.word	0x2000146c
 8006f84:	20001804 	.word	0x20001804

08006f88 <OnRadioRxDone>:
 8006f88:	e92d 41f0 	stmdb	sp!, {r4, r5, r6, r7, r8, lr}
 8006f8c:	4616      	mov	r6, r2
 8006f8e:	461d      	mov	r5, r3
 8006f90:	4680      	mov	r8, r0
 8006f92:	460f      	mov	r7, r1
 8006f94:	f006 fdc4 	bl	800db20 <UTIL_TIMER_GetCurrentTime>
 8006f98:	4a0a      	ldr	r2, [pc, #40]	; (8006fc4 <OnRadioRxDone+0x3c>)
 8006f9a:	4c0b      	ldr	r4, [pc, #44]	; (8006fc8 <OnRadioRxDone+0x40>)
 8006f9c:	7813      	ldrb	r3, [r2, #0]
 8006f9e:	8127      	strh	r7, [r4, #8]
 8006fa0:	f043 0308 	orr.w	r3, r3, #8
 8006fa4:	7013      	strb	r3, [r2, #0]
 8006fa6:	4b09      	ldr	r3, [pc, #36]	; (8006fcc <OnRadioRxDone+0x44>)
 8006fa8:	8166      	strh	r6, [r4, #10]
 8006faa:	f8d3 3348 	ldr.w	r3, [r3, #840]	; 0x348
 8006fae:	7325      	strb	r5, [r4, #12]
 8006fb0:	e9c4 0800 	strd	r0, r8, [r4]
 8006fb4:	b123      	cbz	r3, 8006fc0 <OnRadioRxDone+0x38>
 8006fb6:	691b      	ldr	r3, [r3, #16]
 8006fb8:	b113      	cbz	r3, 8006fc0 <OnRadioRxDone+0x38>
 8006fba:	e8bd 41f0 	ldmia.w	sp!, {r4, r5, r6, r7, r8, lr}
 8006fbe:	4718      	bx	r3
 8006fc0:	e8bd 81f0 	ldmia.w	sp!, {r4, r5, r6, r7, r8, pc}
 8006fc4:	20001468 	.word	0x20001468
 8006fc8:	20001978 	.word	0x20001978
 8006fcc:	2000146c 	.word	0x2000146c

08006fd0 <OnRadioTxDone>:
 8006fd0:	b537      	push	{r0, r1, r2, r4, r5, lr}
 8006fd2:	f006 fda5 	bl	800db20 <UTIL_TIMER_GetCurrentTime>
 8006fd6:	4b0e      	ldr	r3, [pc, #56]	; (8007010 <OnRadioTxDone+0x40>)
 8006fd8:	4d0e      	ldr	r5, [pc, #56]	; (8007014 <OnRadioTxDone+0x44>)
 8006fda:	6018      	str	r0, [r3, #0]
 8006fdc:	466c      	mov	r4, sp
 8006fde:	4620      	mov	r0, r4
 8006fe0:	f006 fb0e 	bl	800d600 <SysTimeGet>
 8006fe4:	e894 0003 	ldmia.w	r4, {r0, r1}
 8006fe8:	4a0b      	ldr	r2, [pc, #44]	; (8007018 <OnRadioTxDone+0x48>)
 8006fea:	f505 734e 	add.w	r3, r5, #824	; 0x338
 8006fee:	e883 0003 	stmia.w	r3, {r0, r1}
 8006ff2:	7813      	ldrb	r3, [r2, #0]
 8006ff4:	f043 0310 	orr.w	r3, r3, #16
 8006ff8:	7013      	strb	r3, [r2, #0]
 8006ffa:	f8d5 3348 	ldr.w	r3, [r5, #840]	; 0x348
 8006ffe:	b12b      	cbz	r3, 800700c <OnRadioTxDone+0x3c>
 8007000:	691b      	ldr	r3, [r3, #16]
 8007002:	b11b      	cbz	r3, 800700c <OnRadioTxDone+0x3c>
 8007004:	b003      	add	sp, #12
 8007006:	e8bd 4030 	ldmia.w	sp!, {r4, r5, lr}
 800700a:	4718      	bx	r3
 800700c:	b003      	add	sp, #12
 800700e:	bd30      	pop	{r4, r5, pc}
 8007010:	20001988 	.word	0x20001988
 8007014:	2000146c 	.word	0x2000146c
 8007018:	20001468 	.word	0x20001468

0800701c <ResetMacParameters>:
 800701c:	b5f0      	push	{r4, r5, r6, r7, lr}
 800701e:	4c40      	ldr	r4, [pc, #256]	; (8007120 <ResetMacParameters+0x104>)
 8007020:	4d40      	ldr	r5, [pc, #256]	; (8007124 <ResetMacParameters+0x108>)
 8007022:	f8b4 20cc 	ldrh.w	r2, [r4, #204]	; 0xcc
 8007026:	8722      	strh	r2, [r4, #56]	; 0x38
 8007028:	e9d4 012a 	ldrd	r0, r1, [r4, #168]	; 0xa8
 800702c:	f894 20a5 	ldrb.w	r2, [r4, #165]	; 0xa5
 8007030:	f884 2061 	strb.w	r2, [r4, #97]	; 0x61
 8007034:	f104 0264 	add.w	r2, r4, #100	; 0x64
 8007038:	e882 0003 	stmia.w	r2, {r0, r1}
 800703c:	e9d4 012c 	ldrd	r0, r1, [r4, #176]	; 0xb0
 8007040:	f104 026c 	add.w	r2, r4, #108	; 0x6c
 8007044:	b08f      	sub	sp, #60	; 0x3c
 8007046:	e882 0003 	stmia.w	r2, {r0, r1}
 800704a:	f8b4 20b8 	ldrh.w	r2, [r4, #184]	; 0xb8
 800704e:	f8a4 2074 	strh.w	r2, [r4, #116]	; 0x74
 8007052:	2301      	movs	r3, #1
 8007054:	f8d4 20bc 	ldr.w	r2, [r4, #188]	; 0xbc
 8007058:	f8a4 310a 	strh.w	r3, [r4, #266]	; 0x10a
 800705c:	67a2      	str	r2, [r4, #120]	; 0x78
 800705e:	f88d 3014 	strb.w	r3, [sp, #20]
 8007062:	f8d4 20c0 	ldr.w	r2, [r4, #192]	; 0xc0
 8007066:	f894 0040 	ldrb.w	r0, [r4, #64]	; 0x40
 800706a:	67e2      	str	r2, [r4, #124]	; 0x7c
 800706c:	f504 73f0 	add.w	r3, r4, #480	; 0x1e0
 8007070:	2600      	movs	r6, #0
 8007072:	4a2d      	ldr	r2, [pc, #180]	; (8007128 <ResetMacParameters+0x10c>)
 8007074:	9303      	str	r3, [sp, #12]
 8007076:	a903      	add	r1, sp, #12
 8007078:	f504 731d 	add.w	r3, r4, #628	; 0x274
 800707c:	f884 6118 	strb.w	r6, [r4, #280]	; 0x118
 8007080:	62a6      	str	r6, [r4, #40]	; 0x28
 8007082:	f884 6107 	strb.w	r6, [r4, #263]	; 0x107
 8007086:	f8c5 2410 	str.w	r2, [r5, #1040]	; 0x410
 800708a:	f884 603a 	strb.w	r6, [r4, #58]	; 0x3a
 800708e:	9304      	str	r3, [sp, #16]
 8007090:	f885 6414 	strb.w	r6, [r5, #1044]	; 0x414
 8007094:	f003 f9bb 	bl	800a40e <RegionInitDefaults>
 8007098:	6e63      	ldr	r3, [r4, #100]	; 0x64
 800709a:	f8c5 33d0 	str.w	r3, [r5, #976]	; 0x3d0
 800709e:	f894 3075 	ldrb.w	r3, [r4, #117]	; 0x75
 80070a2:	f885 33dc 	strb.w	r3, [r5, #988]	; 0x3dc
 80070a6:	f894 3080 	ldrb.w	r3, [r4, #128]	; 0x80
 80070aa:	f885 33dd 	strb.w	r3, [r5, #989]	; 0x3dd
 80070ae:	f44f 7380 	mov.w	r3, #256	; 0x100
 80070b2:	f8a5 33de 	strh.w	r3, [r5, #990]	; 0x3de
 80070b6:	f885 63cc 	strb.w	r6, [r5, #972]	; 0x3cc
 80070ba:	f505 7773 	add.w	r7, r5, #972	; 0x3cc
 80070be:	cf0f      	ldmia	r7!, {r0, r1, r2, r3}
 80070c0:	f505 7478 	add.w	r4, r5, #992	; 0x3e0
 80070c4:	c40f      	stmia	r4!, {r0, r1, r2, r3}
 80070c6:	683b      	ldr	r3, [r7, #0]
 80070c8:	6023      	str	r3, [r4, #0]
 80070ca:	f240 2301 	movw	r3, #513	; 0x201
 80070ce:	f8a5 33f2 	strh.w	r3, [r5, #1010]	; 0x3f2
 80070d2:	f8d5 3348 	ldr.w	r3, [r5, #840]	; 0x348
 80070d6:	f885 6415 	strb.w	r6, [r5, #1045]	; 0x415
 80070da:	e9cd 6601 	strd	r6, r6, [sp, #4]
 80070de:	b11b      	cbz	r3, 80070e8 <ResetMacParameters+0xcc>
 80070e0:	685a      	ldr	r2, [r3, #4]
 80070e2:	691b      	ldr	r3, [r3, #16]
 80070e4:	9201      	str	r2, [sp, #4]
 80070e6:	9302      	str	r3, [sp, #8]
 80070e8:	4b10      	ldr	r3, [pc, #64]	; (800712c <ResetMacParameters+0x110>)
 80070ea:	9306      	str	r3, [sp, #24]
 80070ec:	f1a3 0244 	sub.w	r2, r3, #68	; 0x44
 80070f0:	9207      	str	r2, [sp, #28]
 80070f2:	f1a3 0214 	sub.w	r2, r3, #20
 80070f6:	9208      	str	r2, [sp, #32]
 80070f8:	4a0d      	ldr	r2, [pc, #52]	; (8007130 <ResetMacParameters+0x114>)
 80070fa:	920a      	str	r2, [sp, #40]	; 0x28
 80070fc:	3325      	adds	r3, #37	; 0x25
 80070fe:	9309      	str	r3, [sp, #36]	; 0x24
 8007100:	f1a2 0394 	sub.w	r3, r2, #148	; 0x94
 8007104:	930b      	str	r3, [sp, #44]	; 0x2c
 8007106:	f1a2 0390 	sub.w	r3, r2, #144	; 0x90
 800710a:	930c      	str	r3, [sp, #48]	; 0x30
 800710c:	a901      	add	r1, sp, #4
 800710e:	1d13      	adds	r3, r2, #4
 8007110:	a806      	add	r0, sp, #24
 8007112:	f202 623c 	addw	r2, r2, #1596	; 0x63c
 8007116:	930d      	str	r3, [sp, #52]	; 0x34
 8007118:	f002 fad6 	bl	80096c8 <LoRaMacClassBInit>
 800711c:	b00f      	add	sp, #60	; 0x3c
 800711e:	bdf0      	pop	{r4, r5, r6, r7, pc}
 8007120:	20000d40 	.word	0x20000d40
 8007124:	2000146c 	.word	0x2000146c
 8007128:	00010100 	.word	0x00010100
 800712c:	200018cc 	.word	0x200018cc
 8007130:	20000e14 	.word	0x20000e14

08007134 <ScheduleTx>:
 8007134:	e92d 41f0 	stmdb	sp!, {r4, r5, r6, r7, r8, lr}
 8007138:	b092      	sub	sp, #72	; 0x48
 800713a:	4607      	mov	r7, r0
 800713c:	f002 facf 	bl	80096de <LoRaMacClassBIsBeaconExpected>
 8007140:	2800      	cmp	r0, #0
 8007142:	f040 8154 	bne.w	80073ee <ScheduleTx+0x2ba>
 8007146:	4dab      	ldr	r5, [pc, #684]	; (80073f4 <ScheduleTx+0x2c0>)
 8007148:	f895 3104 	ldrb.w	r3, [r5, #260]	; 0x104
 800714c:	2b01      	cmp	r3, #1
 800714e:	d009      	beq.n	8007164 <ScheduleTx+0x30>
 8007150:	6b2b      	ldr	r3, [r5, #48]	; 0x30
 8007152:	4ca9      	ldr	r4, [pc, #676]	; (80073f8 <ScheduleTx+0x2c4>)
 8007154:	b19b      	cbz	r3, 800717e <ScheduleTx+0x4a>
 8007156:	f894 3104 	ldrb.w	r3, [r4, #260]	; 0x104
 800715a:	b1c3      	cbz	r3, 800718e <ScheduleTx+0x5a>
 800715c:	2b04      	cmp	r3, #4
 800715e:	d071      	beq.n	8007244 <ScheduleTx+0x110>
 8007160:	2603      	movs	r6, #3
 8007162:	e003      	b.n	800716c <ScheduleTx+0x38>
 8007164:	f002 fabd 	bl	80096e2 <LoRaMacClassBIsPingExpected>
 8007168:	b120      	cbz	r0, 8007174 <ScheduleTx+0x40>
 800716a:	260f      	movs	r6, #15
 800716c:	4630      	mov	r0, r6
 800716e:	b012      	add	sp, #72	; 0x48
 8007170:	e8bd 81f0 	ldmia.w	sp!, {r4, r5, r6, r7, r8, pc}
 8007174:	f002 fab7 	bl	80096e6 <LoRaMacClassBIsMulticastExpected>
 8007178:	2800      	cmp	r0, #0
 800717a:	d0e9      	beq.n	8007150 <ScheduleTx+0x1c>
 800717c:	e7f5      	b.n	800716a <ScheduleTx+0x36>
 800717e:	f8b5 310a 	ldrh.w	r3, [r5, #266]	; 0x10a
 8007182:	f8d4 2418 	ldr.w	r2, [r4, #1048]	; 0x418
 8007186:	3b01      	subs	r3, #1
 8007188:	4353      	muls	r3, r2
 800718a:	632b      	str	r3, [r5, #48]	; 0x30
 800718c:	e7e3      	b.n	8007156 <ScheduleTx+0x22>
 800718e:	489b      	ldr	r0, [pc, #620]	; (80073fc <ScheduleTx+0x2c8>)
 8007190:	f003 f889 	bl	800a2a6 <LoRaMacSerializerJoinRequest>
 8007194:	2800      	cmp	r0, #0
 8007196:	f040 8126 	bne.w	80073e6 <ScheduleTx+0x2b2>
 800719a:	f894 310c 	ldrb.w	r3, [r4, #268]	; 0x10c
 800719e:	8023      	strh	r3, [r4, #0]
 80071a0:	6b2b      	ldr	r3, [r5, #48]	; 0x30
 80071a2:	930c      	str	r3, [sp, #48]	; 0x30
 80071a4:	f10d 0818 	add.w	r8, sp, #24
 80071a8:	f895 3039 	ldrb.w	r3, [r5, #57]	; 0x39
 80071ac:	f88d 3038 	strb.w	r3, [sp, #56]	; 0x38
 80071b0:	4640      	mov	r0, r8
 80071b2:	f895 3108 	ldrb.w	r3, [r5, #264]	; 0x108
 80071b6:	f88d 303a 	strb.w	r3, [sp, #58]	; 0x3a
 80071ba:	f006 fa47 	bl	800d64c <SysTimeGetMcuTime>
 80071be:	f8d5 3110 	ldr.w	r3, [r5, #272]	; 0x110
 80071c2:	9300      	str	r3, [sp, #0]
 80071c4:	ae02      	add	r6, sp, #8
 80071c6:	e898 0006 	ldmia.w	r8, {r1, r2}
 80071ca:	f8d5 310c 	ldr.w	r3, [r5, #268]	; 0x10c
 80071ce:	4630      	mov	r0, r6
 80071d0:	f006 f9d3 	bl	800d57a <SysTimeSub>
 80071d4:	e896 0003 	ldmia.w	r6, {r0, r1}
 80071d8:	ab0f      	add	r3, sp, #60	; 0x3c
 80071da:	e883 0003 	stmia.w	r3, {r0, r1}
 80071de:	6aeb      	ldr	r3, [r5, #44]	; 0x2c
 80071e0:	930d      	str	r3, [sp, #52]	; 0x34
 80071e2:	2300      	movs	r3, #0
 80071e4:	f88d 3044 	strb.w	r3, [sp, #68]	; 0x44
 80071e8:	8823      	ldrh	r3, [r4, #0]
 80071ea:	f8ad 3046 	strh.w	r3, [sp, #70]	; 0x46
 80071ee:	f895 3118 	ldrb.w	r3, [r5, #280]	; 0x118
 80071f2:	2201      	movs	r2, #1
 80071f4:	f88d 2039 	strb.w	r2, [sp, #57]	; 0x39
 80071f8:	b91b      	cbnz	r3, 8007202 <ScheduleTx+0xce>
 80071fa:	f88d 2044 	strb.w	r2, [sp, #68]	; 0x44
 80071fe:	f88d 3039 	strb.w	r3, [sp, #57]	; 0x39
 8007202:	4b7f      	ldr	r3, [pc, #508]	; (8007400 <ScheduleTx+0x2cc>)
 8007204:	9300      	str	r3, [sp, #0]
 8007206:	4b7f      	ldr	r3, [pc, #508]	; (8007404 <ScheduleTx+0x2d0>)
 8007208:	f895 0040 	ldrb.w	r0, [r5, #64]	; 0x40
 800720c:	f1a3 0273 	sub.w	r2, r3, #115	; 0x73
 8007210:	a90c      	add	r1, sp, #48	; 0x30
 8007212:	f003 f970 	bl	800a4f6 <RegionNextChannel>
 8007216:	4606      	mov	r6, r0
 8007218:	b1c0      	cbz	r0, 800724c <ScheduleTx+0x118>
 800721a:	280b      	cmp	r0, #11
 800721c:	d1a6      	bne.n	800716c <ScheduleTx+0x38>
 800721e:	2f00      	cmp	r7, #0
 8007220:	d0a4      	beq.n	800716c <ScheduleTx+0x38>
 8007222:	f8d4 1488 	ldr.w	r1, [r4, #1160]	; 0x488
 8007226:	b159      	cbz	r1, 8007240 <ScheduleTx+0x10c>
 8007228:	f8d4 3340 	ldr.w	r3, [r4, #832]	; 0x340
 800722c:	4876      	ldr	r0, [pc, #472]	; (8007408 <ScheduleTx+0x2d4>)
 800722e:	f043 0320 	orr.w	r3, r3, #32
 8007232:	f8c4 3340 	str.w	r3, [r4, #832]	; 0x340
 8007236:	f006 fd41 	bl	800dcbc <UTIL_TIMER_SetPeriod>
 800723a:	4873      	ldr	r0, [pc, #460]	; (8007408 <ScheduleTx+0x2d4>)
 800723c:	f006 fd04 	bl	800dc48 <UTIL_TIMER_Start>
 8007240:	2600      	movs	r6, #0
 8007242:	e793      	b.n	800716c <ScheduleTx+0x38>
 8007244:	486d      	ldr	r0, [pc, #436]	; (80073fc <ScheduleTx+0x2c8>)
 8007246:	f003 f862 	bl	800a30e <LoRaMacSerializerData>
 800724a:	e7a3      	b.n	8007194 <ScheduleTx+0x60>
 800724c:	f895 8040 	ldrb.w	r8, [r5, #64]	; 0x40
 8007250:	f995 3061 	ldrsb.w	r3, [r5, #97]	; 0x61
 8007254:	f995 2039 	ldrsb.w	r2, [r5, #57]	; 0x39
 8007258:	f895 1075 	ldrb.w	r1, [r5, #117]	; 0x75
 800725c:	4f6b      	ldr	r7, [pc, #428]	; (800740c <ScheduleTx+0x2d8>)
 800725e:	4640      	mov	r0, r8
 8007260:	f003 f95d 	bl	800a51e <RegionApplyDrOffset>
 8007264:	9700      	str	r7, [sp, #0]
 8007266:	b241      	sxtb	r1, r0
 8007268:	6c6b      	ldr	r3, [r5, #68]	; 0x44
 800726a:	f895 2048 	ldrb.w	r2, [r5, #72]	; 0x48
 800726e:	4640      	mov	r0, r8
 8007270:	3714      	adds	r7, #20
 8007272:	f003 f8e8 	bl	800a446 <RegionComputeRxWindowParameters>
 8007276:	9700      	str	r7, [sp, #0]
 8007278:	6c6b      	ldr	r3, [r5, #68]	; 0x44
 800727a:	f995 1068 	ldrsb.w	r1, [r5, #104]	; 0x68
 800727e:	f895 0040 	ldrb.w	r0, [r5, #64]	; 0x40
 8007282:	f895 2048 	ldrb.w	r2, [r5, #72]	; 0x48
 8007286:	f003 f8de 	bl	800a446 <RegionComputeRxWindowParameters>
 800728a:	f8d4 03d8 	ldr.w	r0, [r4, #984]	; 0x3d8
 800728e:	6d69      	ldr	r1, [r5, #84]	; 0x54
 8007290:	f8d4 73c4 	ldr.w	r7, [r4, #964]	; 0x3c4
 8007294:	6d2b      	ldr	r3, [r5, #80]	; 0x50
 8007296:	4401      	add	r1, r0
 8007298:	f8c4 13b4 	str.w	r1, [r4, #948]	; 0x3b4
 800729c:	f895 1118 	ldrb.w	r1, [r5, #280]	; 0x118
 80072a0:	443b      	add	r3, r7
 80072a2:	f8c4 33b0 	str.w	r3, [r4, #944]	; 0x3b0
 80072a6:	b939      	cbnz	r1, 80072b8 <ScheduleTx+0x184>
 80072a8:	6daa      	ldr	r2, [r5, #88]	; 0x58
 80072aa:	6deb      	ldr	r3, [r5, #92]	; 0x5c
 80072ac:	443a      	add	r2, r7
 80072ae:	4403      	add	r3, r0
 80072b0:	f8c4 23b0 	str.w	r2, [r4, #944]	; 0x3b0
 80072b4:	f8c4 33b4 	str.w	r3, [r4, #948]	; 0x3b4
 80072b8:	2300      	movs	r3, #0
 80072ba:	9308      	str	r3, [sp, #32]
 80072bc:	b181      	cbz	r1, 80072e0 <ScheduleTx+0x1ac>
 80072be:	a808      	add	r0, sp, #32
 80072c0:	f002 fad4 	bl	800986c <LoRaMacCommandsGetSizeSerializedCmds>
 80072c4:	2800      	cmp	r0, #0
 80072c6:	d148      	bne.n	800735a <ScheduleTx+0x226>
 80072c8:	f995 0039 	ldrsb.w	r0, [r5, #57]	; 0x39
 80072cc:	f894 7237 	ldrb.w	r7, [r4, #567]	; 0x237
 80072d0:	f89d 8020 	ldrb.w	r8, [sp, #32]
 80072d4:	f7ff fd98 	bl	8006e08 <GetMaxAppPayloadWithoutFOptsLength>
 80072d8:	4447      	add	r7, r8
 80072da:	b280      	uxth	r0, r0
 80072dc:	42b8      	cmp	r0, r7
 80072de:	d33a      	bcc.n	8007356 <ScheduleTx+0x222>
 80072e0:	2300      	movs	r3, #0
 80072e2:	f88d 3013 	strb.w	r3, [sp, #19]
 80072e6:	f895 3039 	ldrb.w	r3, [r5, #57]	; 0x39
 80072ea:	f88d 3021 	strb.w	r3, [sp, #33]	; 0x21
 80072ee:	f895 3038 	ldrb.w	r3, [r5, #56]	; 0x38
 80072f2:	f88d 3022 	strb.w	r3, [sp, #34]	; 0x22
 80072f6:	6fab      	ldr	r3, [r5, #120]	; 0x78
 80072f8:	9309      	str	r3, [sp, #36]	; 0x24
 80072fa:	6feb      	ldr	r3, [r5, #124]	; 0x7c
 80072fc:	930a      	str	r3, [sp, #40]	; 0x28
 80072fe:	8823      	ldrh	r3, [r4, #0]
 8007300:	f894 7415 	ldrb.w	r7, [r4, #1045]	; 0x415
 8007304:	f8ad 302c 	strh.w	r3, [sp, #44]	; 0x2c
 8007308:	f895 0040 	ldrb.w	r0, [r5, #64]	; 0x40
 800730c:	4b40      	ldr	r3, [pc, #256]	; (8007410 <ScheduleTx+0x2dc>)
 800730e:	f88d 7020 	strb.w	r7, [sp, #32]
 8007312:	f10d 0213 	add.w	r2, sp, #19
 8007316:	a908      	add	r1, sp, #32
 8007318:	f003 f8ab 	bl	800a472 <RegionTxConfig>
 800731c:	2301      	movs	r3, #1
 800731e:	f884 3439 	strb.w	r3, [r4, #1081]	; 0x439
 8007322:	f895 3039 	ldrb.w	r3, [r5, #57]	; 0x39
 8007326:	f884 343a 	strb.w	r3, [r4, #1082]	; 0x43a
 800732a:	f89d 3013 	ldrb.w	r3, [sp, #19]
 800732e:	f884 343b 	strb.w	r3, [r4, #1083]	; 0x43b
 8007332:	f8d4 3418 	ldr.w	r3, [r4, #1048]	; 0x418
 8007336:	f8c4 7448 	str.w	r7, [r4, #1096]	; 0x448
 800733a:	f8c4 3440 	str.w	r3, [r4, #1088]	; 0x440
 800733e:	f8c4 3450 	str.w	r3, [r4, #1104]	; 0x450
 8007342:	f002 f9d2 	bl	80096ea <LoRaMacClassBIsBeaconModeActive>
 8007346:	b150      	cbz	r0, 800735e <ScheduleTx+0x22a>
 8007348:	f8d4 0418 	ldr.w	r0, [r4, #1048]	; 0x418
 800734c:	f002 f9df 	bl	800970e <LoRaMacClassBIsUplinkCollision>
 8007350:	b128      	cbz	r0, 800735e <ScheduleTx+0x22a>
 8007352:	2610      	movs	r6, #16
 8007354:	e70a      	b.n	800716c <ScheduleTx+0x38>
 8007356:	2608      	movs	r6, #8
 8007358:	e708      	b.n	800716c <ScheduleTx+0x38>
 800735a:	2613      	movs	r6, #19
 800735c:	e706      	b.n	800716c <ScheduleTx+0x38>
 800735e:	f895 3104 	ldrb.w	r3, [r5, #260]	; 0x104
 8007362:	2b01      	cmp	r3, #1
 8007364:	d101      	bne.n	800736a <ScheduleTx+0x236>
 8007366:	f002 f9d4 	bl	8009712 <LoRaMacClassBStopRxSlots>
 800736a:	f002 f9c1 	bl	80096f0 <LoRaMacClassBHaltBeaconing>
 800736e:	2300      	movs	r3, #0
 8007370:	9305      	str	r3, [sp, #20]
 8007372:	f894 3104 	ldrb.w	r3, [r4, #260]	; 0x104
 8007376:	f995 5039 	ldrsb.w	r5, [r5, #57]	; 0x39
 800737a:	f894 7415 	ldrb.w	r7, [r4, #1045]	; 0x415
 800737e:	b1bb      	cbz	r3, 80073b0 <ScheduleTx+0x27c>
 8007380:	2b04      	cmp	r3, #4
 8007382:	f47f aeed 	bne.w	8007160 <ScheduleTx+0x2c>
 8007386:	a805      	add	r0, sp, #20
 8007388:	f002 fce8 	bl	8009d5c <LoRaMacCryptoGetFCntUp>
 800738c:	bb68      	cbnz	r0, 80073ea <ScheduleTx+0x2b6>
 800738e:	f894 3410 	ldrb.w	r3, [r4, #1040]	; 0x410
 8007392:	b91b      	cbnz	r3, 800739c <ScheduleTx+0x268>
 8007394:	f894 3412 	ldrb.w	r3, [r4, #1042]	; 0x412
 8007398:	2b01      	cmp	r3, #1
 800739a:	d902      	bls.n	80073a2 <ScheduleTx+0x26e>
 800739c:	9b05      	ldr	r3, [sp, #20]
 800739e:	3b01      	subs	r3, #1
 80073a0:	9305      	str	r3, [sp, #20]
 80073a2:	4b16      	ldr	r3, [pc, #88]	; (80073fc <ScheduleTx+0x2c8>)
 80073a4:	9805      	ldr	r0, [sp, #20]
 80073a6:	463a      	mov	r2, r7
 80073a8:	b2e9      	uxtb	r1, r5
 80073aa:	f002 fd4d 	bl	8009e48 <LoRaMacCryptoSecureMessage>
 80073ae:	e002      	b.n	80073b6 <ScheduleTx+0x282>
 80073b0:	4812      	ldr	r0, [pc, #72]	; (80073fc <ScheduleTx+0x2c8>)
 80073b2:	f002 fd21 	bl	8009df8 <LoRaMacCryptoPrepareJoinRequest>
 80073b6:	b9b0      	cbnz	r0, 80073e6 <ScheduleTx+0x2b2>
 80073b8:	f894 310c 	ldrb.w	r3, [r4, #268]	; 0x10c
 80073bc:	8023      	strh	r3, [r4, #0]
 80073be:	f8d4 3340 	ldr.w	r3, [r4, #832]	; 0x340
 80073c2:	f043 0302 	orr.w	r3, r3, #2
 80073c6:	f8c4 3340 	str.w	r3, [r4, #832]	; 0x340
 80073ca:	f894 3414 	ldrb.w	r3, [r4, #1044]	; 0x414
 80073ce:	b923      	cbnz	r3, 80073da <ScheduleTx+0x2a6>
 80073d0:	f894 3410 	ldrb.w	r3, [r4, #1040]	; 0x410
 80073d4:	3301      	adds	r3, #1
 80073d6:	f884 3410 	strb.w	r3, [r4, #1040]	; 0x410
 80073da:	4b0e      	ldr	r3, [pc, #56]	; (8007414 <ScheduleTx+0x2e0>)
 80073dc:	7821      	ldrb	r1, [r4, #0]
 80073de:	480e      	ldr	r0, [pc, #56]	; (8007418 <ScheduleTx+0x2e4>)
 80073e0:	6a9b      	ldr	r3, [r3, #40]	; 0x28
 80073e2:	4798      	blx	r3
 80073e4:	e6c2      	b.n	800716c <ScheduleTx+0x38>
 80073e6:	2611      	movs	r6, #17
 80073e8:	e6c0      	b.n	800716c <ScheduleTx+0x38>
 80073ea:	2612      	movs	r6, #18
 80073ec:	e6be      	b.n	800716c <ScheduleTx+0x38>
 80073ee:	260e      	movs	r6, #14
 80073f0:	e6bc      	b.n	800716c <ScheduleTx+0x38>
 80073f2:	bf00      	nop
 80073f4:	20000d40 	.word	0x20000d40
 80073f8:	2000146c 	.word	0x2000146c
 80073fc:	20001574 	.word	0x20001574
 8007400:	20000d70 	.word	0x20000d70
 8007404:	200018f4 	.word	0x200018f4
 8007408:	200017d4 	.word	0x200017d4
 800740c:	20001824 	.word	0x20001824
 8007410:	20001884 	.word	0x20001884
 8007414:	0800ee40 	.word	0x0800ee40
 8007418:	2000146e 	.word	0x2000146e

0800741c <OpenContinuousRxCWindow>:
 800741c:	b573      	push	{r0, r1, r4, r5, r6, lr}
 800741e:	4c14      	ldr	r4, [pc, #80]	; (8007470 <OpenContinuousRxCWindow+0x54>)
 8007420:	4d14      	ldr	r5, [pc, #80]	; (8007474 <OpenContinuousRxCWindow+0x58>)
 8007422:	f504 7678 	add.w	r6, r4, #992	; 0x3e0
 8007426:	6c6b      	ldr	r3, [r5, #68]	; 0x44
 8007428:	f895 2048 	ldrb.w	r2, [r5, #72]	; 0x48
 800742c:	f995 1070 	ldrsb.w	r1, [r5, #112]	; 0x70
 8007430:	f895 0040 	ldrb.w	r0, [r5, #64]	; 0x40
 8007434:	9600      	str	r6, [sp, #0]
 8007436:	f003 f806 	bl	800a446 <RegionComputeRxWindowParameters>
 800743a:	f240 2301 	movw	r3, #513	; 0x201
 800743e:	f895 0040 	ldrb.w	r0, [r5, #64]	; 0x40
 8007442:	f8a4 33f2 	strh.w	r3, [r4, #1010]	; 0x3f2
 8007446:	f504 6284 	add.w	r2, r4, #1056	; 0x420
 800744a:	4631      	mov	r1, r6
 800744c:	f003 f808 	bl	800a460 <RegionRxConfig>
 8007450:	b158      	cbz	r0, 800746a <OpenContinuousRxCWindow+0x4e>
 8007452:	f894 3420 	ldrb.w	r3, [r4, #1056]	; 0x420
 8007456:	f884 3462 	strb.w	r3, [r4, #1122]	; 0x462
 800745a:	4b07      	ldr	r3, [pc, #28]	; (8007478 <OpenContinuousRxCWindow+0x5c>)
 800745c:	2000      	movs	r0, #0
 800745e:	6b5b      	ldr	r3, [r3, #52]	; 0x34
 8007460:	4798      	blx	r3
 8007462:	f894 33f3 	ldrb.w	r3, [r4, #1011]	; 0x3f3
 8007466:	f884 3484 	strb.w	r3, [r4, #1156]	; 0x484
 800746a:	b002      	add	sp, #8
 800746c:	bd70      	pop	{r4, r5, r6, pc}
 800746e:	bf00      	nop
 8007470:	2000146c 	.word	0x2000146c
 8007474:	20000d40 	.word	0x20000d40
 8007478:	0800ee40 	.word	0x0800ee40

0800747c <SwitchClass>:
 800747c:	b5f8      	push	{r3, r4, r5, r6, r7, lr}
 800747e:	4d2f      	ldr	r5, [pc, #188]	; (800753c <SwitchClass+0xc0>)
 8007480:	f895 4104 	ldrb.w	r4, [r5, #260]	; 0x104
 8007484:	2c01      	cmp	r4, #1
 8007486:	4606      	mov	r6, r0
 8007488:	d046      	beq.n	8007518 <SwitchClass+0x9c>
 800748a:	2c02      	cmp	r4, #2
 800748c:	d04c      	beq.n	8007528 <SwitchClass+0xac>
 800748e:	b934      	cbnz	r4, 800749e <SwitchClass+0x22>
 8007490:	b938      	cbnz	r0, 80074a2 <SwitchClass+0x26>
 8007492:	e9d5 0119 	ldrd	r0, r1, [r5, #100]	; 0x64
 8007496:	f105 036c 	add.w	r3, r5, #108	; 0x6c
 800749a:	e883 0003 	stmia.w	r3, {r0, r1}
 800749e:	2403      	movs	r4, #3
 80074a0:	e038      	b.n	8007514 <SwitchClass+0x98>
 80074a2:	2801      	cmp	r0, #1
 80074a4:	d038      	beq.n	8007518 <SwitchClass+0x9c>
 80074a6:	2802      	cmp	r0, #2
 80074a8:	d1f9      	bne.n	800749e <SwitchClass+0x22>
 80074aa:	4f25      	ldr	r7, [pc, #148]	; (8007540 <SwitchClass+0xc4>)
 80074ac:	f885 0104 	strb.w	r0, [r5, #260]	; 0x104
 80074b0:	f507 7e73 	add.w	lr, r7, #972	; 0x3cc
 80074b4:	e8be 000f 	ldmia.w	lr!, {r0, r1, r2, r3}
 80074b8:	f507 7c78 	add.w	ip, r7, #992	; 0x3e0
 80074bc:	e8ac 000f 	stmia.w	ip!, {r0, r1, r2, r3}
 80074c0:	f8de 3000 	ldr.w	r3, [lr]
 80074c4:	f8cc 3000 	str.w	r3, [ip]
 80074c8:	f895 30da 	ldrb.w	r3, [r5, #218]	; 0xda
 80074cc:	f887 63f3 	strb.w	r6, [r7, #1011]	; 0x3f3
 80074d0:	b1c3      	cbz	r3, 8007504 <SwitchClass+0x88>
 80074d2:	f8d5 30f0 	ldr.w	r3, [r5, #240]	; 0xf0
 80074d6:	66eb      	str	r3, [r5, #108]	; 0x6c
 80074d8:	f8c7 33e4 	str.w	r3, [r7, #996]	; 0x3e4
 80074dc:	f895 3075 	ldrb.w	r3, [r5, #117]	; 0x75
 80074e0:	f895 20f4 	ldrb.w	r2, [r5, #244]	; 0xf4
 80074e4:	f887 33f0 	strb.w	r3, [r7, #1008]	; 0x3f0
 80074e8:	f895 3080 	ldrb.w	r3, [r5, #128]	; 0x80
 80074ec:	f885 2070 	strb.w	r2, [r5, #112]	; 0x70
 80074f0:	f887 33f1 	strb.w	r3, [r7, #1009]	; 0x3f1
 80074f4:	f897 2415 	ldrb.w	r2, [r7, #1045]	; 0x415
 80074f8:	f887 23e0 	strb.w	r2, [r7, #992]	; 0x3e0
 80074fc:	f240 3301 	movw	r3, #769	; 0x301
 8007500:	f8a7 33f2 	strh.w	r3, [r7, #1010]	; 0x3f2
 8007504:	2300      	movs	r3, #0
 8007506:	f887 3414 	strb.w	r3, [r7, #1044]	; 0x414
 800750a:	4b0e      	ldr	r3, [pc, #56]	; (8007544 <SwitchClass+0xc8>)
 800750c:	6adb      	ldr	r3, [r3, #44]	; 0x2c
 800750e:	4798      	blx	r3
 8007510:	f7ff ff84 	bl	800741c <OpenContinuousRxCWindow>
 8007514:	4620      	mov	r0, r4
 8007516:	bdf8      	pop	{r3, r4, r5, r6, r7, pc}
 8007518:	f002 f8ec 	bl	80096f4 <LoRaMacClassBSwitchClass>
 800751c:	4604      	mov	r4, r0
 800751e:	2800      	cmp	r0, #0
 8007520:	d1f8      	bne.n	8007514 <SwitchClass+0x98>
 8007522:	f885 6104 	strb.w	r6, [r5, #260]	; 0x104
 8007526:	e7f5      	b.n	8007514 <SwitchClass+0x98>
 8007528:	2800      	cmp	r0, #0
 800752a:	d1b8      	bne.n	800749e <SwitchClass+0x22>
 800752c:	4b05      	ldr	r3, [pc, #20]	; (8007544 <SwitchClass+0xc8>)
 800752e:	f885 0104 	strb.w	r0, [r5, #260]	; 0x104
 8007532:	6adb      	ldr	r3, [r3, #44]	; 0x2c
 8007534:	4798      	blx	r3
 8007536:	4634      	mov	r4, r6
 8007538:	e7ec      	b.n	8007514 <SwitchClass+0x98>
 800753a:	bf00      	nop
 800753c:	20000d40 	.word	0x20000d40
 8007540:	2000146c 	.word	0x2000146c
 8007544:	0800ee40 	.word	0x0800ee40

08007548 <RxWindowSetup.constprop.0>:
 8007548:	b5f8      	push	{r3, r4, r5, r6, r7, lr}
 800754a:	4f0d      	ldr	r7, [pc, #52]	; (8007580 <RxWindowSetup.constprop.0+0x38>)
 800754c:	4c0d      	ldr	r4, [pc, #52]	; (8007584 <RxWindowSetup.constprop.0+0x3c>)
 800754e:	4e0e      	ldr	r6, [pc, #56]	; (8007588 <RxWindowSetup.constprop.0+0x40>)
 8007550:	460d      	mov	r5, r1
 8007552:	f006 fb29 	bl	800dba8 <UTIL_TIMER_Stop>
 8007556:	6b3b      	ldr	r3, [r7, #48]	; 0x30
 8007558:	4798      	blx	r3
 800755a:	f896 0040 	ldrb.w	r0, [r6, #64]	; 0x40
 800755e:	f504 6284 	add.w	r2, r4, #1056	; 0x420
 8007562:	4629      	mov	r1, r5
 8007564:	f002 ff7c 	bl	800a460 <RegionRxConfig>
 8007568:	b148      	cbz	r0, 800757e <RxWindowSetup.constprop.0+0x36>
 800756a:	f894 3420 	ldrb.w	r3, [r4, #1056]	; 0x420
 800756e:	f884 3462 	strb.w	r3, [r4, #1122]	; 0x462
 8007572:	6cf0      	ldr	r0, [r6, #76]	; 0x4c
 8007574:	6b7b      	ldr	r3, [r7, #52]	; 0x34
 8007576:	4798      	blx	r3
 8007578:	7ceb      	ldrb	r3, [r5, #19]
 800757a:	f884 3484 	strb.w	r3, [r4, #1156]	; 0x484
 800757e:	bdf8      	pop	{r3, r4, r5, r6, r7, pc}
 8007580:	0800ee40 	.word	0x0800ee40
 8007584:	2000146c 	.word	0x2000146c
 8007588:	20000d40 	.word	0x20000d40

0800758c <OnRxWindow1TimerEvent>:
 800758c:	480d      	ldr	r0, [pc, #52]	; (80075c4 <OnRxWindow1TimerEvent+0x38>)
 800758e:	f890 3415 	ldrb.w	r3, [r0, #1045]	; 0x415
 8007592:	f880 33b8 	strb.w	r3, [r0, #952]	; 0x3b8
 8007596:	4b0c      	ldr	r3, [pc, #48]	; (80075c8 <OnRxWindow1TimerEvent+0x3c>)
 8007598:	f893 2061 	ldrb.w	r2, [r3, #97]	; 0x61
 800759c:	f880 23bb 	strb.w	r2, [r0, #955]	; 0x3bb
 80075a0:	f893 2075 	ldrb.w	r2, [r3, #117]	; 0x75
 80075a4:	f893 3080 	ldrb.w	r3, [r3, #128]	; 0x80
 80075a8:	f880 33c9 	strb.w	r3, [r0, #969]	; 0x3c9
 80075ac:	2300      	movs	r3, #0
 80075ae:	f880 23c8 	strb.w	r2, [r0, #968]	; 0x3c8
 80075b2:	f8a0 33ca 	strh.w	r3, [r0, #970]	; 0x3ca
 80075b6:	f500 716e 	add.w	r1, r0, #952	; 0x3b8
 80075ba:	f500 7060 	add.w	r0, r0, #896	; 0x380
 80075be:	f7ff bfc3 	b.w	8007548 <RxWindowSetup.constprop.0>
 80075c2:	bf00      	nop
 80075c4:	2000146c 	.word	0x2000146c
 80075c8:	20000d40 	.word	0x20000d40

080075cc <OnRxWindow2TimerEvent>:
 80075cc:	480f      	ldr	r0, [pc, #60]	; (800760c <OnRxWindow2TimerEvent+0x40>)
 80075ce:	f890 3484 	ldrb.w	r3, [r0, #1156]	; 0x484
 80075d2:	b1cb      	cbz	r3, 8007608 <OnRxWindow2TimerEvent+0x3c>
 80075d4:	f890 3415 	ldrb.w	r3, [r0, #1045]	; 0x415
 80075d8:	f880 33cc 	strb.w	r3, [r0, #972]	; 0x3cc
 80075dc:	4b0c      	ldr	r3, [pc, #48]	; (8007610 <OnRxWindow2TimerEvent+0x44>)
 80075de:	6e5a      	ldr	r2, [r3, #100]	; 0x64
 80075e0:	f8c0 23d0 	str.w	r2, [r0, #976]	; 0x3d0
 80075e4:	f893 2075 	ldrb.w	r2, [r3, #117]	; 0x75
 80075e8:	f893 3080 	ldrb.w	r3, [r3, #128]	; 0x80
 80075ec:	f880 33dd 	strb.w	r3, [r0, #989]	; 0x3dd
 80075f0:	f44f 7380 	mov.w	r3, #256	; 0x100
 80075f4:	f880 23dc 	strb.w	r2, [r0, #988]	; 0x3dc
 80075f8:	f8a0 33de 	strh.w	r3, [r0, #990]	; 0x3de
 80075fc:	f500 7173 	add.w	r1, r0, #972	; 0x3cc
 8007600:	f500 7066 	add.w	r0, r0, #920	; 0x398
 8007604:	f7ff bfa0 	b.w	8007548 <RxWindowSetup.constprop.0>
 8007608:	4770      	bx	lr
 800760a:	bf00      	nop
 800760c:	2000146c 	.word	0x2000146c
 8007610:	20000d40 	.word	0x20000d40

08007614 <LoRaMacHandleNvm.part.0.constprop.0>:
 8007614:	b570      	push	{r4, r5, r6, lr}
 8007616:	4c34      	ldr	r4, [pc, #208]	; (80076e8 <LoRaMacHandleNvm.part.0.constprop.0+0xd4>)
 8007618:	2124      	movs	r1, #36	; 0x24
 800761a:	4620      	mov	r0, r4
 800761c:	f004 f86e 	bl	800b6fc <Crc32>
 8007620:	6a63      	ldr	r3, [r4, #36]	; 0x24
 8007622:	4298      	cmp	r0, r3
 8007624:	bf18      	it	ne
 8007626:	6260      	strne	r0, [r4, #36]	; 0x24
 8007628:	f04f 0114 	mov.w	r1, #20
 800762c:	482f      	ldr	r0, [pc, #188]	; (80076ec <LoRaMacHandleNvm.part.0.constprop.0+0xd8>)
 800762e:	bf14      	ite	ne
 8007630:	2501      	movne	r5, #1
 8007632:	2500      	moveq	r5, #0
 8007634:	f004 f862 	bl	800b6fc <Crc32>
 8007638:	6be3      	ldr	r3, [r4, #60]	; 0x3c
 800763a:	4298      	cmp	r0, r3
 800763c:	bf18      	it	ne
 800763e:	63e0      	strne	r0, [r4, #60]	; 0x3c
 8007640:	f04f 01dc 	mov.w	r1, #220	; 0xdc
 8007644:	482a      	ldr	r0, [pc, #168]	; (80076f0 <LoRaMacHandleNvm.part.0.constprop.0+0xdc>)
 8007646:	bf18      	it	ne
 8007648:	f045 0502 	orrne.w	r5, r5, #2
 800764c:	f004 f856 	bl	800b6fc <Crc32>
 8007650:	f8d4 311c 	ldr.w	r3, [r4, #284]	; 0x11c
 8007654:	4298      	cmp	r0, r3
 8007656:	bf18      	it	ne
 8007658:	f8c4 011c 	strne.w	r0, [r4, #284]	; 0x11c
 800765c:	f04f 01bc 	mov.w	r1, #188	; 0xbc
 8007660:	4824      	ldr	r0, [pc, #144]	; (80076f4 <LoRaMacHandleNvm.part.0.constprop.0+0xe0>)
 8007662:	bf18      	it	ne
 8007664:	f045 0504 	orrne.w	r5, r5, #4
 8007668:	f004 f848 	bl	800b6fc <Crc32>
 800766c:	f8d4 31dc 	ldr.w	r3, [r4, #476]	; 0x1dc
 8007670:	4298      	cmp	r0, r3
 8007672:	bf18      	it	ne
 8007674:	f8c4 01dc 	strne.w	r0, [r4, #476]	; 0x1dc
 8007678:	f04f 0190 	mov.w	r1, #144	; 0x90
 800767c:	481e      	ldr	r0, [pc, #120]	; (80076f8 <LoRaMacHandleNvm.part.0.constprop.0+0xe4>)
 800767e:	bf18      	it	ne
 8007680:	f045 0508 	orrne.w	r5, r5, #8
 8007684:	f004 f83a 	bl	800b6fc <Crc32>
 8007688:	f8d4 3270 	ldr.w	r3, [r4, #624]	; 0x270
 800768c:	4298      	cmp	r0, r3
 800768e:	bf18      	it	ne
 8007690:	f8c4 0270 	strne.w	r0, [r4, #624]	; 0x270
 8007694:	f44f 6193 	mov.w	r1, #1176	; 0x498
 8007698:	4818      	ldr	r0, [pc, #96]	; (80076fc <LoRaMacHandleNvm.part.0.constprop.0+0xe8>)
 800769a:	bf18      	it	ne
 800769c:	f045 0510 	orrne.w	r5, r5, #16
 80076a0:	f004 f82c 	bl	800b6fc <Crc32>
 80076a4:	f8d4 370c 	ldr.w	r3, [r4, #1804]	; 0x70c
 80076a8:	4298      	cmp	r0, r3
 80076aa:	bf18      	it	ne
 80076ac:	f8c4 070c 	strne.w	r0, [r4, #1804]	; 0x70c
 80076b0:	f04f 0114 	mov.w	r1, #20
 80076b4:	4812      	ldr	r0, [pc, #72]	; (8007700 <LoRaMacHandleNvm.part.0.constprop.0+0xec>)
 80076b6:	bf18      	it	ne
 80076b8:	f045 0520 	orrne.w	r5, r5, #32
 80076bc:	f004 f81e 	bl	800b6fc <Crc32>
 80076c0:	f8d4 3724 	ldr.w	r3, [r4, #1828]	; 0x724
 80076c4:	4298      	cmp	r0, r3
 80076c6:	4b0f      	ldr	r3, [pc, #60]	; (8007704 <LoRaMacHandleNvm.part.0.constprop.0+0xf0>)
 80076c8:	bf18      	it	ne
 80076ca:	f8c4 0724 	strne.w	r0, [r4, #1828]	; 0x724
 80076ce:	f8d3 3348 	ldr.w	r3, [r3, #840]	; 0x348
 80076d2:	bf18      	it	ne
 80076d4:	f045 0540 	orrne.w	r5, r5, #64	; 0x40
 80076d8:	b12b      	cbz	r3, 80076e6 <LoRaMacHandleNvm.part.0.constprop.0+0xd2>
 80076da:	68db      	ldr	r3, [r3, #12]
 80076dc:	b11b      	cbz	r3, 80076e6 <LoRaMacHandleNvm.part.0.constprop.0+0xd2>
 80076de:	4628      	mov	r0, r5
 80076e0:	e8bd 4070 	ldmia.w	sp!, {r4, r5, r6, lr}
 80076e4:	4718      	bx	r3
 80076e6:	bd70      	pop	{r4, r5, r6, pc}
 80076e8:	20000d40 	.word	0x20000d40
 80076ec:	20000d68 	.word	0x20000d68
 80076f0:	20000d80 	.word	0x20000d80
 80076f4:	20000e60 	.word	0x20000e60
 80076f8:	20000f20 	.word	0x20000f20
 80076fc:	20000fb4 	.word	0x20000fb4
 8007700:	20001450 	.word	0x20001450
 8007704:	2000146c 	.word	0x2000146c

08007708 <ProcessMacCommands.constprop.0>:
 8007708:	e92d 4ff0 	stmdb	sp!, {r4, r5, r6, r7, r8, r9, sl, fp, lr}
 800770c:	b091      	sub	sp, #68	; 0x44
 800770e:	2600      	movs	r6, #0
 8007710:	4fbd      	ldr	r7, [pc, #756]	; (8007a08 <ProcessMacCommands.constprop.0+0x300>)
 8007712:	f88d 6015 	strb.w	r6, [sp, #21]
 8007716:	4605      	mov	r5, r0
 8007718:	4688      	mov	r8, r1
 800771a:	4693      	mov	fp, r2
 800771c:	f8ad 6018 	strh.w	r6, [sp, #24]
 8007720:	46b1      	mov	r9, r6
 8007722:	45c1      	cmp	r9, r8
 8007724:	d302      	bcc.n	800772c <ProcessMacCommands.constprop.0+0x24>
 8007726:	b011      	add	sp, #68	; 0x44
 8007728:	e8bd 8ff0 	ldmia.w	sp!, {r4, r5, r6, r7, r8, r9, sl, fp, pc}
 800772c:	f815 0009 	ldrb.w	r0, [r5, r9]
 8007730:	f002 f8ee 	bl	8009910 <LoRaMacCommandsGetCmdSize>
 8007734:	4448      	add	r0, r9
 8007736:	4540      	cmp	r0, r8
 8007738:	dcf5      	bgt.n	8007726 <ProcessMacCommands.constprop.0+0x1e>
 800773a:	f815 3009 	ldrb.w	r3, [r5, r9]
 800773e:	f109 0401 	add.w	r4, r9, #1
 8007742:	3b02      	subs	r3, #2
 8007744:	b2e4      	uxtb	r4, r4
 8007746:	2b11      	cmp	r3, #17
 8007748:	d8ed      	bhi.n	8007726 <ProcessMacCommands.constprop.0+0x1e>
 800774a:	a201      	add	r2, pc, #4	; (adr r2, 8007750 <ProcessMacCommands.constprop.0+0x48>)
 800774c:	f852 f023 	ldr.w	pc, [r2, r3, lsl #2]
 8007750:	08007799 	.word	0x08007799
 8007754:	080077c9 	.word	0x080077c9
 8007758:	08007887 	.word	0x08007887
 800775c:	080078b3 	.word	0x080078b3
 8007760:	08007943 	.word	0x08007943
 8007764:	08007967 	.word	0x08007967
 8007768:	080079db 	.word	0x080079db
 800776c:	08007a11 	.word	0x08007a11
 8007770:	08007a9f 	.word	0x08007a9f
 8007774:	08007727 	.word	0x08007727
 8007778:	08007727 	.word	0x08007727
 800777c:	08007aff 	.word	0x08007aff
 8007780:	08007727 	.word	0x08007727
 8007784:	08007727 	.word	0x08007727
 8007788:	08007bb5 	.word	0x08007bb5
 800778c:	08007bdb 	.word	0x08007bdb
 8007790:	08007c1f 	.word	0x08007c1f
 8007794:	08007c5d 	.word	0x08007c5d
 8007798:	2004      	movs	r0, #4
 800779a:	f002 f965 	bl	8009a68 <LoRaMacConfirmQueueIsCmdActive>
 800779e:	b188      	cbz	r0, 80077c4 <ProcessMacCommands.constprop.0+0xbc>
 80077a0:	2104      	movs	r1, #4
 80077a2:	2000      	movs	r0, #0
 80077a4:	f002 f924 	bl	80099f0 <LoRaMacConfirmQueueSetStatus>
 80077a8:	5d2b      	ldrb	r3, [r5, r4]
 80077aa:	f887 3454 	strb.w	r3, [r7, #1108]	; 0x454
 80077ae:	f109 0403 	add.w	r4, r9, #3
 80077b2:	f109 0902 	add.w	r9, r9, #2
 80077b6:	fa5f f989 	uxtb.w	r9, r9
 80077ba:	b2e4      	uxtb	r4, r4
 80077bc:	f815 3009 	ldrb.w	r3, [r5, r9]
 80077c0:	f887 3455 	strb.w	r3, [r7, #1109]	; 0x455
 80077c4:	46a1      	mov	r9, r4
 80077c6:	e7ac      	b.n	8007722 <ProcessMacCommands.constprop.0+0x1a>
 80077c8:	2300      	movs	r3, #0
 80077ca:	f88d 3016 	strb.w	r3, [sp, #22]
 80077ce:	f88d 3017 	strb.w	r3, [sp, #23]
 80077d2:	f88d 301c 	strb.w	r3, [sp, #28]
 80077d6:	f88d 3020 	strb.w	r3, [sp, #32]
 80077da:	2e00      	cmp	r6, #0
 80077dc:	d151      	bne.n	8007882 <ProcessMacCommands.constprop.0+0x17a>
 80077de:	3c01      	subs	r4, #1
 80077e0:	442c      	add	r4, r5
 80077e2:	940d      	str	r4, [sp, #52]	; 0x34
 80077e4:	4c89      	ldr	r4, [pc, #548]	; (8007a0c <ProcessMacCommands.constprop.0+0x304>)
 80077e6:	eba8 0309 	sub.w	r3, r8, r9
 80077ea:	f88d 3038 	strb.w	r3, [sp, #56]	; 0x38
 80077ee:	f894 3106 	ldrb.w	r3, [r4, #262]	; 0x106
 80077f2:	f88d 303a 	strb.w	r3, [sp, #58]	; 0x3a
 80077f6:	f894 3074 	ldrb.w	r3, [r4, #116]	; 0x74
 80077fa:	f88d 3039 	strb.w	r3, [sp, #57]	; 0x39
 80077fe:	f894 3039 	ldrb.w	r3, [r4, #57]	; 0x39
 8007802:	f88d 303b 	strb.w	r3, [sp, #59]	; 0x3b
 8007806:	f894 3038 	ldrb.w	r3, [r4, #56]	; 0x38
 800780a:	f88d 303c 	strb.w	r3, [sp, #60]	; 0x3c
 800780e:	f894 3060 	ldrb.w	r3, [r4, #96]	; 0x60
 8007812:	f88d 303d 	strb.w	r3, [sp, #61]	; 0x3d
 8007816:	f8d4 3114 	ldr.w	r3, [r4, #276]	; 0x114
 800781a:	930c      	str	r3, [sp, #48]	; 0x30
 800781c:	ab08      	add	r3, sp, #32
 800781e:	9301      	str	r3, [sp, #4]
 8007820:	ab07      	add	r3, sp, #28
 8007822:	9300      	str	r3, [sp, #0]
 8007824:	f894 0040 	ldrb.w	r0, [r4, #64]	; 0x40
 8007828:	f10d 0317 	add.w	r3, sp, #23
 800782c:	f10d 0216 	add.w	r2, sp, #22
 8007830:	a90c      	add	r1, sp, #48	; 0x30
 8007832:	f002 fe2b 	bl	800a48c <RegionLinkAdrReq>
 8007836:	f88d 0015 	strb.w	r0, [sp, #21]
 800783a:	f000 0007 	and.w	r0, r0, #7
 800783e:	2807      	cmp	r0, #7
 8007840:	d10b      	bne.n	800785a <ProcessMacCommands.constprop.0+0x152>
 8007842:	f89d 3016 	ldrb.w	r3, [sp, #22]
 8007846:	f884 3039 	strb.w	r3, [r4, #57]	; 0x39
 800784a:	f89d 3017 	ldrb.w	r3, [sp, #23]
 800784e:	f884 3038 	strb.w	r3, [r4, #56]	; 0x38
 8007852:	f89d 301c 	ldrb.w	r3, [sp, #28]
 8007856:	f884 3060 	strb.w	r3, [r4, #96]	; 0x60
 800785a:	2600      	movs	r6, #0
 800785c:	f04f 0a05 	mov.w	sl, #5
 8007860:	e006      	b.n	8007870 <ProcessMacCommands.constprop.0+0x168>
 8007862:	2201      	movs	r2, #1
 8007864:	f10d 0115 	add.w	r1, sp, #21
 8007868:	2003      	movs	r0, #3
 800786a:	f001 ff63 	bl	8009734 <LoRaMacCommandsAddCmd>
 800786e:	3601      	adds	r6, #1
 8007870:	b2f3      	uxtb	r3, r6
 8007872:	f89d 4020 	ldrb.w	r4, [sp, #32]
 8007876:	fbb4 f2fa 	udiv	r2, r4, sl
 800787a:	429a      	cmp	r2, r3
 800787c:	d8f1      	bhi.n	8007862 <ProcessMacCommands.constprop.0+0x15a>
 800787e:	444c      	add	r4, r9
 8007880:	b2e4      	uxtb	r4, r4
 8007882:	2601      	movs	r6, #1
 8007884:	e79e      	b.n	80077c4 <ProcessMacCommands.constprop.0+0xbc>
 8007886:	5d2b      	ldrb	r3, [r5, r4]
 8007888:	4960      	ldr	r1, [pc, #384]	; (8007a0c <ProcessMacCommands.constprop.0+0x304>)
 800788a:	f003 030f 	and.w	r3, r3, #15
 800788e:	2201      	movs	r2, #1
 8007890:	f881 3107 	strb.w	r3, [r1, #263]	; 0x107
 8007894:	f109 0902 	add.w	r9, r9, #2
 8007898:	fa02 f303 	lsl.w	r3, r2, r3
 800789c:	f8a1 310a 	strh.w	r3, [r1, #266]	; 0x10a
 80078a0:	fa5f f989 	uxtb.w	r9, r9
 80078a4:	2200      	movs	r2, #0
 80078a6:	a906      	add	r1, sp, #24
 80078a8:	2004      	movs	r0, #4
 80078aa:	f001 ff43 	bl	8009734 <LoRaMacCommandsAddCmd>
 80078ae:	464c      	mov	r4, r9
 80078b0:	e788      	b.n	80077c4 <ProcessMacCommands.constprop.0+0xbc>
 80078b2:	2307      	movs	r3, #7
 80078b4:	f88d 3015 	strb.w	r3, [sp, #21]
 80078b8:	5d2b      	ldrb	r3, [r5, r4]
 80078ba:	f3c3 1202 	ubfx	r2, r3, #4, #3
 80078be:	f003 030f 	and.w	r3, r3, #15
 80078c2:	f88d 2031 	strb.w	r2, [sp, #49]	; 0x31
 80078c6:	f88d 3030 	strb.w	r3, [sp, #48]	; 0x30
 80078ca:	f109 0204 	add.w	r2, r9, #4
 80078ce:	f109 0303 	add.w	r3, r9, #3
 80078d2:	b2db      	uxtb	r3, r3
 80078d4:	b2d2      	uxtb	r2, r2
 80078d6:	f109 0405 	add.w	r4, r9, #5
 80078da:	f109 0902 	add.w	r9, r9, #2
 80078de:	5ce9      	ldrb	r1, [r5, r3]
 80078e0:	5cab      	ldrb	r3, [r5, r2]
 80078e2:	fa5f f989 	uxtb.w	r9, r9
 80078e6:	041b      	lsls	r3, r3, #16
 80078e8:	f815 2009 	ldrb.w	r2, [r5, r9]
 80078ec:	f8df 911c 	ldr.w	r9, [pc, #284]	; 8007a0c <ProcessMacCommands.constprop.0+0x304>
 80078f0:	ea43 2301 	orr.w	r3, r3, r1, lsl #8
 80078f4:	4313      	orrs	r3, r2
 80078f6:	2264      	movs	r2, #100	; 0x64
 80078f8:	4353      	muls	r3, r2
 80078fa:	f899 0040 	ldrb.w	r0, [r9, #64]	; 0x40
 80078fe:	930d      	str	r3, [sp, #52]	; 0x34
 8007900:	a90c      	add	r1, sp, #48	; 0x30
 8007902:	f002 fdd3 	bl	800a4ac <RegionRxParamSetupReq>
 8007906:	f000 0307 	and.w	r3, r0, #7
 800790a:	2b07      	cmp	r3, #7
 800790c:	b2e4      	uxtb	r4, r4
 800790e:	f88d 0015 	strb.w	r0, [sp, #21]
 8007912:	d10e      	bne.n	8007932 <ProcessMacCommands.constprop.0+0x22a>
 8007914:	f89d 3030 	ldrb.w	r3, [sp, #48]	; 0x30
 8007918:	f889 3068 	strb.w	r3, [r9, #104]	; 0x68
 800791c:	f889 3070 	strb.w	r3, [r9, #112]	; 0x70
 8007920:	9b0d      	ldr	r3, [sp, #52]	; 0x34
 8007922:	f8c9 3064 	str.w	r3, [r9, #100]	; 0x64
 8007926:	f8c9 306c 	str.w	r3, [r9, #108]	; 0x6c
 800792a:	f89d 3031 	ldrb.w	r3, [sp, #49]	; 0x31
 800792e:	f889 3061 	strb.w	r3, [r9, #97]	; 0x61
 8007932:	f88d 0018 	strb.w	r0, [sp, #24]
 8007936:	2201      	movs	r2, #1
 8007938:	a906      	add	r1, sp, #24
 800793a:	2005      	movs	r0, #5
 800793c:	f001 fefa 	bl	8009734 <LoRaMacCommandsAddCmd>
 8007940:	e740      	b.n	80077c4 <ProcessMacCommands.constprop.0+0xbc>
 8007942:	f8d7 3348 	ldr.w	r3, [r7, #840]	; 0x348
 8007946:	b163      	cbz	r3, 8007962 <ProcessMacCommands.constprop.0+0x25a>
 8007948:	681b      	ldr	r3, [r3, #0]
 800794a:	b153      	cbz	r3, 8007962 <ProcessMacCommands.constprop.0+0x25a>
 800794c:	4798      	blx	r3
 800794e:	f00b 033f 	and.w	r3, fp, #63	; 0x3f
 8007952:	f88d 0018 	strb.w	r0, [sp, #24]
 8007956:	f88d 3019 	strb.w	r3, [sp, #25]
 800795a:	2202      	movs	r2, #2
 800795c:	a906      	add	r1, sp, #24
 800795e:	2006      	movs	r0, #6
 8007960:	e7ec      	b.n	800793c <ProcessMacCommands.constprop.0+0x234>
 8007962:	20ff      	movs	r0, #255	; 0xff
 8007964:	e7f3      	b.n	800794e <ProcessMacCommands.constprop.0+0x246>
 8007966:	2303      	movs	r3, #3
 8007968:	f88d 3015 	strb.w	r3, [sp, #21]
 800796c:	5d2b      	ldrb	r3, [r5, r4]
 800796e:	f88d 3024 	strb.w	r3, [sp, #36]	; 0x24
 8007972:	ab0c      	add	r3, sp, #48	; 0x30
 8007974:	9308      	str	r3, [sp, #32]
 8007976:	f109 0204 	add.w	r2, r9, #4
 800797a:	f109 0303 	add.w	r3, r9, #3
 800797e:	b2db      	uxtb	r3, r3
 8007980:	b2d2      	uxtb	r2, r2
 8007982:	5ce9      	ldrb	r1, [r5, r3]
 8007984:	5cab      	ldrb	r3, [r5, r2]
 8007986:	f109 0202 	add.w	r2, r9, #2
 800798a:	b2d2      	uxtb	r2, r2
 800798c:	041b      	lsls	r3, r3, #16
 800798e:	5caa      	ldrb	r2, [r5, r2]
 8007990:	ea43 2301 	orr.w	r3, r3, r1, lsl #8
 8007994:	4313      	orrs	r3, r2
 8007996:	f109 0406 	add.w	r4, r9, #6
 800799a:	2264      	movs	r2, #100	; 0x64
 800799c:	f109 0905 	add.w	r9, r9, #5
 80079a0:	4353      	muls	r3, r2
 80079a2:	fa5f f989 	uxtb.w	r9, r9
 80079a6:	930c      	str	r3, [sp, #48]	; 0x30
 80079a8:	2300      	movs	r3, #0
 80079aa:	930d      	str	r3, [sp, #52]	; 0x34
 80079ac:	f815 3009 	ldrb.w	r3, [r5, r9]
 80079b0:	f88d 3038 	strb.w	r3, [sp, #56]	; 0x38
 80079b4:	4b15      	ldr	r3, [pc, #84]	; (8007a0c <ProcessMacCommands.constprop.0+0x304>)
 80079b6:	a908      	add	r1, sp, #32
 80079b8:	f893 0040 	ldrb.w	r0, [r3, #64]	; 0x40
 80079bc:	f002 fd7d 	bl	800a4ba <RegionNewChannelReq>
 80079c0:	b2c3      	uxtb	r3, r0
 80079c2:	2800      	cmp	r0, #0
 80079c4:	b2e4      	uxtb	r4, r4
 80079c6:	f88d 3015 	strb.w	r3, [sp, #21]
 80079ca:	f6ff aefb 	blt.w	80077c4 <ProcessMacCommands.constprop.0+0xbc>
 80079ce:	f88d 3018 	strb.w	r3, [sp, #24]
 80079d2:	2201      	movs	r2, #1
 80079d4:	a906      	add	r1, sp, #24
 80079d6:	2007      	movs	r0, #7
 80079d8:	e7b0      	b.n	800793c <ProcessMacCommands.constprop.0+0x234>
 80079da:	5d2b      	ldrb	r3, [r5, r4]
 80079dc:	f003 030f 	and.w	r3, r3, #15
 80079e0:	2b01      	cmp	r3, #1
 80079e2:	f44f 727a 	mov.w	r2, #1000	; 0x3e8
 80079e6:	bf38      	it	cc
 80079e8:	2301      	movcc	r3, #1
 80079ea:	4353      	muls	r3, r2
 80079ec:	4a07      	ldr	r2, [pc, #28]	; (8007a0c <ProcessMacCommands.constprop.0+0x304>)
 80079ee:	f109 0902 	add.w	r9, r9, #2
 80079f2:	6513      	str	r3, [r2, #80]	; 0x50
 80079f4:	f503 737a 	add.w	r3, r3, #1000	; 0x3e8
 80079f8:	6553      	str	r3, [r2, #84]	; 0x54
 80079fa:	fa5f f989 	uxtb.w	r9, r9
 80079fe:	2200      	movs	r2, #0
 8007a00:	a906      	add	r1, sp, #24
 8007a02:	2008      	movs	r0, #8
 8007a04:	e751      	b.n	80078aa <ProcessMacCommands.constprop.0+0x1a2>
 8007a06:	bf00      	nop
 8007a08:	2000146c 	.word	0x2000146c
 8007a0c:	20000d40 	.word	0x20000d40
 8007a10:	5d2b      	ldrb	r3, [r5, r4]
 8007a12:	4ca0      	ldr	r4, [pc, #640]	; (8007c94 <ProcessMacCommands.constprop.0+0x58c>)
 8007a14:	2200      	movs	r2, #0
 8007a16:	f88d 201c 	strb.w	r2, [sp, #28]
 8007a1a:	f013 0220 	ands.w	r2, r3, #32
 8007a1e:	bf18      	it	ne
 8007a20:	2201      	movne	r2, #1
 8007a22:	f88d 201d 	strb.w	r2, [sp, #29]
 8007a26:	06da      	lsls	r2, r3, #27
 8007a28:	bf48      	it	mi
 8007a2a:	2201      	movmi	r2, #1
 8007a2c:	f003 030f 	and.w	r3, r3, #15
 8007a30:	f894 0040 	ldrb.w	r0, [r4, #64]	; 0x40
 8007a34:	bf48      	it	mi
 8007a36:	f88d 201c 	strbmi.w	r2, [sp, #28]
 8007a3a:	a907      	add	r1, sp, #28
 8007a3c:	f88d 301e 	strb.w	r3, [sp, #30]
 8007a40:	f002 fd42 	bl	800a4c8 <RegionTxParamSetupReq>
 8007a44:	f109 0902 	add.w	r9, r9, #2
 8007a48:	3001      	adds	r0, #1
 8007a4a:	fa5f f989 	uxtb.w	r9, r9
 8007a4e:	f43f af2e 	beq.w	80078ae <ProcessMacCommands.constprop.0+0x1a6>
 8007a52:	f89d 301d 	ldrb.w	r3, [sp, #29]
 8007a56:	4a90      	ldr	r2, [pc, #576]	; (8007c98 <ProcessMacCommands.constprop.0+0x590>)
 8007a58:	f884 3075 	strb.w	r3, [r4, #117]	; 0x75
 8007a5c:	f89d 301e 	ldrb.w	r3, [sp, #30]
 8007a60:	f89d a01c 	ldrb.w	sl, [sp, #28]
 8007a64:	5cd0      	ldrb	r0, [r2, r3]
 8007a66:	f884 a074 	strb.w	sl, [r4, #116]	; 0x74
 8007a6a:	f7f8 ff03 	bl	8000874 <__aeabi_ui2f>
 8007a6e:	2302      	movs	r3, #2
 8007a70:	67a0      	str	r0, [r4, #120]	; 0x78
 8007a72:	a90c      	add	r1, sp, #48	; 0x30
 8007a74:	f894 0040 	ldrb.w	r0, [r4, #64]	; 0x40
 8007a78:	f88d 3030 	strb.w	r3, [sp, #48]	; 0x30
 8007a7c:	f88d a032 	strb.w	sl, [sp, #50]	; 0x32
 8007a80:	f002 fcb5 	bl	800a3ee <RegionGetPhyParam>
 8007a84:	f994 3039 	ldrsb.w	r3, [r4, #57]	; 0x39
 8007a88:	9008      	str	r0, [sp, #32]
 8007a8a:	b240      	sxtb	r0, r0
 8007a8c:	4298      	cmp	r0, r3
 8007a8e:	bfb8      	it	lt
 8007a90:	4618      	movlt	r0, r3
 8007a92:	f884 0039 	strb.w	r0, [r4, #57]	; 0x39
 8007a96:	2200      	movs	r2, #0
 8007a98:	a906      	add	r1, sp, #24
 8007a9a:	2009      	movs	r0, #9
 8007a9c:	e705      	b.n	80078aa <ProcessMacCommands.constprop.0+0x1a2>
 8007a9e:	2303      	movs	r3, #3
 8007aa0:	f88d 3015 	strb.w	r3, [sp, #21]
 8007aa4:	5d2b      	ldrb	r3, [r5, r4]
 8007aa6:	f88d 3030 	strb.w	r3, [sp, #48]	; 0x30
 8007aaa:	f109 0204 	add.w	r2, r9, #4
 8007aae:	f109 0303 	add.w	r3, r9, #3
 8007ab2:	b2db      	uxtb	r3, r3
 8007ab4:	b2d2      	uxtb	r2, r2
 8007ab6:	f109 0405 	add.w	r4, r9, #5
 8007aba:	f109 0902 	add.w	r9, r9, #2
 8007abe:	5ce9      	ldrb	r1, [r5, r3]
 8007ac0:	5cab      	ldrb	r3, [r5, r2]
 8007ac2:	fa5f f989 	uxtb.w	r9, r9
 8007ac6:	041b      	lsls	r3, r3, #16
 8007ac8:	f815 2009 	ldrb.w	r2, [r5, r9]
 8007acc:	ea43 2301 	orr.w	r3, r3, r1, lsl #8
 8007ad0:	4313      	orrs	r3, r2
 8007ad2:	2264      	movs	r2, #100	; 0x64
 8007ad4:	4353      	muls	r3, r2
 8007ad6:	930d      	str	r3, [sp, #52]	; 0x34
 8007ad8:	4b6e      	ldr	r3, [pc, #440]	; (8007c94 <ProcessMacCommands.constprop.0+0x58c>)
 8007ada:	a90c      	add	r1, sp, #48	; 0x30
 8007adc:	f893 0040 	ldrb.w	r0, [r3, #64]	; 0x40
 8007ae0:	f002 fcf9 	bl	800a4d6 <RegionDlChannelReq>
 8007ae4:	b2c3      	uxtb	r3, r0
 8007ae6:	2800      	cmp	r0, #0
 8007ae8:	b2e4      	uxtb	r4, r4
 8007aea:	f88d 3015 	strb.w	r3, [sp, #21]
 8007aee:	f6ff ae69 	blt.w	80077c4 <ProcessMacCommands.constprop.0+0xbc>
 8007af2:	f88d 3018 	strb.w	r3, [sp, #24]
 8007af6:	2201      	movs	r2, #1
 8007af8:	a906      	add	r1, sp, #24
 8007afa:	200a      	movs	r0, #10
 8007afc:	e71e      	b.n	800793c <ProcessMacCommands.constprop.0+0x234>
 8007afe:	200a      	movs	r0, #10
 8007b00:	f001 ffb2 	bl	8009a68 <LoRaMacConfirmQueueIsCmdActive>
 8007b04:	2800      	cmp	r0, #0
 8007b06:	f43f ae5d 	beq.w	80077c4 <ProcessMacCommands.constprop.0+0xbc>
 8007b0a:	210a      	movs	r1, #10
 8007b0c:	2000      	movs	r0, #0
 8007b0e:	f001 ff6f 	bl	80099f0 <LoRaMacConfirmQueueSetStatus>
 8007b12:	2300      	movs	r3, #0
 8007b14:	f8ad 3026 	strh.w	r3, [sp, #38]	; 0x26
 8007b18:	f109 0203 	add.w	r2, r9, #3
 8007b1c:	f109 0302 	add.w	r3, r9, #2
 8007b20:	b2db      	uxtb	r3, r3
 8007b22:	b2d2      	uxtb	r2, r2
 8007b24:	5ce9      	ldrb	r1, [r5, r3]
 8007b26:	5cab      	ldrb	r3, [r5, r2]
 8007b28:	5d2a      	ldrb	r2, [r5, r4]
 8007b2a:	041b      	lsls	r3, r3, #16
 8007b2c:	ea43 2301 	orr.w	r3, r3, r1, lsl #8
 8007b30:	4313      	orrs	r3, r2
 8007b32:	f109 0204 	add.w	r2, r9, #4
 8007b36:	b2d2      	uxtb	r2, r2
 8007b38:	f109 0406 	add.w	r4, r9, #6
 8007b3c:	f109 0905 	add.w	r9, r9, #5
 8007b40:	5caa      	ldrb	r2, [r5, r2]
 8007b42:	fa5f f989 	uxtb.w	r9, r9
 8007b46:	ea43 6302 	orr.w	r3, r3, r2, lsl #24
 8007b4a:	f815 2009 	ldrb.w	r2, [r5, r9]
 8007b4e:	9303      	str	r3, [sp, #12]
 8007b50:	f44f 717a 	mov.w	r1, #1000	; 0x3e8
 8007b54:	434a      	muls	r2, r1
 8007b56:	f10d 0a30 	add.w	sl, sp, #48	; 0x30
 8007b5a:	1212      	asrs	r2, r2, #8
 8007b5c:	4650      	mov	r0, sl
 8007b5e:	f8ad 2024 	strh.w	r2, [sp, #36]	; 0x24
 8007b62:	f005 fd4d 	bl	800d600 <SysTimeGet>
 8007b66:	9b03      	ldr	r3, [sp, #12]
 8007b68:	f103 5396 	add.w	r3, r3, #314572800	; 0x12c00000
 8007b6c:	f503 13a9 	add.w	r3, r3, #1384448	; 0x152000
 8007b70:	f503 53ec 	add.w	r3, r3, #7552	; 0x1d80
 8007b74:	9308      	str	r3, [sp, #32]
 8007b76:	f8d7 333c 	ldr.w	r3, [r7, #828]	; 0x33c
 8007b7a:	9300      	str	r3, [sp, #0]
 8007b7c:	f10d 0920 	add.w	r9, sp, #32
 8007b80:	e899 0006 	ldmia.w	r9, {r1, r2}
 8007b84:	f8d7 3338 	ldr.w	r3, [r7, #824]	; 0x338
 8007b88:	a80a      	add	r0, sp, #40	; 0x28
 8007b8a:	f005 fcf6 	bl	800d57a <SysTimeSub>
 8007b8e:	9b0b      	ldr	r3, [sp, #44]	; 0x2c
 8007b90:	9300      	str	r3, [sp, #0]
 8007b92:	e89a 0006 	ldmia.w	sl, {r1, r2}
 8007b96:	9b0a      	ldr	r3, [sp, #40]	; 0x28
 8007b98:	4648      	mov	r0, r9
 8007b9a:	f005 fcd3 	bl	800d544 <SysTimeAdd>
 8007b9e:	e899 0003 	ldmia.w	r9, {r0, r1}
 8007ba2:	f005 fd05 	bl	800d5b0 <SysTimeSet>
 8007ba6:	f001 fdaf 	bl	8009708 <LoRaMacClassBDeviceTimeAns>
 8007baa:	2301      	movs	r3, #1
 8007bac:	b2e4      	uxtb	r4, r4
 8007bae:	f887 3434 	strb.w	r3, [r7, #1076]	; 0x434
 8007bb2:	e607      	b.n	80077c4 <ProcessMacCommands.constprop.0+0xbc>
 8007bb4:	200d      	movs	r0, #13
 8007bb6:	f001 ff57 	bl	8009a68 <LoRaMacConfirmQueueIsCmdActive>
 8007bba:	2800      	cmp	r0, #0
 8007bbc:	f43f ae02 	beq.w	80077c4 <ProcessMacCommands.constprop.0+0xbc>
 8007bc0:	210d      	movs	r1, #13
 8007bc2:	2000      	movs	r0, #0
 8007bc4:	f001 ff14 	bl	80099f0 <LoRaMacConfirmQueueSetStatus>
 8007bc8:	f897 3484 	ldrb.w	r3, [r7, #1156]	; 0x484
 8007bcc:	3b04      	subs	r3, #4
 8007bce:	2b01      	cmp	r3, #1
 8007bd0:	f67f adf8 	bls.w	80077c4 <ProcessMacCommands.constprop.0+0xbc>
 8007bd4:	f001 fd94 	bl	8009700 <LoRaMacClassBPingSlotInfoAns>
 8007bd8:	e5f4      	b.n	80077c4 <ProcessMacCommands.constprop.0+0xbc>
 8007bda:	f109 0302 	add.w	r3, r9, #2
 8007bde:	f109 0203 	add.w	r2, r9, #3
 8007be2:	b2d2      	uxtb	r2, r2
 8007be4:	b2db      	uxtb	r3, r3
 8007be6:	5d29      	ldrb	r1, [r5, r4]
 8007be8:	5ce8      	ldrb	r0, [r5, r3]
 8007bea:	5cab      	ldrb	r3, [r5, r2]
 8007bec:	f109 0405 	add.w	r4, r9, #5
 8007bf0:	f109 0904 	add.w	r9, r9, #4
 8007bf4:	fa5f f989 	uxtb.w	r9, r9
 8007bf8:	041b      	lsls	r3, r3, #16
 8007bfa:	ea43 2300 	orr.w	r3, r3, r0, lsl #8
 8007bfe:	f815 0009 	ldrb.w	r0, [r5, r9]
 8007c02:	430b      	orrs	r3, r1
 8007c04:	2164      	movs	r1, #100	; 0x64
 8007c06:	4359      	muls	r1, r3
 8007c08:	f000 000f 	and.w	r0, r0, #15
 8007c0c:	f001 fd79 	bl	8009702 <LoRaMacClassBPingSlotChannelReq>
 8007c10:	b2e4      	uxtb	r4, r4
 8007c12:	f88d 0018 	strb.w	r0, [sp, #24]
 8007c16:	2201      	movs	r2, #1
 8007c18:	a906      	add	r1, sp, #24
 8007c1a:	2011      	movs	r0, #17
 8007c1c:	e68e      	b.n	800793c <ProcessMacCommands.constprop.0+0x234>
 8007c1e:	200e      	movs	r0, #14
 8007c20:	f001 ff22 	bl	8009a68 <LoRaMacConfirmQueueIsCmdActive>
 8007c24:	2800      	cmp	r0, #0
 8007c26:	f43f adcd 	beq.w	80077c4 <ProcessMacCommands.constprop.0+0xbc>
 8007c2a:	210e      	movs	r1, #14
 8007c2c:	2000      	movs	r0, #0
 8007c2e:	f001 fedf 	bl	80099f0 <LoRaMacConfirmQueueSetStatus>
 8007c32:	f109 0302 	add.w	r3, r9, #2
 8007c36:	b2db      	uxtb	r3, r3
 8007c38:	4a18      	ldr	r2, [pc, #96]	; (8007c9c <ProcessMacCommands.constprop.0+0x594>)
 8007c3a:	5ce8      	ldrb	r0, [r5, r3]
 8007c3c:	5d2b      	ldrb	r3, [r5, r4]
 8007c3e:	6812      	ldr	r2, [r2, #0]
 8007c40:	f109 0404 	add.w	r4, r9, #4
 8007c44:	f109 0903 	add.w	r9, r9, #3
 8007c48:	fa5f f989 	uxtb.w	r9, r9
 8007c4c:	ea43 2000 	orr.w	r0, r3, r0, lsl #8
 8007c50:	f815 1009 	ldrb.w	r1, [r5, r9]
 8007c54:	b2e4      	uxtb	r4, r4
 8007c56:	f001 fd56 	bl	8009706 <LoRaMacClassBBeaconTimingAns>
 8007c5a:	e5b3      	b.n	80077c4 <ProcessMacCommands.constprop.0+0xbc>
 8007c5c:	5d28      	ldrb	r0, [r5, r4]
 8007c5e:	f109 0302 	add.w	r3, r9, #2
 8007c62:	f109 0404 	add.w	r4, r9, #4
 8007c66:	f109 0903 	add.w	r9, r9, #3
 8007c6a:	b2db      	uxtb	r3, r3
 8007c6c:	fa5f f989 	uxtb.w	r9, r9
 8007c70:	5cea      	ldrb	r2, [r5, r3]
 8007c72:	f815 3009 	ldrb.w	r3, [r5, r9]
 8007c76:	041b      	lsls	r3, r3, #16
 8007c78:	ea43 2302 	orr.w	r3, r3, r2, lsl #8
 8007c7c:	4303      	orrs	r3, r0
 8007c7e:	2064      	movs	r0, #100	; 0x64
 8007c80:	4358      	muls	r0, r3
 8007c82:	f001 fd42 	bl	800970a <LoRaMacClassBBeaconFreqReq>
 8007c86:	b2e4      	uxtb	r4, r4
 8007c88:	f88d 0018 	strb.w	r0, [sp, #24]
 8007c8c:	2201      	movs	r2, #1
 8007c8e:	a906      	add	r1, sp, #24
 8007c90:	2013      	movs	r0, #19
 8007c92:	e653      	b.n	800793c <ProcessMacCommands.constprop.0+0x234>
 8007c94:	20000d40 	.word	0x20000d40
 8007c98:	0800eda7 	.word	0x0800eda7
 8007c9c:	20001978 	.word	0x20001978

08007ca0 <StopRetransmission.isra.0>:
 8007ca0:	4b0e      	ldr	r3, [pc, #56]	; (8007cdc <StopRetransmission.isra.0+0x3c>)
 8007ca2:	f893 2485 	ldrb.w	r2, [r3, #1157]	; 0x485
 8007ca6:	0792      	lsls	r2, r2, #30
 8007ca8:	d503      	bpl.n	8007cb2 <StopRetransmission.isra.0+0x12>
 8007caa:	f893 2483 	ldrb.w	r2, [r3, #1155]	; 0x483
 8007cae:	2a01      	cmp	r2, #1
 8007cb0:	d906      	bls.n	8007cc0 <StopRetransmission.isra.0+0x20>
 8007cb2:	4a0b      	ldr	r2, [pc, #44]	; (8007ce0 <StopRetransmission.isra.0+0x40>)
 8007cb4:	f892 1106 	ldrb.w	r1, [r2, #262]	; 0x106
 8007cb8:	b111      	cbz	r1, 8007cc0 <StopRetransmission.isra.0+0x20>
 8007cba:	6a91      	ldr	r1, [r2, #40]	; 0x28
 8007cbc:	3101      	adds	r1, #1
 8007cbe:	6291      	str	r1, [r2, #40]	; 0x28
 8007cc0:	2200      	movs	r2, #0
 8007cc2:	f883 2410 	strb.w	r2, [r3, #1040]	; 0x410
 8007cc6:	f883 2414 	strb.w	r2, [r3, #1044]	; 0x414
 8007cca:	f883 2413 	strb.w	r2, [r3, #1043]	; 0x413
 8007cce:	f8d3 2340 	ldr.w	r2, [r3, #832]	; 0x340
 8007cd2:	f022 0202 	bic.w	r2, r2, #2
 8007cd6:	f8c3 2340 	str.w	r2, [r3, #832]	; 0x340
 8007cda:	4770      	bx	lr
 8007cdc:	2000146c 	.word	0x2000146c
 8007ce0:	20000d40 	.word	0x20000d40

08007ce4 <OnTxDelayedTimerEvent>:
 8007ce4:	b510      	push	{r4, lr}
 8007ce6:	4c12      	ldr	r4, [pc, #72]	; (8007d30 <OnTxDelayedTimerEvent+0x4c>)
 8007ce8:	f504 705a 	add.w	r0, r4, #872	; 0x368
 8007cec:	f005 ff5c 	bl	800dba8 <UTIL_TIMER_Stop>
 8007cf0:	f8d4 3340 	ldr.w	r3, [r4, #832]	; 0x340
 8007cf4:	2001      	movs	r0, #1
 8007cf6:	f023 0320 	bic.w	r3, r3, #32
 8007cfa:	f8c4 3340 	str.w	r3, [r4, #832]	; 0x340
 8007cfe:	f7ff fa19 	bl	8007134 <ScheduleTx>
 8007d02:	b198      	cbz	r0, 8007d2c <OnTxDelayedTimerEvent+0x48>
 8007d04:	280b      	cmp	r0, #11
 8007d06:	d011      	beq.n	8007d2c <OnTxDelayedTimerEvent+0x48>
 8007d08:	4b0a      	ldr	r3, [pc, #40]	; (8007d34 <OnTxDelayedTimerEvent+0x50>)
 8007d0a:	f893 3039 	ldrb.w	r3, [r3, #57]	; 0x39
 8007d0e:	f884 343a 	strb.w	r3, [r4, #1082]	; 0x43a
 8007d12:	2009      	movs	r0, #9
 8007d14:	f894 3412 	ldrb.w	r3, [r4, #1042]	; 0x412
 8007d18:	f884 343d 	strb.w	r3, [r4, #1085]	; 0x43d
 8007d1c:	f884 0439 	strb.w	r0, [r4, #1081]	; 0x439
 8007d20:	f001 fe88 	bl	8009a34 <LoRaMacConfirmQueueSetStatusCmn>
 8007d24:	e8bd 4010 	ldmia.w	sp!, {r4, lr}
 8007d28:	f7ff bfba 	b.w	8007ca0 <StopRetransmission.isra.0>
 8007d2c:	bd10      	pop	{r4, pc}
 8007d2e:	bf00      	nop
 8007d30:	2000146c 	.word	0x2000146c
 8007d34:	20000d40 	.word	0x20000d40

08007d38 <LoRaMacIsBusy>:
 8007d38:	4b05      	ldr	r3, [pc, #20]	; (8007d50 <LoRaMacIsBusy+0x18>)
 8007d3a:	f8d3 2340 	ldr.w	r2, [r3, #832]	; 0x340
 8007d3e:	b92a      	cbnz	r2, 8007d4c <LoRaMacIsBusy+0x14>
 8007d40:	f893 0486 	ldrb.w	r0, [r3, #1158]	; 0x486
 8007d44:	3801      	subs	r0, #1
 8007d46:	bf18      	it	ne
 8007d48:	2001      	movne	r0, #1
 8007d4a:	4770      	bx	lr
 8007d4c:	2001      	movs	r0, #1
 8007d4e:	4770      	bx	lr
 8007d50:	2000146c 	.word	0x2000146c

08007d54 <LoRaMacProcess>:
 8007d54:	e92d 4ff0 	stmdb	sp!, {r4, r5, r6, r7, r8, r9, sl, fp, lr}
 8007d58:	b0a5      	sub	sp, #148	; 0x94
 8007d5a:	f3ef 8110 	mrs	r1, PRIMASK
 8007d5e:	b672      	cpsid	i
 8007d60:	4abf      	ldr	r2, [pc, #764]	; (8008060 <LoRaMacProcess+0x30c>)
 8007d62:	2000      	movs	r0, #0
 8007d64:	6813      	ldr	r3, [r2, #0]
 8007d66:	6010      	str	r0, [r2, #0]
 8007d68:	f381 8810 	msr	PRIMASK, r1
 8007d6c:	4cbd      	ldr	r4, [pc, #756]	; (8008064 <LoRaMacProcess+0x310>)
 8007d6e:	2b00      	cmp	r3, #0
 8007d70:	f000 80cf 	beq.w	8007f12 <LoRaMacProcess+0x1be>
 8007d74:	fa5f fb83 	uxtb.w	fp, r3
 8007d78:	06db      	lsls	r3, r3, #27
 8007d7a:	d560      	bpl.n	8007e3e <LoRaMacProcess+0xea>
 8007d7c:	4dba      	ldr	r5, [pc, #744]	; (8008068 <LoRaMacProcess+0x314>)
 8007d7e:	f895 3104 	ldrb.w	r3, [r5, #260]	; 0x104
 8007d82:	2b02      	cmp	r3, #2
 8007d84:	d002      	beq.n	8007d8c <LoRaMacProcess+0x38>
 8007d86:	4bb9      	ldr	r3, [pc, #740]	; (800806c <LoRaMacProcess+0x318>)
 8007d88:	6adb      	ldr	r3, [r3, #44]	; 0x2c
 8007d8a:	4798      	blx	r3
 8007d8c:	f8d4 13b0 	ldr.w	r1, [r4, #944]	; 0x3b0
 8007d90:	48b7      	ldr	r0, [pc, #732]	; (8008070 <LoRaMacProcess+0x31c>)
 8007d92:	f005 ff93 	bl	800dcbc <UTIL_TIMER_SetPeriod>
 8007d96:	48b6      	ldr	r0, [pc, #728]	; (8008070 <LoRaMacProcess+0x31c>)
 8007d98:	f005 ff56 	bl	800dc48 <UTIL_TIMER_Start>
 8007d9c:	f8d4 13b4 	ldr.w	r1, [r4, #948]	; 0x3b4
 8007da0:	48b4      	ldr	r0, [pc, #720]	; (8008074 <LoRaMacProcess+0x320>)
 8007da2:	f005 ff8b 	bl	800dcbc <UTIL_TIMER_SetPeriod>
 8007da6:	48b3      	ldr	r0, [pc, #716]	; (8008074 <LoRaMacProcess+0x320>)
 8007da8:	f005 ff4e 	bl	800dc48 <UTIL_TIMER_Start>
 8007dac:	f895 3104 	ldrb.w	r3, [r5, #260]	; 0x104
 8007db0:	2b02      	cmp	r3, #2
 8007db2:	d002      	beq.n	8007dba <LoRaMacProcess+0x66>
 8007db4:	f894 3414 	ldrb.w	r3, [r4, #1044]	; 0x414
 8007db8:	b18b      	cbz	r3, 8007dde <LoRaMacProcess+0x8a>
 8007dba:	2316      	movs	r3, #22
 8007dbc:	a90e      	add	r1, sp, #56	; 0x38
 8007dbe:	f895 0040 	ldrb.w	r0, [r5, #64]	; 0x40
 8007dc2:	f88d 3038 	strb.w	r3, [sp, #56]	; 0x38
 8007dc6:	f002 fb12 	bl	800a3ee <RegionGetPhyParam>
 8007dca:	f8d4 13b4 	ldr.w	r1, [r4, #948]	; 0x3b4
 8007dce:	900c      	str	r0, [sp, #48]	; 0x30
 8007dd0:	4401      	add	r1, r0
 8007dd2:	48a9      	ldr	r0, [pc, #676]	; (8008078 <LoRaMacProcess+0x324>)
 8007dd4:	f005 ff72 	bl	800dcbc <UTIL_TIMER_SetPeriod>
 8007dd8:	48a7      	ldr	r0, [pc, #668]	; (8008078 <LoRaMacProcess+0x324>)
 8007dda:	f005 ff35 	bl	800dc48 <UTIL_TIMER_Start>
 8007dde:	4ba7      	ldr	r3, [pc, #668]	; (800807c <LoRaMacProcess+0x328>)
 8007de0:	f894 2415 	ldrb.w	r2, [r4, #1045]	; 0x415
 8007de4:	681b      	ldr	r3, [r3, #0]
 8007de6:	62eb      	str	r3, [r5, #44]	; 0x2c
 8007de8:	af0a      	add	r7, sp, #40	; 0x28
 8007dea:	4638      	mov	r0, r7
 8007dec:	f88d 2060 	strb.w	r2, [sp, #96]	; 0x60
 8007df0:	9319      	str	r3, [sp, #100]	; 0x64
 8007df2:	f005 fc2b 	bl	800d64c <SysTimeGetMcuTime>
 8007df6:	f8d5 3110 	ldr.w	r3, [r5, #272]	; 0x110
 8007dfa:	9300      	str	r3, [sp, #0]
 8007dfc:	ae04      	add	r6, sp, #16
 8007dfe:	e897 0006 	ldmia.w	r7, {r1, r2}
 8007e02:	f8d5 310c 	ldr.w	r3, [r5, #268]	; 0x10c
 8007e06:	4630      	mov	r0, r6
 8007e08:	f005 fbb7 	bl	800d57a <SysTimeSub>
 8007e0c:	e896 0003 	ldmia.w	r6, {r0, r1}
 8007e10:	ab1b      	add	r3, sp, #108	; 0x6c
 8007e12:	e883 0003 	stmia.w	r3, {r0, r1}
 8007e16:	f8d4 3418 	ldr.w	r3, [r4, #1048]	; 0x418
 8007e1a:	931a      	str	r3, [sp, #104]	; 0x68
 8007e1c:	f895 3118 	ldrb.w	r3, [r5, #280]	; 0x118
 8007e20:	f895 0040 	ldrb.w	r0, [r5, #64]	; 0x40
 8007e24:	2b00      	cmp	r3, #0
 8007e26:	bf18      	it	ne
 8007e28:	2301      	movne	r3, #1
 8007e2a:	a918      	add	r1, sp, #96	; 0x60
 8007e2c:	f88d 3061 	strb.w	r3, [sp, #97]	; 0x61
 8007e30:	f002 fae7 	bl	800a402 <RegionSetBandTxDone>
 8007e34:	f894 3414 	ldrb.w	r3, [r4, #1044]	; 0x414
 8007e38:	b90b      	cbnz	r3, 8007e3e <LoRaMacProcess+0xea>
 8007e3a:	f884 3439 	strb.w	r3, [r4, #1081]	; 0x439
 8007e3e:	f01b 0f08 	tst.w	fp, #8
 8007e42:	d03a      	beq.n	8007eba <LoRaMacProcess+0x166>
 8007e44:	4b8e      	ldr	r3, [pc, #568]	; (8008080 <LoRaMacProcess+0x32c>)
 8007e46:	4d88      	ldr	r5, [pc, #544]	; (8008068 <LoRaMacProcess+0x314>)
 8007e48:	685f      	ldr	r7, [r3, #4]
 8007e4a:	891e      	ldrh	r6, [r3, #8]
 8007e4c:	f9b3 800a 	ldrsh.w	r8, [r3, #10]
 8007e50:	f993 a00c 	ldrsb.w	sl, [r3, #12]
 8007e54:	f8d5 20d4 	ldr.w	r2, [r5, #212]	; 0xd4
 8007e58:	9203      	str	r2, [sp, #12]
 8007e5a:	2300      	movs	r3, #0
 8007e5c:	9307      	str	r3, [sp, #28]
 8007e5e:	f884 343c 	strb.w	r3, [r4, #1084]	; 0x43c
 8007e62:	f8a4 341e 	strh.w	r3, [r4, #1054]	; 0x41e
 8007e66:	f884 3421 	strb.w	r3, [r4, #1057]	; 0x421
 8007e6a:	f8c4 3424 	str.w	r3, [r4, #1060]	; 0x424
 8007e6e:	f8a4 3428 	strh.w	r3, [r4, #1064]	; 0x428
 8007e72:	f884 342a 	strb.w	r3, [r4, #1066]	; 0x42a
 8007e76:	f8c4 342c 	str.w	r3, [r4, #1068]	; 0x42c
 8007e7a:	f884 341c 	strb.w	r3, [r4, #1052]	; 0x41c
 8007e7e:	f8c4 3430 	str.w	r3, [r4, #1072]	; 0x430
 8007e82:	f884 3434 	strb.w	r3, [r4, #1076]	; 0x434
 8007e86:	4b79      	ldr	r3, [pc, #484]	; (800806c <LoRaMacProcess+0x318>)
 8007e88:	f894 2484 	ldrb.w	r2, [r4, #1156]	; 0x484
 8007e8c:	6adb      	ldr	r3, [r3, #44]	; 0x2c
 8007e8e:	f884 2483 	strb.w	r2, [r4, #1155]	; 0x483
 8007e92:	f8a4 8480 	strh.w	r8, [r4, #1152]	; 0x480
 8007e96:	f884 a482 	strb.w	sl, [r4, #1154]	; 0x482
 8007e9a:	4798      	blx	r3
 8007e9c:	4875      	ldr	r0, [pc, #468]	; (8008074 <LoRaMacProcess+0x320>)
 8007e9e:	f005 fe83 	bl	800dba8 <UTIL_TIMER_Stop>
 8007ea2:	4631      	mov	r1, r6
 8007ea4:	4638      	mov	r0, r7
 8007ea6:	f001 fc18 	bl	80096da <LoRaMacClassBRxBeacon>
 8007eaa:	4681      	mov	r9, r0
 8007eac:	2800      	cmp	r0, #0
 8007eae:	f000 80ef 	beq.w	8008090 <LoRaMacProcess+0x33c>
 8007eb2:	f8a4 8476 	strh.w	r8, [r4, #1142]	; 0x476
 8007eb6:	f884 a478 	strb.w	sl, [r4, #1144]	; 0x478
 8007eba:	f01b 0f04 	tst.w	fp, #4
 8007ebe:	d01a      	beq.n	8007ef6 <LoRaMacProcess+0x1a2>
 8007ec0:	4b69      	ldr	r3, [pc, #420]	; (8008068 <LoRaMacProcess+0x314>)
 8007ec2:	f893 3104 	ldrb.w	r3, [r3, #260]	; 0x104
 8007ec6:	2b02      	cmp	r3, #2
 8007ec8:	d002      	beq.n	8007ed0 <LoRaMacProcess+0x17c>
 8007eca:	4b68      	ldr	r3, [pc, #416]	; (800806c <LoRaMacProcess+0x318>)
 8007ecc:	6adb      	ldr	r3, [r3, #44]	; 0x2c
 8007ece:	4798      	blx	r3
 8007ed0:	2002      	movs	r0, #2
 8007ed2:	f7fe ff8b 	bl	8006dec <UpdateRxSlotIdleState>
 8007ed6:	f884 0439 	strb.w	r0, [r4, #1081]	; 0x439
 8007eda:	f001 fdab 	bl	8009a34 <LoRaMacConfirmQueueSetStatusCmn>
 8007ede:	f894 3414 	ldrb.w	r3, [r4, #1044]	; 0x414
 8007ee2:	b113      	cbz	r3, 8007eea <LoRaMacProcess+0x196>
 8007ee4:	2301      	movs	r3, #1
 8007ee6:	f884 3413 	strb.w	r3, [r4, #1043]	; 0x413
 8007eea:	f894 3485 	ldrb.w	r3, [r4, #1157]	; 0x485
 8007eee:	f043 0320 	orr.w	r3, r3, #32
 8007ef2:	f884 3485 	strb.w	r3, [r4, #1157]	; 0x485
 8007ef6:	f01b 0f02 	tst.w	fp, #2
 8007efa:	d003      	beq.n	8007f04 <LoRaMacProcess+0x1b0>
 8007efc:	2106      	movs	r1, #6
 8007efe:	2005      	movs	r0, #5
 8007f00:	f7fe ffde 	bl	8006ec0 <HandleRadioRxErrorTimeout>
 8007f04:	f01b 0f01 	tst.w	fp, #1
 8007f08:	d003      	beq.n	8007f12 <LoRaMacProcess+0x1be>
 8007f0a:	2104      	movs	r1, #4
 8007f0c:	2003      	movs	r0, #3
 8007f0e:	f7fe ffd7 	bl	8006ec0 <HandleRadioRxErrorTimeout>
 8007f12:	f001 fbff 	bl	8009714 <LoRaMacClassBProcess>
 8007f16:	f894 2485 	ldrb.w	r2, [r4, #1157]	; 0x485
 8007f1a:	0690      	lsls	r0, r2, #26
 8007f1c:	d568      	bpl.n	8007ff0 <LoRaMacProcess+0x29c>
 8007f1e:	2300      	movs	r3, #0
 8007f20:	f884 3486 	strb.w	r3, [r4, #1158]	; 0x486
 8007f24:	f8d4 3340 	ldr.w	r3, [r4, #832]	; 0x340
 8007f28:	0619      	lsls	r1, r3, #24
 8007f2a:	bf44      	itt	mi
 8007f2c:	f023 0382 	bicmi.w	r3, r3, #130	; 0x82
 8007f30:	f8c4 3340 	strmi.w	r3, [r4, #832]	; 0x340
 8007f34:	f012 0f05 	tst.w	r2, #5
 8007f38:	f000 82b4 	beq.w	80084a4 <LoRaMacProcess+0x750>
 8007f3c:	200c      	movs	r0, #12
 8007f3e:	f001 fd93 	bl	8009a68 <LoRaMacConfirmQueueIsCmdActive>
 8007f42:	2800      	cmp	r0, #0
 8007f44:	f000 82ae 	beq.w	80084a4 <LoRaMacProcess+0x750>
 8007f48:	f894 3485 	ldrb.w	r3, [r4, #1157]	; 0x485
 8007f4c:	07df      	lsls	r7, r3, #31
 8007f4e:	f100 82a9 	bmi.w	80084a4 <LoRaMacProcess+0x750>
 8007f52:	075e      	lsls	r6, r3, #29
 8007f54:	f140 82ba 	bpl.w	80084cc <LoRaMacProcess+0x778>
 8007f58:	f8d4 3340 	ldr.w	r3, [r4, #832]	; 0x340
 8007f5c:	f023 0302 	bic.w	r3, r3, #2
 8007f60:	f8c4 3340 	str.w	r3, [r4, #832]	; 0x340
 8007f64:	f8d4 2340 	ldr.w	r2, [r4, #832]	; 0x340
 8007f68:	2a00      	cmp	r2, #0
 8007f6a:	d138      	bne.n	8007fde <LoRaMacProcess+0x28a>
 8007f6c:	f894 5485 	ldrb.w	r5, [r4, #1157]	; 0x485
 8007f70:	f015 0101 	ands.w	r1, r5, #1
 8007f74:	bf1e      	ittt	ne
 8007f76:	462b      	movne	r3, r5
 8007f78:	f362 0300 	bfine	r3, r2, #0, #1
 8007f7c:	f884 3485 	strbne.w	r3, [r4, #1157]	; 0x485
 8007f80:	f894 3485 	ldrb.w	r3, [r4, #1157]	; 0x485
 8007f84:	075e      	lsls	r6, r3, #29
 8007f86:	bf44      	itt	mi
 8007f88:	f36f 0382 	bfcmi	r3, #2, #1
 8007f8c:	f884 3485 	strbmi.w	r3, [r4, #1157]	; 0x485
 8007f90:	2301      	movs	r3, #1
 8007f92:	f884 3486 	strb.w	r3, [r4, #1158]	; 0x486
 8007f96:	b121      	cbz	r1, 8007fa2 <LoRaMacProcess+0x24e>
 8007f98:	f8d4 3344 	ldr.w	r3, [r4, #836]	; 0x344
 8007f9c:	4839      	ldr	r0, [pc, #228]	; (8008084 <LoRaMacProcess+0x330>)
 8007f9e:	681b      	ldr	r3, [r3, #0]
 8007fa0:	4798      	blx	r3
 8007fa2:	076d      	lsls	r5, r5, #29
 8007fa4:	d50b      	bpl.n	8007fbe <LoRaMacProcess+0x26a>
 8007fa6:	4838      	ldr	r0, [pc, #224]	; (8008088 <LoRaMacProcess+0x334>)
 8007fa8:	f001 fd6a 	bl	8009a80 <LoRaMacConfirmQueueHandleCb>
 8007fac:	f001 fd92 	bl	8009ad4 <LoRaMacConfirmQueueGetCnt>
 8007fb0:	b128      	cbz	r0, 8007fbe <LoRaMacProcess+0x26a>
 8007fb2:	f894 3485 	ldrb.w	r3, [r4, #1157]	; 0x485
 8007fb6:	f043 0304 	orr.w	r3, r3, #4
 8007fba:	f884 3485 	strb.w	r3, [r4, #1157]	; 0x485
 8007fbe:	f001 fb98 	bl	80096f2 <LoRaMacClassBResumeBeaconing>
 8007fc2:	f894 3485 	ldrb.w	r3, [r4, #1157]	; 0x485
 8007fc6:	f36f 1345 	bfc	r3, #5, #1
 8007fca:	f884 3485 	strb.w	r3, [r4, #1157]	; 0x485
 8007fce:	f8d4 3340 	ldr.w	r3, [r4, #832]	; 0x340
 8007fd2:	b923      	cbnz	r3, 8007fde <LoRaMacProcess+0x28a>
 8007fd4:	a818      	add	r0, sp, #96	; 0x60
 8007fd6:	f88d 3060 	strb.w	r3, [sp, #96]	; 0x60
 8007fda:	f001 fc85 	bl	80098e8 <LoRaMacCommandsStickyCmdsPending>
 8007fde:	2301      	movs	r3, #1
 8007fe0:	f884 3486 	strb.w	r3, [r4, #1158]	; 0x486
 8007fe4:	f894 3485 	ldrb.w	r3, [r4, #1157]	; 0x485
 8007fe8:	f043 0340 	orr.w	r3, r3, #64	; 0x40
 8007fec:	f884 3485 	strb.w	r3, [r4, #1157]	; 0x485
 8007ff0:	f894 3485 	ldrb.w	r3, [r4, #1157]	; 0x485
 8007ff4:	0718      	lsls	r0, r3, #28
 8007ff6:	d50a      	bpl.n	800800e <LoRaMacProcess+0x2ba>
 8007ff8:	f36f 03c3 	bfc	r3, #3, #1
 8007ffc:	4923      	ldr	r1, [pc, #140]	; (800808c <LoRaMacProcess+0x338>)
 8007ffe:	f884 3485 	strb.w	r3, [r4, #1157]	; 0x485
 8008002:	f8d4 3344 	ldr.w	r3, [r4, #836]	; 0x344
 8008006:	f1a1 0020 	sub.w	r0, r1, #32
 800800a:	68db      	ldr	r3, [r3, #12]
 800800c:	4798      	blx	r3
 800800e:	f894 3485 	ldrb.w	r3, [r4, #1157]	; 0x485
 8008012:	0799      	lsls	r1, r3, #30
 8008014:	d50a      	bpl.n	800802c <LoRaMacProcess+0x2d8>
 8008016:	f36f 0341 	bfc	r3, #1, #1
 800801a:	491c      	ldr	r1, [pc, #112]	; (800808c <LoRaMacProcess+0x338>)
 800801c:	f884 3485 	strb.w	r3, [r4, #1157]	; 0x485
 8008020:	f8d4 3344 	ldr.w	r3, [r4, #836]	; 0x344
 8008024:	f1a1 0064 	sub.w	r0, r1, #100	; 0x64
 8008028:	685b      	ldr	r3, [r3, #4]
 800802a:	4798      	blx	r3
 800802c:	f894 3484 	ldrb.w	r3, [r4, #1156]	; 0x484
 8008030:	2b02      	cmp	r3, #2
 8008032:	d101      	bne.n	8008038 <LoRaMacProcess+0x2e4>
 8008034:	f7ff f9f2 	bl	800741c <OpenContinuousRxCWindow>
 8008038:	f894 3485 	ldrb.w	r3, [r4, #1157]	; 0x485
 800803c:	065a      	lsls	r2, r3, #25
 800803e:	f140 82d2 	bpl.w	80085e6 <LoRaMacProcess+0x892>
 8008042:	f36f 1386 	bfc	r3, #6, #1
 8008046:	f884 3485 	strb.w	r3, [r4, #1157]	; 0x485
 800804a:	f8d4 3340 	ldr.w	r3, [r4, #832]	; 0x340
 800804e:	2b00      	cmp	r3, #0
 8008050:	f040 82c9 	bne.w	80085e6 <LoRaMacProcess+0x892>
 8008054:	b025      	add	sp, #148	; 0x94
 8008056:	e8bd 4ff0 	ldmia.w	sp!, {r4, r5, r6, r7, r8, r9, sl, fp, lr}
 800805a:	f7ff badb 	b.w	8007614 <LoRaMacHandleNvm.part.0.constprop.0>
 800805e:	bf00      	nop
 8008060:	20001468 	.word	0x20001468
 8008064:	2000146c 	.word	0x2000146c
 8008068:	20000d40 	.word	0x20000d40
 800806c:	0800ee40 	.word	0x0800ee40
 8008070:	200017ec 	.word	0x200017ec
 8008074:	20001804 	.word	0x20001804
 8008078:	20001864 	.word	0x20001864
 800807c:	20001988 	.word	0x20001988
 8008080:	20001978 	.word	0x20001978
 8008084:	200018a4 	.word	0x200018a4
 8008088:	200018b8 	.word	0x200018b8
 800808c:	200018ec 	.word	0x200018ec
 8008090:	f895 3104 	ldrb.w	r3, [r5, #260]	; 0x104
 8008094:	2b01      	cmp	r3, #1
 8008096:	d10c      	bne.n	80080b2 <LoRaMacProcess+0x35e>
 8008098:	f001 fb23 	bl	80096e2 <LoRaMacClassBIsPingExpected>
 800809c:	4680      	mov	r8, r0
 800809e:	b1c0      	cbz	r0, 80080d2 <LoRaMacProcess+0x37e>
 80080a0:	4648      	mov	r0, r9
 80080a2:	f001 fb13 	bl	80096cc <LoRaMacClassBSetPingSlotState>
 80080a6:	4648      	mov	r0, r9
 80080a8:	f001 fb15 	bl	80096d6 <LoRaMacClassBPingSlotTimerEvent>
 80080ac:	2304      	movs	r3, #4
 80080ae:	f884 3483 	strb.w	r3, [r4, #1155]	; 0x483
 80080b2:	783b      	ldrb	r3, [r7, #0]
 80080b4:	9302      	str	r3, [sp, #8]
 80080b6:	095b      	lsrs	r3, r3, #5
 80080b8:	3b01      	subs	r3, #1
 80080ba:	2b06      	cmp	r3, #6
 80080bc:	f200 81e3 	bhi.w	8008486 <LoRaMacProcess+0x732>
 80080c0:	e8df f013 	tbh	[pc, r3, lsl #1]
 80080c4:	01e10013 	.word	0x01e10013
 80080c8:	01e10091 	.word	0x01e10091
 80080cc:	01e1008e 	.word	0x01e1008e
 80080d0:	01d1      	.short	0x01d1
 80080d2:	f001 fb08 	bl	80096e6 <LoRaMacClassBIsMulticastExpected>
 80080d6:	2800      	cmp	r0, #0
 80080d8:	d0eb      	beq.n	80080b2 <LoRaMacProcess+0x35e>
 80080da:	4640      	mov	r0, r8
 80080dc:	f001 faf7 	bl	80096ce <LoRaMacClassBSetMulticastSlotState>
 80080e0:	4640      	mov	r0, r8
 80080e2:	f001 faf9 	bl	80096d8 <LoRaMacClassBMulticastSlotTimerEvent>
 80080e6:	2305      	movs	r3, #5
 80080e8:	e7e1      	b.n	80080ae <LoRaMacProcess+0x35a>
 80080ea:	2e10      	cmp	r6, #16
 80080ec:	d803      	bhi.n	80080f6 <LoRaMacProcess+0x3a2>
 80080ee:	2301      	movs	r3, #1
 80080f0:	f884 341d 	strb.w	r3, [r4, #1053]	; 0x41d
 80080f4:	e11e      	b.n	8008334 <LoRaMacProcess+0x5e0>
 80080f6:	f895 3118 	ldrb.w	r3, [r5, #280]	; 0x118
 80080fa:	970e      	str	r7, [sp, #56]	; 0x38
 80080fc:	b2f6      	uxtb	r6, r6
 80080fe:	f88d 603c 	strb.w	r6, [sp, #60]	; 0x3c
 8008102:	2b00      	cmp	r3, #0
 8008104:	d1f3      	bne.n	80080ee <LoRaMacProcess+0x39a>
 8008106:	f7fe f837 	bl	8006178 <SecureElementGetJoinEui>
 800810a:	aa0e      	add	r2, sp, #56	; 0x38
 800810c:	4601      	mov	r1, r0
 800810e:	20ff      	movs	r0, #255	; 0xff
 8008110:	f001 ffae 	bl	800a070 <LoRaMacCryptoHandleJoinAccept>
 8008114:	2800      	cmp	r0, #0
 8008116:	d15b      	bne.n	80081d0 <LoRaMacProcess+0x47c>
 8008118:	f89d 3043 	ldrb.w	r3, [sp, #67]	; 0x43
 800811c:	f89d 2042 	ldrb.w	r2, [sp, #66]	; 0x42
 8008120:	041b      	lsls	r3, r3, #16
 8008122:	ea43 2302 	orr.w	r3, r3, r2, lsl #8
 8008126:	f89d 2041 	ldrb.w	r2, [sp, #65]	; 0x41
 800812a:	4313      	orrs	r3, r2
 800812c:	f8c5 30d0 	str.w	r3, [r5, #208]	; 0xd0
 8008130:	9b11      	ldr	r3, [sp, #68]	; 0x44
 8008132:	f8c5 30d4 	str.w	r3, [r5, #212]	; 0xd4
 8008136:	f89d 3048 	ldrb.w	r3, [sp, #72]	; 0x48
 800813a:	f3c3 1202 	ubfx	r2, r3, #4, #3
 800813e:	f3c3 0303 	ubfx	r3, r3, #0, #4
 8008142:	f885 3068 	strb.w	r3, [r5, #104]	; 0x68
 8008146:	f885 3070 	strb.w	r3, [r5, #112]	; 0x70
 800814a:	f89d 3049 	ldrb.w	r3, [sp, #73]	; 0x49
 800814e:	f885 2061 	strb.w	r2, [r5, #97]	; 0x61
 8008152:	2b00      	cmp	r3, #0
 8008154:	d03a      	beq.n	80081cc <LoRaMacProcess+0x478>
 8008156:	652b      	str	r3, [r5, #80]	; 0x50
 8008158:	6d2b      	ldr	r3, [r5, #80]	; 0x50
 800815a:	f895 0040 	ldrb.w	r0, [r5, #64]	; 0x40
 800815e:	f44f 727a 	mov.w	r2, #1000	; 0x3e8
 8008162:	4353      	muls	r3, r2
 8008164:	652b      	str	r3, [r5, #80]	; 0x50
 8008166:	4413      	add	r3, r2
 8008168:	656b      	str	r3, [r5, #84]	; 0x54
 800816a:	2700      	movs	r7, #0
 800816c:	f10d 034a 	add.w	r3, sp, #74	; 0x4a
 8008170:	3e11      	subs	r6, #17
 8008172:	a90c      	add	r1, sp, #48	; 0x30
 8008174:	930c      	str	r3, [sp, #48]	; 0x30
 8008176:	f885 7116 	strb.w	r7, [r5, #278]	; 0x116
 800817a:	f88d 6034 	strb.w	r6, [sp, #52]	; 0x34
 800817e:	f002 f955 	bl	800a42c <RegionApplyCFList>
 8008182:	2302      	movs	r3, #2
 8008184:	2001      	movs	r0, #1
 8008186:	f885 3118 	strb.w	r3, [r5, #280]	; 0x118
 800818a:	f001 fc6d 	bl	8009a68 <LoRaMacConfirmQueueIsCmdActive>
 800818e:	b118      	cbz	r0, 8008198 <LoRaMacProcess+0x444>
 8008190:	2101      	movs	r1, #1
 8008192:	4638      	mov	r0, r7
 8008194:	f001 fc2c 	bl	80099f0 <LoRaMacConfirmQueueSetStatus>
 8008198:	f894 3485 	ldrb.w	r3, [r4, #1157]	; 0x485
 800819c:	f043 0308 	orr.w	r3, r3, #8
 80081a0:	f884 3485 	strb.w	r3, [r4, #1157]	; 0x485
 80081a4:	f894 3414 	ldrb.w	r3, [r4, #1044]	; 0x414
 80081a8:	2b00      	cmp	r3, #0
 80081aa:	f000 8172 	beq.w	8008492 <LoRaMacProcess+0x73e>
 80081ae:	f894 343c 	ldrb.w	r3, [r4, #1084]	; 0x43c
 80081b2:	b113      	cbz	r3, 80081ba <LoRaMacProcess+0x466>
 80081b4:	2000      	movs	r0, #0
 80081b6:	f7fe fe43 	bl	8006e40 <OnAckTimeoutTimerEvent>
 80081ba:	f894 3485 	ldrb.w	r3, [r4, #1157]	; 0x485
 80081be:	f043 0320 	orr.w	r3, r3, #32
 80081c2:	f884 3485 	strb.w	r3, [r4, #1157]	; 0x485
 80081c6:	f7fe fe11 	bl	8006dec <UpdateRxSlotIdleState>
 80081ca:	e676      	b.n	8007eba <LoRaMacProcess+0x166>
 80081cc:	2301      	movs	r3, #1
 80081ce:	e7c2      	b.n	8008156 <LoRaMacProcess+0x402>
 80081d0:	2001      	movs	r0, #1
 80081d2:	f001 fc49 	bl	8009a68 <LoRaMacConfirmQueueIsCmdActive>
 80081d6:	2800      	cmp	r0, #0
 80081d8:	d0de      	beq.n	8008198 <LoRaMacProcess+0x444>
 80081da:	2101      	movs	r1, #1
 80081dc:	2007      	movs	r0, #7
 80081de:	e7d9      	b.n	8008194 <LoRaMacProcess+0x440>
 80081e0:	2301      	movs	r3, #1
 80081e2:	f884 341c 	strb.w	r3, [r4, #1052]	; 0x41c
 80081e6:	f895 3075 	ldrb.w	r3, [r5, #117]	; 0x75
 80081ea:	f88d 3022 	strb.w	r3, [sp, #34]	; 0x22
 80081ee:	f894 3420 	ldrb.w	r3, [r4, #1056]	; 0x420
 80081f2:	f88d 3021 	strb.w	r3, [sp, #33]	; 0x21
 80081f6:	230d      	movs	r3, #13
 80081f8:	f88d 3020 	strb.w	r3, [sp, #32]
 80081fc:	f895 3080 	ldrb.w	r3, [r5, #128]	; 0x80
 8008200:	b113      	cbz	r3, 8008208 <LoRaMacProcess+0x4b4>
 8008202:	230e      	movs	r3, #14
 8008204:	f88d 3020 	strb.w	r3, [sp, #32]
 8008208:	f895 0040 	ldrb.w	r0, [r5, #64]	; 0x40
 800820c:	a908      	add	r1, sp, #32
 800820e:	f002 f8ee 	bl	800a3ee <RegionGetPhyParam>
 8008212:	f1a6 030d 	sub.w	r3, r6, #13
 8008216:	b21b      	sxth	r3, r3
 8008218:	9006      	str	r0, [sp, #24]
 800821a:	ea23 73e3 	bic.w	r3, r3, r3, asr #31
 800821e:	b200      	sxth	r0, r0
 8008220:	4283      	cmp	r3, r0
 8008222:	f73f af64 	bgt.w	80080ee <LoRaMacProcess+0x39a>
 8008226:	2e0b      	cmp	r6, #11
 8008228:	f67f af61 	bls.w	80080ee <LoRaMacProcess+0x39a>
 800822c:	4b9c      	ldr	r3, [pc, #624]	; (80084a0 <LoRaMacProcess+0x74c>)
 800822e:	9321      	str	r3, [sp, #132]	; 0x84
 8008230:	a818      	add	r0, sp, #96	; 0x60
 8008232:	23ff      	movs	r3, #255	; 0xff
 8008234:	9718      	str	r7, [sp, #96]	; 0x60
 8008236:	f88d 6064 	strb.w	r6, [sp, #100]	; 0x64
 800823a:	f88d 3088 	strb.w	r3, [sp, #136]	; 0x88
 800823e:	f001 ffd7 	bl	800a1f0 <LoRaMacParserData>
 8008242:	4607      	mov	r7, r0
 8008244:	2800      	cmp	r0, #0
 8008246:	f47f af52 	bne.w	80080ee <LoRaMacProcess+0x39a>
 800824a:	f89d 306c 	ldrb.w	r3, [sp, #108]	; 0x6c
 800824e:	991a      	ldr	r1, [sp, #104]	; 0x68
 8008250:	f8c4 1430 	str.w	r1, [r4, #1072]	; 0x430
 8008254:	f013 020f 	ands.w	r2, r3, #15
 8008258:	d003      	beq.n	8008262 <LoRaMacProcess+0x50e>
 800825a:	f89d 0080 	ldrb.w	r0, [sp, #128]	; 0x80
 800825e:	2800      	cmp	r0, #0
 8008260:	d16b      	bne.n	800833a <LoRaMacProcess+0x5e6>
 8008262:	f89d 0088 	ldrb.w	r0, [sp, #136]	; 0x88
 8008266:	2800      	cmp	r0, #0
 8008268:	d069      	beq.n	800833e <LoRaMacProcess+0x5ea>
 800826a:	2a00      	cmp	r2, #0
 800826c:	f47f af3f 	bne.w	80080ee <LoRaMacProcess+0x39a>
 8008270:	f89d 2080 	ldrb.w	r2, [sp, #128]	; 0x80
 8008274:	2a00      	cmp	r2, #0
 8008276:	bf0c      	ite	eq
 8008278:	2602      	moveq	r6, #2
 800827a:	2603      	movne	r6, #3
 800827c:	2200      	movs	r2, #0
 800827e:	9207      	str	r2, [sp, #28]
 8008280:	f8d5 20dc 	ldr.w	r2, [r5, #220]	; 0xdc
 8008284:	4291      	cmp	r1, r2
 8008286:	d15c      	bne.n	8008342 <LoRaMacProcess+0x5ee>
 8008288:	f895 10da 	ldrb.w	r1, [r5, #218]	; 0xda
 800828c:	2900      	cmp	r1, #0
 800828e:	d058      	beq.n	8008342 <LoRaMacProcess+0x5ee>
 8008290:	f8d5 10f8 	ldr.w	r1, [r5, #248]	; 0xf8
 8008294:	f895 90db 	ldrb.w	r9, [r5, #219]	; 0xdb
 8008298:	6809      	ldr	r1, [r1, #0]
 800829a:	9107      	str	r1, [sp, #28]
 800829c:	f895 1104 	ldrb.w	r1, [r5, #260]	; 0x104
 80082a0:	2902      	cmp	r1, #2
 80082a2:	d102      	bne.n	80082aa <LoRaMacProcess+0x556>
 80082a4:	2103      	movs	r1, #3
 80082a6:	f884 1483 	strb.w	r1, [r4, #1155]	; 0x483
 80082aa:	2e03      	cmp	r6, #3
 80082ac:	f47f af1f 	bne.w	80080ee <LoRaMacProcess+0x39a>
 80082b0:	f013 0f60 	tst.w	r3, #96	; 0x60
 80082b4:	f47f af1b 	bne.w	80080ee <LoRaMacProcess+0x39a>
 80082b8:	9203      	str	r2, [sp, #12]
 80082ba:	2701      	movs	r7, #1
 80082bc:	2315      	movs	r3, #21
 80082be:	f895 0040 	ldrb.w	r0, [r5, #64]	; 0x40
 80082c2:	f88d 3020 	strb.w	r3, [sp, #32]
 80082c6:	a908      	add	r1, sp, #32
 80082c8:	f002 f891 	bl	800a3ee <RegionGetPhyParam>
 80082cc:	f895 8116 	ldrb.w	r8, [r5, #278]	; 0x116
 80082d0:	9006      	str	r0, [sp, #24]
 80082d2:	f1b9 0f00 	cmp.w	r9, #0
 80082d6:	d037      	beq.n	8008348 <LoRaMacProcess+0x5f4>
 80082d8:	f1b9 0f01 	cmp.w	r9, #1
 80082dc:	d143      	bne.n	8008366 <LoRaMacProcess+0x612>
 80082de:	f1b8 0f01 	cmp.w	r8, #1
 80082e2:	d134      	bne.n	800834e <LoRaMacProcess+0x5fa>
 80082e4:	b3b6      	cbz	r6, 8008354 <LoRaMacProcess+0x600>
 80082e6:	2e03      	cmp	r6, #3
 80082e8:	bf14      	ite	ne
 80082ea:	46c8      	movne	r8, r9
 80082ec:	f04f 0802 	moveq.w	r8, #2
 80082f0:	f8bd 206e 	ldrh.w	r2, [sp, #110]	; 0x6e
 80082f4:	f8bd 1018 	ldrh.w	r1, [sp, #24]
 80082f8:	ab07      	add	r3, sp, #28
 80082fa:	4640      	mov	r0, r8
 80082fc:	f001 fd3a 	bl	8009d74 <LoRaMacCryptoGetFCntDown>
 8008300:	b398      	cbz	r0, 800836a <LoRaMacProcess+0x616>
 8008302:	2807      	cmp	r0, #7
 8008304:	d129      	bne.n	800835a <LoRaMacProcess+0x606>
 8008306:	2308      	movs	r3, #8
 8008308:	f884 341d 	strb.w	r3, [r4, #1053]	; 0x41d
 800830c:	f895 3116 	ldrb.w	r3, [r5, #278]	; 0x116
 8008310:	b95b      	cbnz	r3, 800832a <LoRaMacProcess+0x5d6>
 8008312:	9b02      	ldr	r3, [sp, #8]
 8008314:	f003 03e0 	and.w	r3, r3, #224	; 0xe0
 8008318:	2ba0      	cmp	r3, #160	; 0xa0
 800831a:	d106      	bne.n	800832a <LoRaMacProcess+0x5d6>
 800831c:	6b6a      	ldr	r2, [r5, #52]	; 0x34
 800831e:	9b23      	ldr	r3, [sp, #140]	; 0x8c
 8008320:	429a      	cmp	r2, r3
 8008322:	d102      	bne.n	800832a <LoRaMacProcess+0x5d6>
 8008324:	2301      	movs	r3, #1
 8008326:	f885 303a 	strb.w	r3, [r5, #58]	; 0x3a
 800832a:	9b07      	ldr	r3, [sp, #28]
 800832c:	f8c4 342c 	str.w	r3, [r4, #1068]	; 0x42c
 8008330:	f8c4 3464 	str.w	r3, [r4, #1124]	; 0x464
 8008334:	f7fe fda8 	bl	8006e88 <PrepareRxDoneAbort>
 8008338:	e5bf      	b.n	8007eba <LoRaMacProcess+0x166>
 800833a:	463e      	mov	r6, r7
 800833c:	e79e      	b.n	800827c <LoRaMacProcess+0x528>
 800833e:	2601      	movs	r6, #1
 8008340:	e79c      	b.n	800827c <LoRaMacProcess+0x528>
 8008342:	f04f 0901 	mov.w	r9, #1
 8008346:	e7b9      	b.n	80082bc <LoRaMacProcess+0x568>
 8008348:	f04f 0804 	mov.w	r8, #4
 800834c:	e7d0      	b.n	80082f0 <LoRaMacProcess+0x59c>
 800834e:	f04f 0803 	mov.w	r8, #3
 8008352:	e7cd      	b.n	80082f0 <LoRaMacProcess+0x59c>
 8008354:	f04f 0802 	mov.w	r8, #2
 8008358:	e7ca      	b.n	80082f0 <LoRaMacProcess+0x59c>
 800835a:	2808      	cmp	r0, #8
 800835c:	d103      	bne.n	8008366 <LoRaMacProcess+0x612>
 800835e:	230a      	movs	r3, #10
 8008360:	f884 341d 	strb.w	r3, [r4, #1053]	; 0x41d
 8008364:	e7e1      	b.n	800832a <LoRaMacProcess+0x5d6>
 8008366:	2301      	movs	r3, #1
 8008368:	e7fa      	b.n	8008360 <LoRaMacProcess+0x60c>
 800836a:	ab18      	add	r3, sp, #96	; 0x60
 800836c:	9300      	str	r3, [sp, #0]
 800836e:	9903      	ldr	r1, [sp, #12]
 8008370:	9b07      	ldr	r3, [sp, #28]
 8008372:	4642      	mov	r2, r8
 8008374:	4648      	mov	r0, r9
 8008376:	f001 fdd9 	bl	8009f2c <LoRaMacCryptoUnsecureMessage>
 800837a:	b120      	cbz	r0, 8008386 <LoRaMacProcess+0x632>
 800837c:	2802      	cmp	r0, #2
 800837e:	bf0c      	ite	eq
 8008380:	230b      	moveq	r3, #11
 8008382:	230c      	movne	r3, #12
 8008384:	e6b4      	b.n	80080f0 <LoRaMacProcess+0x39c>
 8008386:	f89d 306c 	ldrb.w	r3, [sp, #108]	; 0x6c
 800838a:	f884 041d 	strb.w	r0, [r4, #1053]	; 0x41d
 800838e:	f3c3 1200 	ubfx	r2, r3, #4, #1
 8008392:	f3c3 1340 	ubfx	r3, r3, #5, #1
 8008396:	f884 342a 	strb.w	r3, [r4, #1066]	; 0x42a
 800839a:	f884 343c 	strb.w	r3, [r4, #1084]	; 0x43c
 800839e:	f894 3483 	ldrb.w	r3, [r4, #1155]	; 0x483
 80083a2:	f884 2421 	strb.w	r2, [r4, #1057]	; 0x421
 80083a6:	2b01      	cmp	r3, #1
 80083a8:	9a07      	ldr	r2, [sp, #28]
 80083aa:	bf98      	it	ls
 80083ac:	62a8      	strls	r0, [r5, #40]	; 0x28
 80083ae:	2f01      	cmp	r7, #1
 80083b0:	f884 741e 	strb.w	r7, [r4, #1054]	; 0x41e
 80083b4:	f8c4 0424 	str.w	r0, [r4, #1060]	; 0x424
 80083b8:	f884 0428 	strb.w	r0, [r4, #1064]	; 0x428
 80083bc:	f8c4 242c 	str.w	r2, [r4, #1068]	; 0x42c
 80083c0:	f8c4 2464 	str.w	r2, [r4, #1124]	; 0x464
 80083c4:	f884 0439 	strb.w	r0, [r4, #1081]	; 0x439
 80083c8:	d12b      	bne.n	8008422 <LoRaMacProcess+0x6ce>
 80083ca:	2202      	movs	r2, #2
 80083cc:	2b01      	cmp	r3, #1
 80083ce:	f884 241c 	strb.w	r2, [r4, #1052]	; 0x41c
 80083d2:	f894 1438 	ldrb.w	r1, [r4, #1080]	; 0x438
 80083d6:	f89d 206c 	ldrb.w	r2, [sp, #108]	; 0x6c
 80083da:	d805      	bhi.n	80083e8 <LoRaMacProcess+0x694>
 80083dc:	2901      	cmp	r1, #1
 80083de:	d101      	bne.n	80083e4 <LoRaMacProcess+0x690>
 80083e0:	0697      	lsls	r7, r2, #26
 80083e2:	d501      	bpl.n	80083e8 <LoRaMacProcess+0x694>
 80083e4:	f001 fa30 	bl	8009848 <LoRaMacCommandsRemoveStickyAnsCmds>
 80083e8:	2e02      	cmp	r6, #2
 80083ea:	d02d      	beq.n	8008448 <LoRaMacProcess+0x6f4>
 80083ec:	2e03      	cmp	r6, #3
 80083ee:	d009      	beq.n	8008404 <LoRaMacProcess+0x6b0>
 80083f0:	f89d 106c 	ldrb.w	r1, [sp, #108]	; 0x6c
 80083f4:	2e01      	cmp	r6, #1
 80083f6:	4652      	mov	r2, sl
 80083f8:	f001 010f 	and.w	r1, r1, #15
 80083fc:	a81c      	add	r0, sp, #112	; 0x70
 80083fe:	d027      	beq.n	8008450 <LoRaMacProcess+0x6fc>
 8008400:	f7ff f982 	bl	8007708 <ProcessMacCommands.constprop.0>
 8008404:	f89d 3080 	ldrb.w	r3, [sp, #128]	; 0x80
 8008408:	f884 341f 	strb.w	r3, [r4, #1055]	; 0x41f
 800840c:	9b21      	ldr	r3, [sp, #132]	; 0x84
 800840e:	f8c4 3424 	str.w	r3, [r4, #1060]	; 0x424
 8008412:	f89d 3088 	ldrb.w	r3, [sp, #136]	; 0x88
 8008416:	f884 3428 	strb.w	r3, [r4, #1064]	; 0x428
 800841a:	2301      	movs	r3, #1
 800841c:	f884 3429 	strb.w	r3, [r4, #1065]	; 0x429
 8008420:	e01c      	b.n	800845c <LoRaMacProcess+0x708>
 8008422:	9a02      	ldr	r2, [sp, #8]
 8008424:	f002 02e0 	and.w	r2, r2, #224	; 0xe0
 8008428:	2aa0      	cmp	r2, #160	; 0xa0
 800842a:	d109      	bne.n	8008440 <LoRaMacProcess+0x6ec>
 800842c:	f895 1116 	ldrb.w	r1, [r5, #278]	; 0x116
 8008430:	2201      	movs	r2, #1
 8008432:	f885 203a 	strb.w	r2, [r5, #58]	; 0x3a
 8008436:	2900      	cmp	r1, #0
 8008438:	d1c8      	bne.n	80083cc <LoRaMacProcess+0x678>
 800843a:	9923      	ldr	r1, [sp, #140]	; 0x8c
 800843c:	6369      	str	r1, [r5, #52]	; 0x34
 800843e:	e7c5      	b.n	80083cc <LoRaMacProcess+0x678>
 8008440:	2200      	movs	r2, #0
 8008442:	f885 203a 	strb.w	r2, [r5, #58]	; 0x3a
 8008446:	e7c1      	b.n	80083cc <LoRaMacProcess+0x678>
 8008448:	f89d 1088 	ldrb.w	r1, [sp, #136]	; 0x88
 800844c:	9821      	ldr	r0, [sp, #132]	; 0x84
 800844e:	4652      	mov	r2, sl
 8008450:	f7ff f95a 	bl	8007708 <ProcessMacCommands.constprop.0>
 8008454:	f89d 3080 	ldrb.w	r3, [sp, #128]	; 0x80
 8008458:	f884 341f 	strb.w	r3, [r4, #1055]	; 0x41f
 800845c:	f894 3485 	ldrb.w	r3, [r4, #1157]	; 0x485
 8008460:	f043 0302 	orr.w	r3, r3, #2
 8008464:	e69c      	b.n	80081a0 <LoRaMacProcess+0x44c>
 8008466:	f8df 8038 	ldr.w	r8, [pc, #56]	; 80084a0 <LoRaMacProcess+0x74c>
 800846a:	3e01      	subs	r6, #1
 800846c:	b2b2      	uxth	r2, r6
 800846e:	1c79      	adds	r1, r7, #1
 8008470:	4640      	mov	r0, r8
 8008472:	f003 f92d 	bl	800b6d0 <memcpy1>
 8008476:	2303      	movs	r3, #3
 8008478:	f8a4 341c 	strh.w	r3, [r4, #1052]	; 0x41c
 800847c:	f8c4 8424 	str.w	r8, [r4, #1060]	; 0x424
 8008480:	f884 6428 	strb.w	r6, [r4, #1064]	; 0x428
 8008484:	e7ea      	b.n	800845c <LoRaMacProcess+0x708>
 8008486:	2301      	movs	r3, #1
 8008488:	f884 341d 	strb.w	r3, [r4, #1053]	; 0x41d
 800848c:	f7fe fcfc 	bl	8006e88 <PrepareRxDoneAbort>
 8008490:	e688      	b.n	80081a4 <LoRaMacProcess+0x450>
 8008492:	f895 3104 	ldrb.w	r3, [r5, #260]	; 0x104
 8008496:	2b02      	cmp	r3, #2
 8008498:	f47f ae8f 	bne.w	80081ba <LoRaMacProcess+0x466>
 800849c:	e68a      	b.n	80081b4 <LoRaMacProcess+0x460>
 800849e:	bf00      	nop
 80084a0:	200016a4 	.word	0x200016a4
 80084a4:	f894 3485 	ldrb.w	r3, [r4, #1157]	; 0x485
 80084a8:	075d      	lsls	r5, r3, #29
 80084aa:	d50f      	bpl.n	80084cc <LoRaMacProcess+0x778>
 80084ac:	2001      	movs	r0, #1
 80084ae:	f001 fadb 	bl	8009a68 <LoRaMacConfirmQueueIsCmdActive>
 80084b2:	b388      	cbz	r0, 8008518 <LoRaMacProcess+0x7c4>
 80084b4:	2001      	movs	r0, #1
 80084b6:	f001 faad 	bl	8009a14 <LoRaMacConfirmQueueGetStatus>
 80084ba:	b908      	cbnz	r0, 80084c0 <LoRaMacProcess+0x76c>
 80084bc:	f884 0410 	strb.w	r0, [r4, #1040]	; 0x410
 80084c0:	f8d4 3340 	ldr.w	r3, [r4, #832]	; 0x340
 80084c4:	f023 0302 	bic.w	r3, r3, #2
 80084c8:	f8c4 3340 	str.w	r3, [r4, #832]	; 0x340
 80084cc:	f894 1485 	ldrb.w	r1, [r4, #1157]	; 0x485
 80084d0:	07c8      	lsls	r0, r1, #31
 80084d2:	f57f ad47 	bpl.w	8007f64 <LoRaMacProcess+0x210>
 80084d6:	f894 3438 	ldrb.w	r3, [r4, #1080]	; 0x438
 80084da:	b10b      	cbz	r3, 80084e0 <LoRaMacProcess+0x78c>
 80084dc:	2b03      	cmp	r3, #3
 80084de:	d126      	bne.n	800852e <LoRaMacProcess+0x7da>
 80084e0:	4b42      	ldr	r3, [pc, #264]	; (80085ec <LoRaMacProcess+0x898>)
 80084e2:	f894 0410 	ldrb.w	r0, [r4, #1040]	; 0x410
 80084e6:	f893 2060 	ldrb.w	r2, [r3, #96]	; 0x60
 80084ea:	4290      	cmp	r0, r2
 80084ec:	d208      	bcs.n	8008500 <LoRaMacProcess+0x7ac>
 80084ee:	078a      	lsls	r2, r1, #30
 80084f0:	d550      	bpl.n	8008594 <LoRaMacProcess+0x840>
 80084f2:	f893 3104 	ldrb.w	r3, [r3, #260]	; 0x104
 80084f6:	b11b      	cbz	r3, 8008500 <LoRaMacProcess+0x7ac>
 80084f8:	f894 3483 	ldrb.w	r3, [r4, #1155]	; 0x483
 80084fc:	2b00      	cmp	r3, #0
 80084fe:	d149      	bne.n	8008594 <LoRaMacProcess+0x840>
 8008500:	483b      	ldr	r0, [pc, #236]	; (80085f0 <LoRaMacProcess+0x89c>)
 8008502:	f005 fb51 	bl	800dba8 <UTIL_TIMER_Stop>
 8008506:	f8d4 3340 	ldr.w	r3, [r4, #832]	; 0x340
 800850a:	f023 0320 	bic.w	r3, r3, #32
 800850e:	f8c4 3340 	str.w	r3, [r4, #832]	; 0x340
 8008512:	f7ff fbc5 	bl	8007ca0 <StopRetransmission.isra.0>
 8008516:	e525      	b.n	8007f64 <LoRaMacProcess+0x210>
 8008518:	2005      	movs	r0, #5
 800851a:	f001 faa5 	bl	8009a68 <LoRaMacConfirmQueueIsCmdActive>
 800851e:	2800      	cmp	r0, #0
 8008520:	d1ce      	bne.n	80084c0 <LoRaMacProcess+0x76c>
 8008522:	2006      	movs	r0, #6
 8008524:	f001 faa0 	bl	8009a68 <LoRaMacConfirmQueueIsCmdActive>
 8008528:	2800      	cmp	r0, #0
 800852a:	d1c9      	bne.n	80084c0 <LoRaMacProcess+0x76c>
 800852c:	e7ce      	b.n	80084cc <LoRaMacProcess+0x778>
 800852e:	2b01      	cmp	r3, #1
 8008530:	d130      	bne.n	8008594 <LoRaMacProcess+0x840>
 8008532:	f894 2413 	ldrb.w	r2, [r4, #1043]	; 0x413
 8008536:	2a00      	cmp	r2, #0
 8008538:	f43f ad14 	beq.w	8007f64 <LoRaMacProcess+0x210>
 800853c:	f894 3412 	ldrb.w	r3, [r4, #1042]	; 0x412
 8008540:	f894 0411 	ldrb.w	r0, [r4, #1041]	; 0x411
 8008544:	4283      	cmp	r3, r0
 8008546:	d204      	bcs.n	8008552 <LoRaMacProcess+0x7fe>
 8008548:	f011 0202 	ands.w	r2, r1, #2
 800854c:	bf18      	it	ne
 800854e:	f894 243c 	ldrbne.w	r2, [r4, #1084]	; 0x43c
 8008552:	4d26      	ldr	r5, [pc, #152]	; (80085ec <LoRaMacProcess+0x898>)
 8008554:	f895 1116 	ldrb.w	r1, [r5, #278]	; 0x116
 8008558:	2900      	cmp	r1, #0
 800855a:	d141      	bne.n	80085e0 <LoRaMacProcess+0x88c>
 800855c:	bb32      	cbnz	r2, 80085ac <LoRaMacProcess+0x858>
 800855e:	4283      	cmp	r3, r0
 8008560:	d218      	bcs.n	8008594 <LoRaMacProcess+0x840>
 8008562:	3301      	adds	r3, #1
 8008564:	b2db      	uxtb	r3, r3
 8008566:	07df      	lsls	r7, r3, #31
 8008568:	f884 3412 	strb.w	r3, [r4, #1042]	; 0x412
 800856c:	d512      	bpl.n	8008594 <LoRaMacProcess+0x840>
 800856e:	2322      	movs	r3, #34	; 0x22
 8008570:	f88d 3060 	strb.w	r3, [sp, #96]	; 0x60
 8008574:	f895 3074 	ldrb.w	r3, [r5, #116]	; 0x74
 8008578:	f88d 3062 	strb.w	r3, [sp, #98]	; 0x62
 800857c:	f895 0040 	ldrb.w	r0, [r5, #64]	; 0x40
 8008580:	f895 3039 	ldrb.w	r3, [r5, #57]	; 0x39
 8008584:	f88d 3061 	strb.w	r3, [sp, #97]	; 0x61
 8008588:	a918      	add	r1, sp, #96	; 0x60
 800858a:	f001 ff30 	bl	800a3ee <RegionGetPhyParam>
 800858e:	900e      	str	r0, [sp, #56]	; 0x38
 8008590:	f885 0039 	strb.w	r0, [r5, #57]	; 0x39
 8008594:	f894 3485 	ldrb.w	r3, [r4, #1157]	; 0x485
 8008598:	2000      	movs	r0, #0
 800859a:	f36f 1345 	bfc	r3, #5, #1
 800859e:	f884 3485 	strb.w	r3, [r4, #1157]	; 0x485
 80085a2:	f884 0413 	strb.w	r0, [r4, #1043]	; 0x413
 80085a6:	f7ff fb9d 	bl	8007ce4 <OnTxDelayedTimerEvent>
 80085aa:	e4db      	b.n	8007f64 <LoRaMacProcess+0x210>
 80085ac:	f894 643c 	ldrb.w	r6, [r4, #1084]	; 0x43c
 80085b0:	b98e      	cbnz	r6, 80085d6 <LoRaMacProcess+0x882>
 80085b2:	2302      	movs	r3, #2
 80085b4:	f88d 3068 	strb.w	r3, [sp, #104]	; 0x68
 80085b8:	f505 73f0 	add.w	r3, r5, #480	; 0x1e0
 80085bc:	9318      	str	r3, [sp, #96]	; 0x60
 80085be:	f895 0040 	ldrb.w	r0, [r5, #64]	; 0x40
 80085c2:	f505 731d 	add.w	r3, r5, #628	; 0x274
 80085c6:	a918      	add	r1, sp, #96	; 0x60
 80085c8:	9319      	str	r3, [sp, #100]	; 0x64
 80085ca:	f001 ff20 	bl	800a40e <RegionInitDefaults>
 80085ce:	f884 6414 	strb.w	r6, [r4, #1044]	; 0x414
 80085d2:	f884 643c 	strb.w	r6, [r4, #1084]	; 0x43c
 80085d6:	f894 3412 	ldrb.w	r3, [r4, #1042]	; 0x412
 80085da:	f884 343d 	strb.w	r3, [r4, #1085]	; 0x43d
 80085de:	e78f      	b.n	8008500 <LoRaMacProcess+0x7ac>
 80085e0:	2a00      	cmp	r2, #0
 80085e2:	d0d7      	beq.n	8008594 <LoRaMacProcess+0x840>
 80085e4:	e78c      	b.n	8008500 <LoRaMacProcess+0x7ac>
 80085e6:	b025      	add	sp, #148	; 0x94
 80085e8:	e8bd 8ff0 	ldmia.w	sp!, {r4, r5, r6, r7, r8, r9, sl, fp, pc}
 80085ec:	20000d40 	.word	0x20000d40
 80085f0:	200017d4 	.word	0x200017d4

080085f4 <LoRaMacInitialization>:
 80085f4:	e92d 4ff0 	stmdb	sp!, {r4, r5, r6, r7, r8, r9, sl, fp, lr}
 80085f8:	4689      	mov	r9, r1
 80085fa:	b08b      	sub	sp, #44	; 0x2c
 80085fc:	4692      	mov	sl, r2
 80085fe:	4607      	mov	r7, r0
 8008600:	2800      	cmp	r0, #0
 8008602:	f000 818f 	beq.w	8008924 <LoRaMacInitialization+0x330>
 8008606:	2900      	cmp	r1, #0
 8008608:	f000 818c 	beq.w	8008924 <LoRaMacInitialization+0x330>
 800860c:	6803      	ldr	r3, [r0, #0]
 800860e:	2b00      	cmp	r3, #0
 8008610:	f000 8188 	beq.w	8008924 <LoRaMacInitialization+0x330>
 8008614:	6843      	ldr	r3, [r0, #4]
 8008616:	2b00      	cmp	r3, #0
 8008618:	f000 8184 	beq.w	8008924 <LoRaMacInitialization+0x330>
 800861c:	6883      	ldr	r3, [r0, #8]
 800861e:	2b00      	cmp	r3, #0
 8008620:	f000 8180 	beq.w	8008924 <LoRaMacInitialization+0x330>
 8008624:	68c3      	ldr	r3, [r0, #12]
 8008626:	2b00      	cmp	r3, #0
 8008628:	f000 817c 	beq.w	8008924 <LoRaMacInitialization+0x330>
 800862c:	4610      	mov	r0, r2
 800862e:	f001 feda 	bl	800a3e6 <RegionIsActive>
 8008632:	2800      	cmp	r0, #0
 8008634:	f000 8178 	beq.w	8008928 <LoRaMacInitialization+0x334>
 8008638:	4cbd      	ldr	r4, [pc, #756]	; (8008930 <LoRaMacInitialization+0x33c>)
 800863a:	4dbe      	ldr	r5, [pc, #760]	; (8008934 <LoRaMacInitialization+0x340>)
 800863c:	4638      	mov	r0, r7
 800863e:	f001 f98d 	bl	800995c <LoRaMacConfirmQueueInit>
 8008642:	f44f 62e5 	mov.w	r2, #1832	; 0x728
 8008646:	2100      	movs	r1, #0
 8008648:	4620      	mov	r0, r4
 800864a:	f003 f855 	bl	800b6f8 <memset1>
 800864e:	f240 520c 	movw	r2, #1292	; 0x50c
 8008652:	2100      	movs	r1, #0
 8008654:	4628      	mov	r0, r5
 8008656:	f003 f84f 	bl	800b6f8 <memset1>
 800865a:	4bb7      	ldr	r3, [pc, #732]	; (8008938 <LoRaMacInitialization+0x344>)
 800865c:	f8c4 3114 	str.w	r3, [r4, #276]	; 0x114
 8008660:	2600      	movs	r6, #0
 8008662:	f04f 0801 	mov.w	r8, #1
 8008666:	230f      	movs	r3, #15
 8008668:	a905      	add	r1, sp, #20
 800866a:	4650      	mov	r0, sl
 800866c:	f88d 3014 	strb.w	r3, [sp, #20]
 8008670:	f884 a040 	strb.w	sl, [r4, #64]	; 0x40
 8008674:	f884 6104 	strb.w	r6, [r4, #260]	; 0x104
 8008678:	f884 6080 	strb.w	r6, [r4, #128]	; 0x80
 800867c:	f885 8412 	strb.w	r8, [r5, #1042]	; 0x412
 8008680:	f885 8411 	strb.w	r8, [r5, #1041]	; 0x411
 8008684:	f001 feb3 	bl	800a3ee <RegionGetPhyParam>
 8008688:	1b80      	subs	r0, r0, r6
 800868a:	bf18      	it	ne
 800868c:	2001      	movne	r0, #1
 800868e:	f04f 0b0a 	mov.w	fp, #10
 8008692:	f884 0108 	strb.w	r0, [r4, #264]	; 0x108
 8008696:	a905      	add	r1, sp, #20
 8008698:	f894 0040 	ldrb.w	r0, [r4, #64]	; 0x40
 800869c:	f88d b014 	strb.w	fp, [sp, #20]
 80086a0:	f001 fea5 	bl	800a3ee <RegionGetPhyParam>
 80086a4:	f04f 0a06 	mov.w	sl, #6
 80086a8:	f884 00cc 	strb.w	r0, [r4, #204]	; 0xcc
 80086ac:	a905      	add	r1, sp, #20
 80086ae:	f894 0040 	ldrb.w	r0, [r4, #64]	; 0x40
 80086b2:	f88d a014 	strb.w	sl, [sp, #20]
 80086b6:	f001 fe9a 	bl	800a3ee <RegionGetPhyParam>
 80086ba:	2310      	movs	r3, #16
 80086bc:	f884 00cd 	strb.w	r0, [r4, #205]	; 0xcd
 80086c0:	a905      	add	r1, sp, #20
 80086c2:	f894 0040 	ldrb.w	r0, [r4, #64]	; 0x40
 80086c6:	f88d 3014 	strb.w	r3, [sp, #20]
 80086ca:	f001 fe90 	bl	800a3ee <RegionGetPhyParam>
 80086ce:	2311      	movs	r3, #17
 80086d0:	f8c4 0090 	str.w	r0, [r4, #144]	; 0x90
 80086d4:	a905      	add	r1, sp, #20
 80086d6:	f894 0040 	ldrb.w	r0, [r4, #64]	; 0x40
 80086da:	f88d 3014 	strb.w	r3, [sp, #20]
 80086de:	f001 fe86 	bl	800a3ee <RegionGetPhyParam>
 80086e2:	2312      	movs	r3, #18
 80086e4:	f8c4 0094 	str.w	r0, [r4, #148]	; 0x94
 80086e8:	a905      	add	r1, sp, #20
 80086ea:	f894 0040 	ldrb.w	r0, [r4, #64]	; 0x40
 80086ee:	f88d 3014 	strb.w	r3, [sp, #20]
 80086f2:	f001 fe7c 	bl	800a3ee <RegionGetPhyParam>
 80086f6:	2313      	movs	r3, #19
 80086f8:	f8c4 0098 	str.w	r0, [r4, #152]	; 0x98
 80086fc:	a905      	add	r1, sp, #20
 80086fe:	f894 0040 	ldrb.w	r0, [r4, #64]	; 0x40
 8008702:	f88d 3014 	strb.w	r3, [sp, #20]
 8008706:	f001 fe72 	bl	800a3ee <RegionGetPhyParam>
 800870a:	2314      	movs	r3, #20
 800870c:	eb0d 0103 	add.w	r1, sp, r3
 8008710:	f8c4 009c 	str.w	r0, [r4, #156]	; 0x9c
 8008714:	f894 0040 	ldrb.w	r0, [r4, #64]	; 0x40
 8008718:	f88d 3014 	strb.w	r3, [sp, #20]
 800871c:	f001 fe67 	bl	800a3ee <RegionGetPhyParam>
 8008720:	2317      	movs	r3, #23
 8008722:	f8c4 00a0 	str.w	r0, [r4, #160]	; 0xa0
 8008726:	a905      	add	r1, sp, #20
 8008728:	f894 0040 	ldrb.w	r0, [r4, #64]	; 0x40
 800872c:	f88d 3014 	strb.w	r3, [sp, #20]
 8008730:	f001 fe5d 	bl	800a3ee <RegionGetPhyParam>
 8008734:	2318      	movs	r3, #24
 8008736:	f884 00a5 	strb.w	r0, [r4, #165]	; 0xa5
 800873a:	a905      	add	r1, sp, #20
 800873c:	f894 0040 	ldrb.w	r0, [r4, #64]	; 0x40
 8008740:	f88d 3014 	strb.w	r3, [sp, #20]
 8008744:	f001 fe53 	bl	800a3ee <RegionGetPhyParam>
 8008748:	2319      	movs	r3, #25
 800874a:	f8c4 00a8 	str.w	r0, [r4, #168]	; 0xa8
 800874e:	f8c4 00b0 	str.w	r0, [r4, #176]	; 0xb0
 8008752:	a905      	add	r1, sp, #20
 8008754:	f894 0040 	ldrb.w	r0, [r4, #64]	; 0x40
 8008758:	f88d 3014 	strb.w	r3, [sp, #20]
 800875c:	f001 fe47 	bl	800a3ee <RegionGetPhyParam>
 8008760:	b2c0      	uxtb	r0, r0
 8008762:	231e      	movs	r3, #30
 8008764:	f884 00ac 	strb.w	r0, [r4, #172]	; 0xac
 8008768:	f884 00b4 	strb.w	r0, [r4, #180]	; 0xb4
 800876c:	a905      	add	r1, sp, #20
 800876e:	f894 0040 	ldrb.w	r0, [r4, #64]	; 0x40
 8008772:	f88d 3014 	strb.w	r3, [sp, #20]
 8008776:	f001 fe3a 	bl	800a3ee <RegionGetPhyParam>
 800877a:	231f      	movs	r3, #31
 800877c:	f884 00b8 	strb.w	r0, [r4, #184]	; 0xb8
 8008780:	a905      	add	r1, sp, #20
 8008782:	f894 0040 	ldrb.w	r0, [r4, #64]	; 0x40
 8008786:	f88d 3014 	strb.w	r3, [sp, #20]
 800878a:	f001 fe30 	bl	800a3ee <RegionGetPhyParam>
 800878e:	2320      	movs	r3, #32
 8008790:	f884 00b9 	strb.w	r0, [r4, #185]	; 0xb9
 8008794:	a905      	add	r1, sp, #20
 8008796:	f894 0040 	ldrb.w	r0, [r4, #64]	; 0x40
 800879a:	f88d 3014 	strb.w	r3, [sp, #20]
 800879e:	f001 fe26 	bl	800a3ee <RegionGetPhyParam>
 80087a2:	2321      	movs	r3, #33	; 0x21
 80087a4:	f8c4 00bc 	str.w	r0, [r4, #188]	; 0xbc
 80087a8:	a905      	add	r1, sp, #20
 80087aa:	f894 0040 	ldrb.w	r0, [r4, #64]	; 0x40
 80087ae:	f88d 3014 	strb.w	r3, [sp, #20]
 80087b2:	f001 fe1c 	bl	800a3ee <RegionGetPhyParam>
 80087b6:	230b      	movs	r3, #11
 80087b8:	f8c4 00c0 	str.w	r0, [r4, #192]	; 0xc0
 80087bc:	a905      	add	r1, sp, #20
 80087be:	f894 0040 	ldrb.w	r0, [r4, #64]	; 0x40
 80087c2:	f88d 3014 	strb.w	r3, [sp, #20]
 80087c6:	f001 fe12 	bl	800a3ee <RegionGetPhyParam>
 80087ca:	230c      	movs	r3, #12
 80087cc:	f8a5 03f4 	strh.w	r0, [r5, #1012]	; 0x3f4
 80087d0:	a905      	add	r1, sp, #20
 80087d2:	f894 0040 	ldrb.w	r0, [r4, #64]	; 0x40
 80087d6:	f88d 3014 	strb.w	r3, [sp, #20]
 80087da:	f001 fe08 	bl	800a3ee <RegionGetPhyParam>
 80087de:	f8d4 3090 	ldr.w	r3, [r4, #144]	; 0x90
 80087e2:	64e3      	str	r3, [r4, #76]	; 0x4c
 80087e4:	f8d4 3094 	ldr.w	r3, [r4, #148]	; 0x94
 80087e8:	6523      	str	r3, [r4, #80]	; 0x50
 80087ea:	f8d4 3098 	ldr.w	r3, [r4, #152]	; 0x98
 80087ee:	6563      	str	r3, [r4, #84]	; 0x54
 80087f0:	f8d4 309c 	ldr.w	r3, [r4, #156]	; 0x9c
 80087f4:	65a3      	str	r3, [r4, #88]	; 0x58
 80087f6:	f8d4 30a0 	ldr.w	r3, [r4, #160]	; 0xa0
 80087fa:	65e3      	str	r3, [r4, #92]	; 0x5c
 80087fc:	f504 73f0 	add.w	r3, r4, #480	; 0x1e0
 8008800:	a907      	add	r1, sp, #28
 8008802:	9004      	str	r0, [sp, #16]
 8008804:	f8a5 03f6 	strh.w	r0, [r5, #1014]	; 0x3f6
 8008808:	9307      	str	r3, [sp, #28]
 800880a:	f894 0040 	ldrb.w	r0, [r4, #64]	; 0x40
 800880e:	f88d 6024 	strb.w	r6, [sp, #36]	; 0x24
 8008812:	f504 731d 	add.w	r3, r4, #628	; 0x274
 8008816:	9308      	str	r3, [sp, #32]
 8008818:	f884 80a4 	strb.w	r8, [r4, #164]	; 0xa4
 800881c:	f8c4 b088 	str.w	fp, [r4, #136]	; 0x88
 8008820:	f884 a08c 	strb.w	sl, [r4, #140]	; 0x8c
 8008824:	f8c4 b044 	str.w	fp, [r4, #68]	; 0x44
 8008828:	f884 a048 	strb.w	sl, [r4, #72]	; 0x48
 800882c:	f884 8060 	strb.w	r8, [r4, #96]	; 0x60
 8008830:	f001 fded 	bl	800a40e <RegionInitDefaults>
 8008834:	f8c5 9348 	str.w	r9, [r5, #840]	; 0x348
 8008838:	f7fe fbf0 	bl	800701c <ResetMacParameters>
 800883c:	4632      	mov	r2, r6
 800883e:	4b3f      	ldr	r3, [pc, #252]	; (800893c <LoRaMacInitialization+0x348>)
 8008840:	9600      	str	r6, [sp, #0]
 8008842:	f04f 31ff 	mov.w	r1, #4294967295
 8008846:	f505 705a 	add.w	r0, r5, #872	; 0x368
 800884a:	e9c4 660b 	strd	r6, r6, [r4, #44]	; 0x2c
 800884e:	f8c5 7344 	str.w	r7, [r5, #836]	; 0x344
 8008852:	f885 6485 	strb.w	r6, [r5, #1157]	; 0x485
 8008856:	f884 8105 	strb.w	r8, [r4, #261]	; 0x105
 800885a:	f8c5 8340 	str.w	r8, [r5, #832]	; 0x340
 800885e:	f005 f945 	bl	800daec <UTIL_TIMER_Create>
 8008862:	4632      	mov	r2, r6
 8008864:	4b36      	ldr	r3, [pc, #216]	; (8008940 <LoRaMacInitialization+0x34c>)
 8008866:	9600      	str	r6, [sp, #0]
 8008868:	f04f 31ff 	mov.w	r1, #4294967295
 800886c:	f505 7060 	add.w	r0, r5, #896	; 0x380
 8008870:	f005 f93c 	bl	800daec <UTIL_TIMER_Create>
 8008874:	4632      	mov	r2, r6
 8008876:	4b33      	ldr	r3, [pc, #204]	; (8008944 <LoRaMacInitialization+0x350>)
 8008878:	9600      	str	r6, [sp, #0]
 800887a:	f04f 31ff 	mov.w	r1, #4294967295
 800887e:	f505 7066 	add.w	r0, r5, #920	; 0x398
 8008882:	f005 f933 	bl	800daec <UTIL_TIMER_Create>
 8008886:	4632      	mov	r2, r6
 8008888:	4b2f      	ldr	r3, [pc, #188]	; (8008948 <LoRaMacInitialization+0x354>)
 800888a:	9600      	str	r6, [sp, #0]
 800888c:	f04f 31ff 	mov.w	r1, #4294967295
 8008890:	ae02      	add	r6, sp, #8
 8008892:	f505 707e 	add.w	r0, r5, #1016	; 0x3f8
 8008896:	f005 f929 	bl	800daec <UTIL_TIMER_Create>
 800889a:	4630      	mov	r0, r6
 800889c:	f004 fed6 	bl	800d64c <SysTimeGetMcuTime>
 80088a0:	e896 0003 	ldmia.w	r6, {r0, r1}
 80088a4:	f504 7386 	add.w	r3, r4, #268	; 0x10c
 80088a8:	e883 0003 	stmia.w	r3, {r0, r1}
 80088ac:	4b27      	ldr	r3, [pc, #156]	; (800894c <LoRaMacInitialization+0x358>)
 80088ae:	f8c5 334c 	str.w	r3, [r5, #844]	; 0x34c
 80088b2:	4b27      	ldr	r3, [pc, #156]	; (8008950 <LoRaMacInitialization+0x35c>)
 80088b4:	f8c5 3354 	str.w	r3, [r5, #852]	; 0x354
 80088b8:	4b26      	ldr	r3, [pc, #152]	; (8008954 <LoRaMacInitialization+0x360>)
 80088ba:	f8c5 335c 	str.w	r3, [r5, #860]	; 0x35c
 80088be:	4f26      	ldr	r7, [pc, #152]	; (8008958 <LoRaMacInitialization+0x364>)
 80088c0:	4b26      	ldr	r3, [pc, #152]	; (800895c <LoRaMacInitialization+0x368>)
 80088c2:	f8c5 3350 	str.w	r3, [r5, #848]	; 0x350
 80088c6:	4b26      	ldr	r3, [pc, #152]	; (8008960 <LoRaMacInitialization+0x36c>)
 80088c8:	f8c5 3358 	str.w	r3, [r5, #856]	; 0x358
 80088cc:	f505 7053 	add.w	r0, r5, #844	; 0x34c
 80088d0:	683b      	ldr	r3, [r7, #0]
 80088d2:	4798      	blx	r3
 80088d4:	f8d9 1008 	ldr.w	r1, [r9, #8]
 80088d8:	f504 7090 	add.w	r0, r4, #288	; 0x120
 80088dc:	f7fd fab0 	bl	8005e40 <SecureElementInit>
 80088e0:	b120      	cbz	r0, 80088ec <LoRaMacInitialization+0x2f8>
 80088e2:	2611      	movs	r6, #17
 80088e4:	4630      	mov	r0, r6
 80088e6:	b00b      	add	sp, #44	; 0x2c
 80088e8:	e8bd 8ff0 	ldmia.w	sp!, {r4, r5, r6, r7, r8, r9, sl, fp, pc}
 80088ec:	4620      	mov	r0, r4
 80088ee:	f001 fa11 	bl	8009d14 <LoRaMacCryptoInit>
 80088f2:	2800      	cmp	r0, #0
 80088f4:	d1f5      	bne.n	80088e2 <LoRaMacInitialization+0x2ee>
 80088f6:	f000 ff0f 	bl	8009718 <LoRaMacCommandsInit>
 80088fa:	b9b8      	cbnz	r0, 800892c <LoRaMacInitialization+0x338>
 80088fc:	4819      	ldr	r0, [pc, #100]	; (8008964 <LoRaMacInitialization+0x370>)
 80088fe:	f001 fa6f 	bl	8009de0 <LoRaMacCryptoSetMulticastReference>
 8008902:	4606      	mov	r6, r0
 8008904:	2800      	cmp	r0, #0
 8008906:	d1ec      	bne.n	80088e2 <LoRaMacInitialization+0x2ee>
 8008908:	697b      	ldr	r3, [r7, #20]
 800890a:	4798      	blx	r3
 800890c:	f002 febe 	bl	800b68c <srand1>
 8008910:	6dbb      	ldr	r3, [r7, #88]	; 0x58
 8008912:	f894 0105 	ldrb.w	r0, [r4, #261]	; 0x105
 8008916:	4798      	blx	r3
 8008918:	6afb      	ldr	r3, [r7, #44]	; 0x2c
 800891a:	4798      	blx	r3
 800891c:	2301      	movs	r3, #1
 800891e:	f885 3486 	strb.w	r3, [r5, #1158]	; 0x486
 8008922:	e7df      	b.n	80088e4 <LoRaMacInitialization+0x2f0>
 8008924:	2603      	movs	r6, #3
 8008926:	e7dd      	b.n	80088e4 <LoRaMacInitialization+0x2f0>
 8008928:	2609      	movs	r6, #9
 800892a:	e7db      	b.n	80088e4 <LoRaMacInitialization+0x2f0>
 800892c:	2613      	movs	r6, #19
 800892e:	e7d9      	b.n	80088e4 <LoRaMacInitialization+0x2f0>
 8008930:	20000d40 	.word	0x20000d40
 8008934:	2000146c 	.word	0x2000146c
 8008938:	01000300 	.word	0x01000300
 800893c:	08007ce5 	.word	0x08007ce5
 8008940:	0800758d 	.word	0x0800758d
 8008944:	080075cd 	.word	0x080075cd
 8008948:	08006e41 	.word	0x08006e41
 800894c:	08006fd1 	.word	0x08006fd1
 8008950:	08006f89 	.word	0x08006f89
 8008954:	08006da5 	.word	0x08006da5
 8008958:	0800ee40 	.word	0x0800ee40
 800895c:	08006d81 	.word	0x08006d81
 8008960:	08006dc9 	.word	0x08006dc9
 8008964:	20000e18 	.word	0x20000e18

08008968 <LoRaMacStart>:
 8008968:	4b02      	ldr	r3, [pc, #8]	; (8008974 <LoRaMacStart+0xc>)
 800896a:	2000      	movs	r0, #0
 800896c:	f8c3 0340 	str.w	r0, [r3, #832]	; 0x340
 8008970:	4770      	bx	lr
 8008972:	bf00      	nop
 8008974:	2000146c 	.word	0x2000146c

08008978 <LoRaMacStop>:
 8008978:	b508      	push	{r3, lr}
 800897a:	f7ff f9dd 	bl	8007d38 <LoRaMacIsBusy>
 800897e:	4b06      	ldr	r3, [pc, #24]	; (8008998 <LoRaMacStop+0x20>)
 8008980:	b918      	cbnz	r0, 800898a <LoRaMacStop+0x12>
 8008982:	2201      	movs	r2, #1
 8008984:	f8c3 2340 	str.w	r2, [r3, #832]	; 0x340
 8008988:	bd08      	pop	{r3, pc}
 800898a:	f8d3 0340 	ldr.w	r0, [r3, #832]	; 0x340
 800898e:	3801      	subs	r0, #1
 8008990:	bf18      	it	ne
 8008992:	2001      	movne	r0, #1
 8008994:	e7f8      	b.n	8008988 <LoRaMacStop+0x10>
 8008996:	bf00      	nop
 8008998:	2000146c 	.word	0x2000146c

0800899c <LoRaMacHalt>:
 800899c:	b538      	push	{r3, r4, r5, lr}
 800899e:	4c13      	ldr	r4, [pc, #76]	; (80089ec <LoRaMacHalt+0x50>)
 80089a0:	f504 705a 	add.w	r0, r4, #872	; 0x368
 80089a4:	f005 f900 	bl	800dba8 <UTIL_TIMER_Stop>
 80089a8:	f504 7060 	add.w	r0, r4, #896	; 0x380
 80089ac:	f005 f8fc 	bl	800dba8 <UTIL_TIMER_Stop>
 80089b0:	f504 7066 	add.w	r0, r4, #920	; 0x398
 80089b4:	f005 f8f8 	bl	800dba8 <UTIL_TIMER_Stop>
 80089b8:	f504 707e 	add.w	r0, r4, #1016	; 0x3f8
 80089bc:	f005 f8f4 	bl	800dba8 <UTIL_TIMER_Stop>
 80089c0:	f000 fe96 	bl	80096f0 <LoRaMacClassBHaltBeaconing>
 80089c4:	4b0a      	ldr	r3, [pc, #40]	; (80089f0 <LoRaMacHalt+0x54>)
 80089c6:	2500      	movs	r5, #0
 80089c8:	6adb      	ldr	r3, [r3, #44]	; 0x2c
 80089ca:	4798      	blx	r3
 80089cc:	f8c4 5340 	str.w	r5, [r4, #832]	; 0x340
 80089d0:	f7fe fe20 	bl	8007614 <LoRaMacHandleNvm.part.0.constprop.0>
 80089d4:	4907      	ldr	r1, [pc, #28]	; (80089f4 <LoRaMacHalt+0x58>)
 80089d6:	4808      	ldr	r0, [pc, #32]	; (80089f8 <LoRaMacHalt+0x5c>)
 80089d8:	f44f 62e5 	mov.w	r2, #1832	; 0x728
 80089dc:	f002 fe78 	bl	800b6d0 <memcpy1>
 80089e0:	2301      	movs	r3, #1
 80089e2:	f8c4 3340 	str.w	r3, [r4, #832]	; 0x340
 80089e6:	4628      	mov	r0, r5
 80089e8:	bd38      	pop	{r3, r4, r5, pc}
 80089ea:	bf00      	nop
 80089ec:	2000146c 	.word	0x2000146c
 80089f0:	0800ee40 	.word	0x0800ee40
 80089f4:	20000d40 	.word	0x20000d40
 80089f8:	20000618 	.word	0x20000618

080089fc <LoRaMacQueryTxPossible>:
 80089fc:	b530      	push	{r4, r5, lr}
 80089fe:	4b29      	ldr	r3, [pc, #164]	; (8008aa4 <LoRaMacQueryTxPossible+0xa8>)
 8008a00:	b089      	sub	sp, #36	; 0x24
 8008a02:	4605      	mov	r5, r0
 8008a04:	f893 00cd 	ldrb.w	r0, [r3, #205]	; 0xcd
 8008a08:	f88d 0002 	strb.w	r0, [sp, #2]
 8008a0c:	f893 00cc 	ldrb.w	r0, [r3, #204]	; 0xcc
 8008a10:	6a9a      	ldr	r2, [r3, #40]	; 0x28
 8008a12:	f88d 0003 	strb.w	r0, [sp, #3]
 8008a16:	2000      	movs	r0, #0
 8008a18:	9201      	str	r2, [sp, #4]
 8008a1a:	9002      	str	r0, [sp, #8]
 8008a1c:	460c      	mov	r4, r1
 8008a1e:	2900      	cmp	r1, #0
 8008a20:	d03c      	beq.n	8008a9c <LoRaMacQueryTxPossible+0xa0>
 8008a22:	9205      	str	r2, [sp, #20]
 8008a24:	4a20      	ldr	r2, [pc, #128]	; (8008aa8 <LoRaMacQueryTxPossible+0xac>)
 8008a26:	f8d3 1114 	ldr.w	r1, [r3, #276]	; 0x114
 8008a2a:	f8d2 23f4 	ldr.w	r2, [r2, #1012]	; 0x3f4
 8008a2e:	9206      	str	r2, [sp, #24]
 8008a30:	8f1a      	ldrh	r2, [r3, #56]	; 0x38
 8008a32:	9103      	str	r1, [sp, #12]
 8008a34:	ba52      	rev16	r2, r2
 8008a36:	f893 1106 	ldrb.w	r1, [r3, #262]	; 0x106
 8008a3a:	f8ad 201c 	strh.w	r2, [sp, #28]
 8008a3e:	f893 2074 	ldrb.w	r2, [r3, #116]	; 0x74
 8008a42:	f893 3040 	ldrb.w	r3, [r3, #64]	; 0x40
 8008a46:	f88d 0010 	strb.w	r0, [sp, #16]
 8008a4a:	f88d 1011 	strb.w	r1, [sp, #17]
 8008a4e:	f88d 201e 	strb.w	r2, [sp, #30]
 8008a52:	f88d 301f 	strb.w	r3, [sp, #31]
 8008a56:	f10d 0203 	add.w	r2, sp, #3
 8008a5a:	ab01      	add	r3, sp, #4
 8008a5c:	f10d 0102 	add.w	r1, sp, #2
 8008a60:	a803      	add	r0, sp, #12
 8008a62:	f000 fdc3 	bl	80095ec <LoRaMacAdrCalcNext>
 8008a66:	f99d 0002 	ldrsb.w	r0, [sp, #2]
 8008a6a:	f7fe f9cd 	bl	8006e08 <GetMaxAppPayloadWithoutFOptsLength>
 8008a6e:	7060      	strb	r0, [r4, #1]
 8008a70:	a802      	add	r0, sp, #8
 8008a72:	f000 fefb 	bl	800986c <LoRaMacCommandsGetSizeSerializedCmds>
 8008a76:	b998      	cbnz	r0, 8008aa0 <LoRaMacQueryTxPossible+0xa4>
 8008a78:	9b02      	ldr	r3, [sp, #8]
 8008a7a:	2b0f      	cmp	r3, #15
 8008a7c:	d80a      	bhi.n	8008a94 <LoRaMacQueryTxPossible+0x98>
 8008a7e:	7862      	ldrb	r2, [r4, #1]
 8008a80:	4293      	cmp	r3, r2
 8008a82:	d807      	bhi.n	8008a94 <LoRaMacQueryTxPossible+0x98>
 8008a84:	1ad1      	subs	r1, r2, r3
 8008a86:	442b      	add	r3, r5
 8008a88:	7021      	strb	r1, [r4, #0]
 8008a8a:	429a      	cmp	r2, r3
 8008a8c:	bf38      	it	cc
 8008a8e:	2008      	movcc	r0, #8
 8008a90:	b009      	add	sp, #36	; 0x24
 8008a92:	bd30      	pop	{r4, r5, pc}
 8008a94:	2300      	movs	r3, #0
 8008a96:	7023      	strb	r3, [r4, #0]
 8008a98:	2008      	movs	r0, #8
 8008a9a:	e7f9      	b.n	8008a90 <LoRaMacQueryTxPossible+0x94>
 8008a9c:	2003      	movs	r0, #3
 8008a9e:	e7f7      	b.n	8008a90 <LoRaMacQueryTxPossible+0x94>
 8008aa0:	2013      	movs	r0, #19
 8008aa2:	e7f5      	b.n	8008a90 <LoRaMacQueryTxPossible+0x94>
 8008aa4:	20000d40 	.word	0x20000d40
 8008aa8:	2000146c 	.word	0x2000146c

08008aac <LoRaMacMibGetRequestConfirm>:
 8008aac:	b51f      	push	{r0, r1, r2, r3, r4, lr}
 8008aae:	4604      	mov	r4, r0
 8008ab0:	2800      	cmp	r0, #0
 8008ab2:	f000 80b0 	beq.w	8008c16 <LoRaMacMibGetRequestConfirm+0x16a>
 8008ab6:	7800      	ldrb	r0, [r0, #0]
 8008ab8:	2837      	cmp	r0, #55	; 0x37
 8008aba:	f200 80a6 	bhi.w	8008c0a <LoRaMacMibGetRequestConfirm+0x15e>
 8008abe:	e8df f000 	tbb	[pc, r0]
 8008ac2:	221c      	.short	0x221c
 8008ac4:	332f2c27 	.word	0x332f2c27
 8008ac8:	a4a4a438 	.word	0xa4a4a438
 8008acc:	a4a4a4a4 	.word	0xa4a4a4a4
 8008ad0:	44403ca4 	.word	0x44403ca4
 8008ad4:	5b58554e 	.word	0x5b58554e
 8008ad8:	66625e60 	.word	0x66625e60
 8008adc:	726f6c69 	.word	0x726f6c69
 8008ae0:	7d817975 	.word	0x7d817975
 8008ae4:	948c8885 	.word	0x948c8885
 8008ae8:	98a49290 	.word	0x98a49290
 8008aec:	a4a4a4a4 	.word	0xa4a4a4a4
 8008af0:	a4a4a4a4 	.word	0xa4a4a4a4
 8008af4:	a4a4a4a4 	.word	0xa4a4a4a4
 8008af8:	a0a4      	.short	0xa0a4
 8008afa:	4b48      	ldr	r3, [pc, #288]	; (8008c1c <LoRaMacMibGetRequestConfirm+0x170>)
 8008afc:	f893 3104 	ldrb.w	r3, [r3, #260]	; 0x104
 8008b00:	7123      	strb	r3, [r4, #4]
 8008b02:	b004      	add	sp, #16
 8008b04:	bd10      	pop	{r4, pc}
 8008b06:	4b45      	ldr	r3, [pc, #276]	; (8008c1c <LoRaMacMibGetRequestConfirm+0x170>)
 8008b08:	f893 3118 	ldrb.w	r3, [r3, #280]	; 0x118
 8008b0c:	7123      	strb	r3, [r4, #4]
 8008b0e:	e002      	b.n	8008b16 <LoRaMacMibGetRequestConfirm+0x6a>
 8008b10:	f7fd fb1c 	bl	800614c <SecureElementGetDevEui>
 8008b14:	6060      	str	r0, [r4, #4]
 8008b16:	2000      	movs	r0, #0
 8008b18:	e7f3      	b.n	8008b02 <LoRaMacMibGetRequestConfirm+0x56>
 8008b1a:	f7fd fb2d 	bl	8006178 <SecureElementGetJoinEui>
 8008b1e:	e7f9      	b.n	8008b14 <LoRaMacMibGetRequestConfirm+0x68>
 8008b20:	4b3e      	ldr	r3, [pc, #248]	; (8008c1c <LoRaMacMibGetRequestConfirm+0x170>)
 8008b22:	f893 3106 	ldrb.w	r3, [r3, #262]	; 0x106
 8008b26:	e7f1      	b.n	8008b0c <LoRaMacMibGetRequestConfirm+0x60>
 8008b28:	4b3c      	ldr	r3, [pc, #240]	; (8008c1c <LoRaMacMibGetRequestConfirm+0x170>)
 8008b2a:	f8d3 30d0 	ldr.w	r3, [r3, #208]	; 0xd0
 8008b2e:	6063      	str	r3, [r4, #4]
 8008b30:	e7f1      	b.n	8008b16 <LoRaMacMibGetRequestConfirm+0x6a>
 8008b32:	4b3a      	ldr	r3, [pc, #232]	; (8008c1c <LoRaMacMibGetRequestConfirm+0x170>)
 8008b34:	f8d3 30d4 	ldr.w	r3, [r3, #212]	; 0xd4
 8008b38:	e7f9      	b.n	8008b2e <LoRaMacMibGetRequestConfirm+0x82>
 8008b3a:	4b38      	ldr	r3, [pc, #224]	; (8008c1c <LoRaMacMibGetRequestConfirm+0x170>)
 8008b3c:	f893 3105 	ldrb.w	r3, [r3, #261]	; 0x105
 8008b40:	e7e4      	b.n	8008b0c <LoRaMacMibGetRequestConfirm+0x60>
 8008b42:	4b36      	ldr	r3, [pc, #216]	; (8008c1c <LoRaMacMibGetRequestConfirm+0x170>)
 8008b44:	f893 3080 	ldrb.w	r3, [r3, #128]	; 0x80
 8008b48:	e7e0      	b.n	8008b0c <LoRaMacMibGetRequestConfirm+0x60>
 8008b4a:	231d      	movs	r3, #29
 8008b4c:	f88d 3008 	strb.w	r3, [sp, #8]
 8008b50:	4b32      	ldr	r3, [pc, #200]	; (8008c1c <LoRaMacMibGetRequestConfirm+0x170>)
 8008b52:	a902      	add	r1, sp, #8
 8008b54:	f893 0040 	ldrb.w	r0, [r3, #64]	; 0x40
 8008b58:	f001 fc49 	bl	800a3ee <RegionGetPhyParam>
 8008b5c:	e7da      	b.n	8008b14 <LoRaMacMibGetRequestConfirm+0x68>
 8008b5e:	4b30      	ldr	r3, [pc, #192]	; (8008c20 <LoRaMacMibGetRequestConfirm+0x174>)
 8008b60:	3404      	adds	r4, #4
 8008b62:	e893 0003 	ldmia.w	r3, {r0, r1}
 8008b66:	e884 0003 	stmia.w	r4, {r0, r1}
 8008b6a:	e7d4      	b.n	8008b16 <LoRaMacMibGetRequestConfirm+0x6a>
 8008b6c:	4b2d      	ldr	r3, [pc, #180]	; (8008c24 <LoRaMacMibGetRequestConfirm+0x178>)
 8008b6e:	3404      	adds	r4, #4
 8008b70:	e7f7      	b.n	8008b62 <LoRaMacMibGetRequestConfirm+0xb6>
 8008b72:	4b2d      	ldr	r3, [pc, #180]	; (8008c28 <LoRaMacMibGetRequestConfirm+0x17c>)
 8008b74:	3404      	adds	r4, #4
 8008b76:	e7f4      	b.n	8008b62 <LoRaMacMibGetRequestConfirm+0xb6>
 8008b78:	4b2c      	ldr	r3, [pc, #176]	; (8008c2c <LoRaMacMibGetRequestConfirm+0x180>)
 8008b7a:	3404      	adds	r4, #4
 8008b7c:	e7f1      	b.n	8008b62 <LoRaMacMibGetRequestConfirm+0xb6>
 8008b7e:	231b      	movs	r3, #27
 8008b80:	e7e4      	b.n	8008b4c <LoRaMacMibGetRequestConfirm+0xa0>
 8008b82:	231a      	movs	r3, #26
 8008b84:	e7e2      	b.n	8008b4c <LoRaMacMibGetRequestConfirm+0xa0>
 8008b86:	4b25      	ldr	r3, [pc, #148]	; (8008c1c <LoRaMacMibGetRequestConfirm+0x170>)
 8008b88:	f893 3060 	ldrb.w	r3, [r3, #96]	; 0x60
 8008b8c:	e7be      	b.n	8008b0c <LoRaMacMibGetRequestConfirm+0x60>
 8008b8e:	4b23      	ldr	r3, [pc, #140]	; (8008c1c <LoRaMacMibGetRequestConfirm+0x170>)
 8008b90:	6cdb      	ldr	r3, [r3, #76]	; 0x4c
 8008b92:	e7cc      	b.n	8008b2e <LoRaMacMibGetRequestConfirm+0x82>
 8008b94:	4b21      	ldr	r3, [pc, #132]	; (8008c1c <LoRaMacMibGetRequestConfirm+0x170>)
 8008b96:	6d1b      	ldr	r3, [r3, #80]	; 0x50
 8008b98:	e7c9      	b.n	8008b2e <LoRaMacMibGetRequestConfirm+0x82>
 8008b9a:	4b20      	ldr	r3, [pc, #128]	; (8008c1c <LoRaMacMibGetRequestConfirm+0x170>)
 8008b9c:	6d5b      	ldr	r3, [r3, #84]	; 0x54
 8008b9e:	e7c6      	b.n	8008b2e <LoRaMacMibGetRequestConfirm+0x82>
 8008ba0:	4b1e      	ldr	r3, [pc, #120]	; (8008c1c <LoRaMacMibGetRequestConfirm+0x170>)
 8008ba2:	6d9b      	ldr	r3, [r3, #88]	; 0x58
 8008ba4:	e7c3      	b.n	8008b2e <LoRaMacMibGetRequestConfirm+0x82>
 8008ba6:	4b1d      	ldr	r3, [pc, #116]	; (8008c1c <LoRaMacMibGetRequestConfirm+0x170>)
 8008ba8:	6ddb      	ldr	r3, [r3, #92]	; 0x5c
 8008baa:	e7c0      	b.n	8008b2e <LoRaMacMibGetRequestConfirm+0x82>
 8008bac:	4b1b      	ldr	r3, [pc, #108]	; (8008c1c <LoRaMacMibGetRequestConfirm+0x170>)
 8008bae:	f893 30cd 	ldrb.w	r3, [r3, #205]	; 0xcd
 8008bb2:	e7ab      	b.n	8008b0c <LoRaMacMibGetRequestConfirm+0x60>
 8008bb4:	4b19      	ldr	r3, [pc, #100]	; (8008c1c <LoRaMacMibGetRequestConfirm+0x170>)
 8008bb6:	f893 3039 	ldrb.w	r3, [r3, #57]	; 0x39
 8008bba:	e7a7      	b.n	8008b0c <LoRaMacMibGetRequestConfirm+0x60>
 8008bbc:	4b17      	ldr	r3, [pc, #92]	; (8008c1c <LoRaMacMibGetRequestConfirm+0x170>)
 8008bbe:	f893 30cc 	ldrb.w	r3, [r3, #204]	; 0xcc
 8008bc2:	e7a3      	b.n	8008b0c <LoRaMacMibGetRequestConfirm+0x60>
 8008bc4:	4b15      	ldr	r3, [pc, #84]	; (8008c1c <LoRaMacMibGetRequestConfirm+0x170>)
 8008bc6:	f893 3038 	ldrb.w	r3, [r3, #56]	; 0x38
 8008bca:	e79f      	b.n	8008b0c <LoRaMacMibGetRequestConfirm+0x60>
 8008bcc:	4b13      	ldr	r3, [pc, #76]	; (8008c1c <LoRaMacMibGetRequestConfirm+0x170>)
 8008bce:	6c5b      	ldr	r3, [r3, #68]	; 0x44
 8008bd0:	e7ad      	b.n	8008b2e <LoRaMacMibGetRequestConfirm+0x82>
 8008bd2:	4b12      	ldr	r3, [pc, #72]	; (8008c1c <LoRaMacMibGetRequestConfirm+0x170>)
 8008bd4:	f893 3048 	ldrb.w	r3, [r3, #72]	; 0x48
 8008bd8:	e798      	b.n	8008b0c <LoRaMacMibGetRequestConfirm+0x60>
 8008bda:	4b10      	ldr	r3, [pc, #64]	; (8008c1c <LoRaMacMibGetRequestConfirm+0x170>)
 8008bdc:	6fdb      	ldr	r3, [r3, #124]	; 0x7c
 8008bde:	6063      	str	r3, [r4, #4]
 8008be0:	e799      	b.n	8008b16 <LoRaMacMibGetRequestConfirm+0x6a>
 8008be2:	4b0e      	ldr	r3, [pc, #56]	; (8008c1c <LoRaMacMibGetRequestConfirm+0x170>)
 8008be4:	e7a3      	b.n	8008b2e <LoRaMacMibGetRequestConfirm+0x82>
 8008be6:	4b12      	ldr	r3, [pc, #72]	; (8008c30 <LoRaMacMibGetRequestConfirm+0x184>)
 8008be8:	e7a1      	b.n	8008b2e <LoRaMacMibGetRequestConfirm+0x82>
 8008bea:	4b0c      	ldr	r3, [pc, #48]	; (8008c1c <LoRaMacMibGetRequestConfirm+0x170>)
 8008bec:	f8d3 30c0 	ldr.w	r3, [r3, #192]	; 0xc0
 8008bf0:	e7f5      	b.n	8008bde <LoRaMacMibGetRequestConfirm+0x132>
 8008bf2:	4b0a      	ldr	r3, [pc, #40]	; (8008c1c <LoRaMacMibGetRequestConfirm+0x170>)
 8008bf4:	f8d3 3114 	ldr.w	r3, [r3, #276]	; 0x114
 8008bf8:	6063      	str	r3, [r4, #4]
 8008bfa:	f001 fc9d 	bl	800a538 <RegionGetVersion>
 8008bfe:	60a0      	str	r0, [r4, #8]
 8008c00:	e789      	b.n	8008b16 <LoRaMacMibGetRequestConfirm+0x6a>
 8008c02:	4b06      	ldr	r3, [pc, #24]	; (8008c1c <LoRaMacMibGetRequestConfirm+0x170>)
 8008c04:	f8d3 3084 	ldr.w	r3, [r3, #132]	; 0x84
 8008c08:	e791      	b.n	8008b2e <LoRaMacMibGetRequestConfirm+0x82>
 8008c0a:	4620      	mov	r0, r4
 8008c0c:	b004      	add	sp, #16
 8008c0e:	e8bd 4010 	ldmia.w	sp!, {r4, lr}
 8008c12:	f000 bd71 	b.w	80096f8 <LoRaMacClassBMibGetRequestConfirm>
 8008c16:	2003      	movs	r0, #3
 8008c18:	e773      	b.n	8008b02 <LoRaMacMibGetRequestConfirm+0x56>
 8008c1a:	bf00      	nop
 8008c1c:	20000d40 	.word	0x20000d40
 8008c20:	20000da4 	.word	0x20000da4
 8008c24:	20000de8 	.word	0x20000de8
 8008c28:	20000dac 	.word	0x20000dac
 8008c2c:	20000df0 	.word	0x20000df0
 8008c30:	20000618 	.word	0x20000618

08008c34 <LoRaMacMibSetRequestConfirm>:
 8008c34:	b573      	push	{r0, r1, r4, r5, r6, lr}
 8008c36:	4604      	mov	r4, r0
 8008c38:	2800      	cmp	r0, #0
 8008c3a:	d056      	beq.n	8008cea <LoRaMacMibSetRequestConfirm+0xb6>
 8008c3c:	4da0      	ldr	r5, [pc, #640]	; (8008ec0 <LoRaMacMibSetRequestConfirm+0x28c>)
 8008c3e:	f8d5 3340 	ldr.w	r3, [r5, #832]	; 0x340
 8008c42:	079a      	lsls	r2, r3, #30
 8008c44:	f100 8216 	bmi.w	8009074 <LoRaMacMibSetRequestConfirm+0x440>
 8008c48:	7802      	ldrb	r2, [r0, #0]
 8008c4a:	2a37      	cmp	r2, #55	; 0x37
 8008c4c:	f200 820d 	bhi.w	800906a <LoRaMacMibSetRequestConfirm+0x436>
 8008c50:	e8df f012 	tbh	[pc, r2, lsl #1]
 8008c54:	003e0038 	.word	0x003e0038
 8008c58:	004e0046 	.word	0x004e0046
 8008c5c:	00570052 	.word	0x00570052
 8008c60:	0061005c 	.word	0x0061005c
 8008c64:	0070006b 	.word	0x0070006b
 8008c68:	007a0075 	.word	0x007a0075
 8008c6c:	0084007f 	.word	0x0084007f
 8008c70:	008e0089 	.word	0x008e0089
 8008c74:	020b0098 	.word	0x020b0098
 8008c78:	00bd009d 	.word	0x00bd009d
 8008c7c:	00f700d0 	.word	0x00f700d0
 8008c80:	010a0119 	.word	0x010a0119
 8008c84:	0126011d 	.word	0x0126011d
 8008c88:	012e012a 	.word	0x012e012a
 8008c8c:	013c0132 	.word	0x013c0132
 8008c90:	01520140 	.word	0x01520140
 8008c94:	0168017a 	.word	0x0168017a
 8008c98:	0192018c 	.word	0x0192018c
 8008c9c:	019d0199 	.word	0x019d0199
 8008ca0:	020b01a2 	.word	0x020b01a2
 8008ca4:	020b01f7 	.word	0x020b01f7
 8008ca8:	020b020b 	.word	0x020b020b
 8008cac:	020b020b 	.word	0x020b020b
 8008cb0:	020b020b 	.word	0x020b020b
 8008cb4:	020b020b 	.word	0x020b020b
 8008cb8:	020b020b 	.word	0x020b020b
 8008cbc:	020b020b 	.word	0x020b020b
 8008cc0:	0206020b 	.word	0x0206020b
 8008cc4:	7900      	ldrb	r0, [r0, #4]
 8008cc6:	b002      	add	sp, #8
 8008cc8:	e8bd 4070 	ldmia.w	sp!, {r4, r5, r6, lr}
 8008ccc:	f7fe bbd6 	b.w	800747c <SwitchClass>
 8008cd0:	7903      	ldrb	r3, [r0, #4]
 8008cd2:	2b02      	cmp	r3, #2
 8008cd4:	d009      	beq.n	8008cea <LoRaMacMibSetRequestConfirm+0xb6>
 8008cd6:	4a7b      	ldr	r2, [pc, #492]	; (8008ec4 <LoRaMacMibSetRequestConfirm+0x290>)
 8008cd8:	f882 3118 	strb.w	r3, [r2, #280]	; 0x118
 8008cdc:	2000      	movs	r0, #0
 8008cde:	e005      	b.n	8008cec <LoRaMacMibSetRequestConfirm+0xb8>
 8008ce0:	6840      	ldr	r0, [r0, #4]
 8008ce2:	f7fd fa25 	bl	8006130 <SecureElementSetDevEui>
 8008ce6:	2800      	cmp	r0, #0
 8008ce8:	d0f8      	beq.n	8008cdc <LoRaMacMibSetRequestConfirm+0xa8>
 8008cea:	2003      	movs	r0, #3
 8008cec:	b002      	add	sp, #8
 8008cee:	bd70      	pop	{r4, r5, r6, pc}
 8008cf0:	6840      	ldr	r0, [r0, #4]
 8008cf2:	f7fd fa31 	bl	8006158 <SecureElementSetJoinEui>
 8008cf6:	e7f6      	b.n	8008ce6 <LoRaMacMibSetRequestConfirm+0xb2>
 8008cf8:	4b72      	ldr	r3, [pc, #456]	; (8008ec4 <LoRaMacMibSetRequestConfirm+0x290>)
 8008cfa:	7902      	ldrb	r2, [r0, #4]
 8008cfc:	f883 2106 	strb.w	r2, [r3, #262]	; 0x106
 8008d00:	e7ec      	b.n	8008cdc <LoRaMacMibSetRequestConfirm+0xa8>
 8008d02:	4b70      	ldr	r3, [pc, #448]	; (8008ec4 <LoRaMacMibSetRequestConfirm+0x290>)
 8008d04:	6842      	ldr	r2, [r0, #4]
 8008d06:	f8c3 20d0 	str.w	r2, [r3, #208]	; 0xd0
 8008d0a:	e7e7      	b.n	8008cdc <LoRaMacMibSetRequestConfirm+0xa8>
 8008d0c:	4b6d      	ldr	r3, [pc, #436]	; (8008ec4 <LoRaMacMibSetRequestConfirm+0x290>)
 8008d0e:	6842      	ldr	r2, [r0, #4]
 8008d10:	f8c3 20d4 	str.w	r2, [r3, #212]	; 0xd4
 8008d14:	e7e2      	b.n	8008cdc <LoRaMacMibSetRequestConfirm+0xa8>
 8008d16:	6841      	ldr	r1, [r0, #4]
 8008d18:	2900      	cmp	r1, #0
 8008d1a:	d0e6      	beq.n	8008cea <LoRaMacMibSetRequestConfirm+0xb6>
 8008d1c:	2000      	movs	r0, #0
 8008d1e:	f001 f991 	bl	800a044 <LoRaMacCryptoSetKey>
 8008d22:	2800      	cmp	r0, #0
 8008d24:	d0da      	beq.n	8008cdc <LoRaMacMibSetRequestConfirm+0xa8>
 8008d26:	2011      	movs	r0, #17
 8008d28:	e7e0      	b.n	8008cec <LoRaMacMibSetRequestConfirm+0xb8>
 8008d2a:	6841      	ldr	r1, [r0, #4]
 8008d2c:	2900      	cmp	r1, #0
 8008d2e:	d0dc      	beq.n	8008cea <LoRaMacMibSetRequestConfirm+0xb6>
 8008d30:	2001      	movs	r0, #1
 8008d32:	e7f4      	b.n	8008d1e <LoRaMacMibSetRequestConfirm+0xea>
 8008d34:	6841      	ldr	r1, [r0, #4]
 8008d36:	2900      	cmp	r1, #0
 8008d38:	d0d7      	beq.n	8008cea <LoRaMacMibSetRequestConfirm+0xb6>
 8008d3a:	2002      	movs	r0, #2
 8008d3c:	e7ef      	b.n	8008d1e <LoRaMacMibSetRequestConfirm+0xea>
 8008d3e:	6841      	ldr	r1, [r0, #4]
 8008d40:	2900      	cmp	r1, #0
 8008d42:	d0d2      	beq.n	8008cea <LoRaMacMibSetRequestConfirm+0xb6>
 8008d44:	2003      	movs	r0, #3
 8008d46:	e7ea      	b.n	8008d1e <LoRaMacMibSetRequestConfirm+0xea>
 8008d48:	6841      	ldr	r1, [r0, #4]
 8008d4a:	2900      	cmp	r1, #0
 8008d4c:	d0cd      	beq.n	8008cea <LoRaMacMibSetRequestConfirm+0xb6>
 8008d4e:	207f      	movs	r0, #127	; 0x7f
 8008d50:	e7e5      	b.n	8008d1e <LoRaMacMibSetRequestConfirm+0xea>
 8008d52:	6841      	ldr	r1, [r0, #4]
 8008d54:	2900      	cmp	r1, #0
 8008d56:	d0c8      	beq.n	8008cea <LoRaMacMibSetRequestConfirm+0xb6>
 8008d58:	2080      	movs	r0, #128	; 0x80
 8008d5a:	e7e0      	b.n	8008d1e <LoRaMacMibSetRequestConfirm+0xea>
 8008d5c:	6841      	ldr	r1, [r0, #4]
 8008d5e:	2900      	cmp	r1, #0
 8008d60:	d0c3      	beq.n	8008cea <LoRaMacMibSetRequestConfirm+0xb6>
 8008d62:	2081      	movs	r0, #129	; 0x81
 8008d64:	e7db      	b.n	8008d1e <LoRaMacMibSetRequestConfirm+0xea>
 8008d66:	6841      	ldr	r1, [r0, #4]
 8008d68:	2900      	cmp	r1, #0
 8008d6a:	d0be      	beq.n	8008cea <LoRaMacMibSetRequestConfirm+0xb6>
 8008d6c:	2082      	movs	r0, #130	; 0x82
 8008d6e:	e7d6      	b.n	8008d1e <LoRaMacMibSetRequestConfirm+0xea>
 8008d70:	4c55      	ldr	r4, [pc, #340]	; (8008ec8 <LoRaMacMibSetRequestConfirm+0x294>)
 8008d72:	4b54      	ldr	r3, [pc, #336]	; (8008ec4 <LoRaMacMibSetRequestConfirm+0x290>)
 8008d74:	7900      	ldrb	r0, [r0, #4]
 8008d76:	f883 0105 	strb.w	r0, [r3, #261]	; 0x105
 8008d7a:	6da3      	ldr	r3, [r4, #88]	; 0x58
 8008d7c:	4798      	blx	r3
 8008d7e:	6ae3      	ldr	r3, [r4, #44]	; 0x2c
 8008d80:	4798      	blx	r3
 8008d82:	e7ab      	b.n	8008cdc <LoRaMacMibSetRequestConfirm+0xa8>
 8008d84:	4b4f      	ldr	r3, [pc, #316]	; (8008ec4 <LoRaMacMibSetRequestConfirm+0x290>)
 8008d86:	7902      	ldrb	r2, [r0, #4]
 8008d88:	f883 2080 	strb.w	r2, [r3, #128]	; 0x80
 8008d8c:	e7a6      	b.n	8008cdc <LoRaMacMibSetRequestConfirm+0xa8>
 8008d8e:	4d4d      	ldr	r5, [pc, #308]	; (8008ec4 <LoRaMacMibSetRequestConfirm+0x290>)
 8008d90:	7a03      	ldrb	r3, [r0, #8]
 8008d92:	f88d 3000 	strb.w	r3, [sp]
 8008d96:	f895 0040 	ldrb.w	r0, [r5, #64]	; 0x40
 8008d9a:	f895 3075 	ldrb.w	r3, [r5, #117]	; 0x75
 8008d9e:	f88d 3001 	strb.w	r3, [sp, #1]
 8008da2:	2207      	movs	r2, #7
 8008da4:	4669      	mov	r1, sp
 8008da6:	f001 fb38 	bl	800a41a <RegionVerify>
 8008daa:	2800      	cmp	r0, #0
 8008dac:	d09d      	beq.n	8008cea <LoRaMacMibSetRequestConfirm+0xb6>
 8008dae:	6863      	ldr	r3, [r4, #4]
 8008db0:	f895 0040 	ldrb.w	r0, [r5, #64]	; 0x40
 8008db4:	9300      	str	r3, [sp, #0]
 8008db6:	2200      	movs	r2, #0
 8008db8:	4669      	mov	r1, sp
 8008dba:	f001 fb2e 	bl	800a41a <RegionVerify>
 8008dbe:	2800      	cmp	r0, #0
 8008dc0:	d093      	beq.n	8008cea <LoRaMacMibSetRequestConfirm+0xb6>
 8008dc2:	3564      	adds	r5, #100	; 0x64
 8008dc4:	e9d4 0101 	ldrd	r0, r1, [r4, #4]
 8008dc8:	e885 0003 	stmia.w	r5, {r0, r1}
 8008dcc:	e786      	b.n	8008cdc <LoRaMacMibSetRequestConfirm+0xa8>
 8008dce:	4d3d      	ldr	r5, [pc, #244]	; (8008ec4 <LoRaMacMibSetRequestConfirm+0x290>)
 8008dd0:	7a03      	ldrb	r3, [r0, #8]
 8008dd2:	f88d 3000 	strb.w	r3, [sp]
 8008dd6:	f895 0040 	ldrb.w	r0, [r5, #64]	; 0x40
 8008dda:	f895 3075 	ldrb.w	r3, [r5, #117]	; 0x75
 8008dde:	f88d 3001 	strb.w	r3, [sp, #1]
 8008de2:	2207      	movs	r2, #7
 8008de4:	4669      	mov	r1, sp
 8008de6:	f001 fb18 	bl	800a41a <RegionVerify>
 8008dea:	2800      	cmp	r0, #0
 8008dec:	f43f af7d 	beq.w	8008cea <LoRaMacMibSetRequestConfirm+0xb6>
 8008df0:	35a8      	adds	r5, #168	; 0xa8
 8008df2:	e7e7      	b.n	8008dc4 <LoRaMacMibSetRequestConfirm+0x190>
 8008df4:	4d33      	ldr	r5, [pc, #204]	; (8008ec4 <LoRaMacMibSetRequestConfirm+0x290>)
 8008df6:	7a03      	ldrb	r3, [r0, #8]
 8008df8:	f88d 3000 	strb.w	r3, [sp]
 8008dfc:	f895 0040 	ldrb.w	r0, [r5, #64]	; 0x40
 8008e00:	f895 3075 	ldrb.w	r3, [r5, #117]	; 0x75
 8008e04:	f88d 3001 	strb.w	r3, [sp, #1]
 8008e08:	2207      	movs	r2, #7
 8008e0a:	4669      	mov	r1, sp
 8008e0c:	f001 fb05 	bl	800a41a <RegionVerify>
 8008e10:	2800      	cmp	r0, #0
 8008e12:	f43f af6a 	beq.w	8008cea <LoRaMacMibSetRequestConfirm+0xb6>
 8008e16:	e9d4 0101 	ldrd	r0, r1, [r4, #4]
 8008e1a:	f105 036c 	add.w	r3, r5, #108	; 0x6c
 8008e1e:	e883 0003 	stmia.w	r3, {r0, r1}
 8008e22:	f895 3104 	ldrb.w	r3, [r5, #260]	; 0x104
 8008e26:	2b02      	cmp	r3, #2
 8008e28:	f47f af58 	bne.w	8008cdc <LoRaMacMibSetRequestConfirm+0xa8>
 8008e2c:	f895 3118 	ldrb.w	r3, [r5, #280]	; 0x118
 8008e30:	2b00      	cmp	r3, #0
 8008e32:	f43f af53 	beq.w	8008cdc <LoRaMacMibSetRequestConfirm+0xa8>
 8008e36:	4b24      	ldr	r3, [pc, #144]	; (8008ec8 <LoRaMacMibSetRequestConfirm+0x294>)
 8008e38:	6adb      	ldr	r3, [r3, #44]	; 0x2c
 8008e3a:	4798      	blx	r3
 8008e3c:	f7fe faee 	bl	800741c <OpenContinuousRxCWindow>
 8008e40:	e74c      	b.n	8008cdc <LoRaMacMibSetRequestConfirm+0xa8>
 8008e42:	4d20      	ldr	r5, [pc, #128]	; (8008ec4 <LoRaMacMibSetRequestConfirm+0x290>)
 8008e44:	7a03      	ldrb	r3, [r0, #8]
 8008e46:	f88d 3000 	strb.w	r3, [sp]
 8008e4a:	f895 0040 	ldrb.w	r0, [r5, #64]	; 0x40
 8008e4e:	f895 3075 	ldrb.w	r3, [r5, #117]	; 0x75
 8008e52:	f88d 3001 	strb.w	r3, [sp, #1]
 8008e56:	2207      	movs	r2, #7
 8008e58:	4669      	mov	r1, sp
 8008e5a:	f001 fade 	bl	800a41a <RegionVerify>
 8008e5e:	2800      	cmp	r0, #0
 8008e60:	f43f af43 	beq.w	8008cea <LoRaMacMibSetRequestConfirm+0xb6>
 8008e64:	35b0      	adds	r5, #176	; 0xb0
 8008e66:	e7ad      	b.n	8008dc4 <LoRaMacMibSetRequestConfirm+0x190>
 8008e68:	6843      	ldr	r3, [r0, #4]
 8008e6a:	9300      	str	r3, [sp, #0]
 8008e6c:	2301      	movs	r3, #1
 8008e6e:	f88d 3004 	strb.w	r3, [sp, #4]
 8008e72:	4b14      	ldr	r3, [pc, #80]	; (8008ec4 <LoRaMacMibSetRequestConfirm+0x290>)
 8008e74:	4669      	mov	r1, sp
 8008e76:	f893 0040 	ldrb.w	r0, [r3, #64]	; 0x40
 8008e7a:	f001 fadd 	bl	800a438 <RegionChanMaskSet>
 8008e7e:	2800      	cmp	r0, #0
 8008e80:	f47f af2c 	bne.w	8008cdc <LoRaMacMibSetRequestConfirm+0xa8>
 8008e84:	e731      	b.n	8008cea <LoRaMacMibSetRequestConfirm+0xb6>
 8008e86:	6843      	ldr	r3, [r0, #4]
 8008e88:	9300      	str	r3, [sp, #0]
 8008e8a:	2300      	movs	r3, #0
 8008e8c:	e7ef      	b.n	8008e6e <LoRaMacMibSetRequestConfirm+0x23a>
 8008e8e:	7903      	ldrb	r3, [r0, #4]
 8008e90:	1e5a      	subs	r2, r3, #1
 8008e92:	2a0e      	cmp	r2, #14
 8008e94:	f63f af29 	bhi.w	8008cea <LoRaMacMibSetRequestConfirm+0xb6>
 8008e98:	4a0a      	ldr	r2, [pc, #40]	; (8008ec4 <LoRaMacMibSetRequestConfirm+0x290>)
 8008e9a:	f882 3060 	strb.w	r3, [r2, #96]	; 0x60
 8008e9e:	e71d      	b.n	8008cdc <LoRaMacMibSetRequestConfirm+0xa8>
 8008ea0:	4b08      	ldr	r3, [pc, #32]	; (8008ec4 <LoRaMacMibSetRequestConfirm+0x290>)
 8008ea2:	6842      	ldr	r2, [r0, #4]
 8008ea4:	64da      	str	r2, [r3, #76]	; 0x4c
 8008ea6:	e719      	b.n	8008cdc <LoRaMacMibSetRequestConfirm+0xa8>
 8008ea8:	4b06      	ldr	r3, [pc, #24]	; (8008ec4 <LoRaMacMibSetRequestConfirm+0x290>)
 8008eaa:	6842      	ldr	r2, [r0, #4]
 8008eac:	651a      	str	r2, [r3, #80]	; 0x50
 8008eae:	e715      	b.n	8008cdc <LoRaMacMibSetRequestConfirm+0xa8>
 8008eb0:	4b04      	ldr	r3, [pc, #16]	; (8008ec4 <LoRaMacMibSetRequestConfirm+0x290>)
 8008eb2:	6842      	ldr	r2, [r0, #4]
 8008eb4:	655a      	str	r2, [r3, #84]	; 0x54
 8008eb6:	e711      	b.n	8008cdc <LoRaMacMibSetRequestConfirm+0xa8>
 8008eb8:	4b02      	ldr	r3, [pc, #8]	; (8008ec4 <LoRaMacMibSetRequestConfirm+0x290>)
 8008eba:	6842      	ldr	r2, [r0, #4]
 8008ebc:	659a      	str	r2, [r3, #88]	; 0x58
 8008ebe:	e70d      	b.n	8008cdc <LoRaMacMibSetRequestConfirm+0xa8>
 8008ec0:	2000146c 	.word	0x2000146c
 8008ec4:	20000d40 	.word	0x20000d40
 8008ec8:	0800ee40 	.word	0x0800ee40
 8008ecc:	4b6a      	ldr	r3, [pc, #424]	; (8009078 <LoRaMacMibSetRequestConfirm+0x444>)
 8008ece:	6842      	ldr	r2, [r0, #4]
 8008ed0:	65da      	str	r2, [r3, #92]	; 0x5c
 8008ed2:	e703      	b.n	8008cdc <LoRaMacMibSetRequestConfirm+0xa8>
 8008ed4:	4c68      	ldr	r4, [pc, #416]	; (8009078 <LoRaMacMibSetRequestConfirm+0x444>)
 8008ed6:	7903      	ldrb	r3, [r0, #4]
 8008ed8:	f894 0040 	ldrb.w	r0, [r4, #64]	; 0x40
 8008edc:	f88d 3000 	strb.w	r3, [sp]
 8008ee0:	2206      	movs	r2, #6
 8008ee2:	4669      	mov	r1, sp
 8008ee4:	f001 fa99 	bl	800a41a <RegionVerify>
 8008ee8:	2800      	cmp	r0, #0
 8008eea:	f43f aefe 	beq.w	8008cea <LoRaMacMibSetRequestConfirm+0xb6>
 8008eee:	f89d 3000 	ldrb.w	r3, [sp]
 8008ef2:	f884 30cd 	strb.w	r3, [r4, #205]	; 0xcd
 8008ef6:	e6f1      	b.n	8008cdc <LoRaMacMibSetRequestConfirm+0xa8>
 8008ef8:	4c5f      	ldr	r4, [pc, #380]	; (8009078 <LoRaMacMibSetRequestConfirm+0x444>)
 8008efa:	7903      	ldrb	r3, [r0, #4]
 8008efc:	f88d 3000 	strb.w	r3, [sp]
 8008f00:	f894 0040 	ldrb.w	r0, [r4, #64]	; 0x40
 8008f04:	f894 3074 	ldrb.w	r3, [r4, #116]	; 0x74
 8008f08:	f88d 3002 	strb.w	r3, [sp, #2]
 8008f0c:	2205      	movs	r2, #5
 8008f0e:	4669      	mov	r1, sp
 8008f10:	f001 fa83 	bl	800a41a <RegionVerify>
 8008f14:	2800      	cmp	r0, #0
 8008f16:	f43f aee8 	beq.w	8008cea <LoRaMacMibSetRequestConfirm+0xb6>
 8008f1a:	f89d 3000 	ldrb.w	r3, [sp]
 8008f1e:	f884 3039 	strb.w	r3, [r4, #57]	; 0x39
 8008f22:	e6db      	b.n	8008cdc <LoRaMacMibSetRequestConfirm+0xa8>
 8008f24:	4c54      	ldr	r4, [pc, #336]	; (8009078 <LoRaMacMibSetRequestConfirm+0x444>)
 8008f26:	7903      	ldrb	r3, [r0, #4]
 8008f28:	f894 0040 	ldrb.w	r0, [r4, #64]	; 0x40
 8008f2c:	f88d 3000 	strb.w	r3, [sp]
 8008f30:	220a      	movs	r2, #10
 8008f32:	4669      	mov	r1, sp
 8008f34:	f001 fa71 	bl	800a41a <RegionVerify>
 8008f38:	2800      	cmp	r0, #0
 8008f3a:	f43f aed6 	beq.w	8008cea <LoRaMacMibSetRequestConfirm+0xb6>
 8008f3e:	f89d 3000 	ldrb.w	r3, [sp]
 8008f42:	f884 30cc 	strb.w	r3, [r4, #204]	; 0xcc
 8008f46:	e6c9      	b.n	8008cdc <LoRaMacMibSetRequestConfirm+0xa8>
 8008f48:	4c4b      	ldr	r4, [pc, #300]	; (8009078 <LoRaMacMibSetRequestConfirm+0x444>)
 8008f4a:	7903      	ldrb	r3, [r0, #4]
 8008f4c:	f894 0040 	ldrb.w	r0, [r4, #64]	; 0x40
 8008f50:	f88d 3000 	strb.w	r3, [sp]
 8008f54:	2209      	movs	r2, #9
 8008f56:	4669      	mov	r1, sp
 8008f58:	f001 fa5f 	bl	800a41a <RegionVerify>
 8008f5c:	2800      	cmp	r0, #0
 8008f5e:	f43f aec4 	beq.w	8008cea <LoRaMacMibSetRequestConfirm+0xb6>
 8008f62:	f89d 3000 	ldrb.w	r3, [sp]
 8008f66:	f884 3038 	strb.w	r3, [r4, #56]	; 0x38
 8008f6a:	e6b7      	b.n	8008cdc <LoRaMacMibSetRequestConfirm+0xa8>
 8008f6c:	4b42      	ldr	r3, [pc, #264]	; (8009078 <LoRaMacMibSetRequestConfirm+0x444>)
 8008f6e:	6842      	ldr	r2, [r0, #4]
 8008f70:	f8c3 2088 	str.w	r2, [r3, #136]	; 0x88
 8008f74:	645a      	str	r2, [r3, #68]	; 0x44
 8008f76:	e6b1      	b.n	8008cdc <LoRaMacMibSetRequestConfirm+0xa8>
 8008f78:	4b3f      	ldr	r3, [pc, #252]	; (8009078 <LoRaMacMibSetRequestConfirm+0x444>)
 8008f7a:	7902      	ldrb	r2, [r0, #4]
 8008f7c:	f883 208c 	strb.w	r2, [r3, #140]	; 0x8c
 8008f80:	f883 2048 	strb.w	r2, [r3, #72]	; 0x48
 8008f84:	e6aa      	b.n	8008cdc <LoRaMacMibSetRequestConfirm+0xa8>
 8008f86:	4b3c      	ldr	r3, [pc, #240]	; (8009078 <LoRaMacMibSetRequestConfirm+0x444>)
 8008f88:	6842      	ldr	r2, [r0, #4]
 8008f8a:	67da      	str	r2, [r3, #124]	; 0x7c
 8008f8c:	e6a6      	b.n	8008cdc <LoRaMacMibSetRequestConfirm+0xa8>
 8008f8e:	4b3a      	ldr	r3, [pc, #232]	; (8009078 <LoRaMacMibSetRequestConfirm+0x444>)
 8008f90:	6842      	ldr	r2, [r0, #4]
 8008f92:	f8c3 20c0 	str.w	r2, [r3, #192]	; 0xc0
 8008f96:	e6a1      	b.n	8008cdc <LoRaMacMibSetRequestConfirm+0xa8>
 8008f98:	2b01      	cmp	r3, #1
 8008f9a:	d16b      	bne.n	8009074 <LoRaMacMibSetRequestConfirm+0x440>
 8008f9c:	4c37      	ldr	r4, [pc, #220]	; (800907c <LoRaMacMibSetRequestConfirm+0x448>)
 8008f9e:	2124      	movs	r1, #36	; 0x24
 8008fa0:	4620      	mov	r0, r4
 8008fa2:	f002 fbab 	bl	800b6fc <Crc32>
 8008fa6:	6a63      	ldr	r3, [r4, #36]	; 0x24
 8008fa8:	4298      	cmp	r0, r3
 8008faa:	d001      	beq.n	8008fb0 <LoRaMacMibSetRequestConfirm+0x37c>
 8008fac:	2017      	movs	r0, #23
 8008fae:	e69d      	b.n	8008cec <LoRaMacMibSetRequestConfirm+0xb8>
 8008fb0:	2114      	movs	r1, #20
 8008fb2:	f104 0028 	add.w	r0, r4, #40	; 0x28
 8008fb6:	f002 fba1 	bl	800b6fc <Crc32>
 8008fba:	6be3      	ldr	r3, [r4, #60]	; 0x3c
 8008fbc:	4298      	cmp	r0, r3
 8008fbe:	d1f5      	bne.n	8008fac <LoRaMacMibSetRequestConfirm+0x378>
 8008fc0:	21dc      	movs	r1, #220	; 0xdc
 8008fc2:	f104 0040 	add.w	r0, r4, #64	; 0x40
 8008fc6:	f002 fb99 	bl	800b6fc <Crc32>
 8008fca:	f8d4 311c 	ldr.w	r3, [r4, #284]	; 0x11c
 8008fce:	4298      	cmp	r0, r3
 8008fd0:	d1ec      	bne.n	8008fac <LoRaMacMibSetRequestConfirm+0x378>
 8008fd2:	21bc      	movs	r1, #188	; 0xbc
 8008fd4:	f504 7090 	add.w	r0, r4, #288	; 0x120
 8008fd8:	f002 fb90 	bl	800b6fc <Crc32>
 8008fdc:	f8d4 31dc 	ldr.w	r3, [r4, #476]	; 0x1dc
 8008fe0:	4298      	cmp	r0, r3
 8008fe2:	d1e3      	bne.n	8008fac <LoRaMacMibSetRequestConfirm+0x378>
 8008fe4:	2190      	movs	r1, #144	; 0x90
 8008fe6:	f504 70f0 	add.w	r0, r4, #480	; 0x1e0
 8008fea:	f002 fb87 	bl	800b6fc <Crc32>
 8008fee:	f8d4 3270 	ldr.w	r3, [r4, #624]	; 0x270
 8008ff2:	4298      	cmp	r0, r3
 8008ff4:	d1da      	bne.n	8008fac <LoRaMacMibSetRequestConfirm+0x378>
 8008ff6:	2114      	movs	r1, #20
 8008ff8:	f504 60e2 	add.w	r0, r4, #1808	; 0x710
 8008ffc:	f002 fb7e 	bl	800b6fc <Crc32>
 8009000:	f8d4 3724 	ldr.w	r3, [r4, #1828]	; 0x724
 8009004:	4298      	cmp	r0, r3
 8009006:	d1d1      	bne.n	8008fac <LoRaMacMibSetRequestConfirm+0x378>
 8009008:	4e1b      	ldr	r6, [pc, #108]	; (8009078 <LoRaMacMibSetRequestConfirm+0x444>)
 800900a:	f44f 62e5 	mov.w	r2, #1832	; 0x728
 800900e:	4621      	mov	r1, r4
 8009010:	4630      	mov	r0, r6
 8009012:	f002 fb5d 	bl	800b6d0 <memcpy1>
 8009016:	f44f 62e5 	mov.w	r2, #1832	; 0x728
 800901a:	2100      	movs	r1, #0
 800901c:	4620      	mov	r0, r4
 800901e:	f002 fb6b 	bl	800b6f8 <memset1>
 8009022:	f895 3415 	ldrb.w	r3, [r5, #1045]	; 0x415
 8009026:	f885 33e0 	strb.w	r3, [r5, #992]	; 0x3e0
 800902a:	6ef3      	ldr	r3, [r6, #108]	; 0x6c
 800902c:	f8c5 33e4 	str.w	r3, [r5, #996]	; 0x3e4
 8009030:	f896 3075 	ldrb.w	r3, [r6, #117]	; 0x75
 8009034:	f885 33f0 	strb.w	r3, [r5, #1008]	; 0x3f0
 8009038:	f240 2301 	movw	r3, #513	; 0x201
 800903c:	f8a5 33f2 	strh.w	r3, [r5, #1010]	; 0x3f2
 8009040:	e64c      	b.n	8008cdc <LoRaMacMibSetRequestConfirm+0xa8>
 8009042:	7983      	ldrb	r3, [r0, #6]
 8009044:	2b01      	cmp	r3, #1
 8009046:	f63f ae50 	bhi.w	8008cea <LoRaMacMibSetRequestConfirm+0xb6>
 800904a:	4b0b      	ldr	r3, [pc, #44]	; (8009078 <LoRaMacMibSetRequestConfirm+0x444>)
 800904c:	6842      	ldr	r2, [r0, #4]
 800904e:	6840      	ldr	r0, [r0, #4]
 8009050:	f8c3 2114 	str.w	r2, [r3, #276]	; 0x114
 8009054:	f000 fe7a 	bl	8009d4c <LoRaMacCryptoSetLrWanVersion>
 8009058:	2800      	cmp	r0, #0
 800905a:	f43f ae47 	beq.w	8008cec <LoRaMacMibSetRequestConfirm+0xb8>
 800905e:	e662      	b.n	8008d26 <LoRaMacMibSetRequestConfirm+0xf2>
 8009060:	4b05      	ldr	r3, [pc, #20]	; (8009078 <LoRaMacMibSetRequestConfirm+0x444>)
 8009062:	6842      	ldr	r2, [r0, #4]
 8009064:	f8c3 2084 	str.w	r2, [r3, #132]	; 0x84
 8009068:	e638      	b.n	8008cdc <LoRaMacMibSetRequestConfirm+0xa8>
 800906a:	b002      	add	sp, #8
 800906c:	e8bd 4070 	ldmia.w	sp!, {r4, r5, r6, lr}
 8009070:	f000 bb44 	b.w	80096fc <LoRaMacMibClassBSetRequestConfirm>
 8009074:	2001      	movs	r0, #1
 8009076:	e639      	b.n	8008cec <LoRaMacMibSetRequestConfirm+0xb8>
 8009078:	20000d40 	.word	0x20000d40
 800907c:	20000618 	.word	0x20000618

08009080 <LoRaMacMlmeRequest>:
 8009080:	e92d 41f0 	stmdb	sp!, {r4, r5, r6, r7, r8, lr}
 8009084:	b086      	sub	sp, #24
 8009086:	2300      	movs	r3, #0
 8009088:	f8ad 3000 	strh.w	r3, [sp]
 800908c:	4606      	mov	r6, r0
 800908e:	2800      	cmp	r0, #0
 8009090:	f000 80e0 	beq.w	8009254 <LoRaMacMlmeRequest+0x1d4>
 8009094:	f7fe fe50 	bl	8007d38 <LoRaMacIsBusy>
 8009098:	b120      	cbz	r0, 80090a4 <LoRaMacMlmeRequest+0x24>
 800909a:	2401      	movs	r4, #1
 800909c:	4620      	mov	r0, r4
 800909e:	b006      	add	sp, #24
 80090a0:	e8bd 81f0 	ldmia.w	sp!, {r4, r5, r6, r7, r8, pc}
 80090a4:	f000 fd1c 	bl	8009ae0 <LoRaMacConfirmQueueIsFull>
 80090a8:	2800      	cmp	r0, #0
 80090aa:	d1f6      	bne.n	800909a <LoRaMacMlmeRequest+0x1a>
 80090ac:	f000 fd12 	bl	8009ad4 <LoRaMacConfirmQueueGetCnt>
 80090b0:	4601      	mov	r1, r0
 80090b2:	b918      	cbnz	r0, 80090bc <LoRaMacMlmeRequest+0x3c>
 80090b4:	4868      	ldr	r0, [pc, #416]	; (8009258 <LoRaMacMlmeRequest+0x1d8>)
 80090b6:	2214      	movs	r2, #20
 80090b8:	f002 fb1e 	bl	800b6f8 <memset1>
 80090bc:	4d67      	ldr	r5, [pc, #412]	; (800925c <LoRaMacMlmeRequest+0x1dc>)
 80090be:	f895 3485 	ldrb.w	r3, [r5, #1157]	; 0x485
 80090c2:	2201      	movs	r2, #1
 80090c4:	f043 0304 	orr.w	r3, r3, #4
 80090c8:	f885 244d 	strb.w	r2, [r5, #1101]	; 0x44d
 80090cc:	f885 3485 	strb.w	r3, [r5, #1157]	; 0x485
 80090d0:	7833      	ldrb	r3, [r6, #0]
 80090d2:	f88d 3004 	strb.w	r3, [sp, #4]
 80090d6:	2100      	movs	r1, #0
 80090d8:	3b01      	subs	r3, #1
 80090da:	f88d 2005 	strb.w	r2, [sp, #5]
 80090de:	f88d 1007 	strb.w	r1, [sp, #7]
 80090e2:	2b0d      	cmp	r3, #13
 80090e4:	f200 80ae 	bhi.w	8009244 <LoRaMacMlmeRequest+0x1c4>
 80090e8:	e8df f003 	tbb	[pc, r3]
 80090ec:	57acac07 	.word	0x57acac07
 80090f0:	acac8161 	.word	0xacac8161
 80090f4:	a0ac89ac 	.word	0xa0ac89ac
 80090f8:	9c8d      	.short	0x9c8d
 80090fa:	f8d5 4340 	ldr.w	r4, [r5, #832]	; 0x340
 80090fe:	f014 0420 	ands.w	r4, r4, #32
 8009102:	d1ca      	bne.n	800909a <LoRaMacMlmeRequest+0x1a>
 8009104:	f8df 8158 	ldr.w	r8, [pc, #344]	; 8009260 <LoRaMacMlmeRequest+0x1e0>
 8009108:	4f56      	ldr	r7, [pc, #344]	; (8009264 <LoRaMacMlmeRequest+0x1e4>)
 800910a:	f7fd ff87 	bl	800701c <ResetMacParameters>
 800910e:	4622      	mov	r2, r4
 8009110:	f996 1005 	ldrsb.w	r1, [r6, #5]
 8009114:	f898 0040 	ldrb.w	r0, [r8, #64]	; 0x40
 8009118:	f001 f9e4 	bl	800a4e4 <RegionAlternateDr>
 800911c:	2307      	movs	r3, #7
 800911e:	f888 0039 	strb.w	r0, [r8, #57]	; 0x39
 8009122:	4620      	mov	r0, r4
 8009124:	f88d 3005 	strb.w	r3, [sp, #5]
 8009128:	f7fe f9a8 	bl	800747c <SwitchClass>
 800912c:	23ff      	movs	r3, #255	; 0xff
 800912e:	f8a5 310c 	strh.w	r3, [r5, #268]	; 0x10c
 8009132:	f885 4104 	strb.w	r4, [r5, #260]	; 0x104
 8009136:	f8c5 7108 	str.w	r7, [r5, #264]	; 0x108
 800913a:	f7fd f81d 	bl	8006178 <SecureElementGetJoinEui>
 800913e:	2208      	movs	r2, #8
 8009140:	4601      	mov	r1, r0
 8009142:	f507 7086 	add.w	r0, r7, #268	; 0x10c
 8009146:	f002 fac3 	bl	800b6d0 <memcpy1>
 800914a:	f7fc ffff 	bl	800614c <SecureElementGetDevEui>
 800914e:	2208      	movs	r2, #8
 8009150:	4601      	mov	r1, r0
 8009152:	f507 708a 	add.w	r0, r7, #276	; 0x114
 8009156:	f002 fabb 	bl	800b6d0 <memcpy1>
 800915a:	4620      	mov	r0, r4
 800915c:	f7fd ffea 	bl	8007134 <ScheduleTx>
 8009160:	4604      	mov	r4, r0
 8009162:	b140      	cbz	r0, 8009176 <LoRaMacMlmeRequest+0xf6>
 8009164:	f996 1005 	ldrsb.w	r1, [r6, #5]
 8009168:	f898 0040 	ldrb.w	r0, [r8, #64]	; 0x40
 800916c:	2201      	movs	r2, #1
 800916e:	f001 f9b9 	bl	800a4e4 <RegionAlternateDr>
 8009172:	f888 0039 	strb.w	r0, [r8, #57]	; 0x39
 8009176:	f8d5 3488 	ldr.w	r3, [r5, #1160]	; 0x488
 800917a:	6133      	str	r3, [r6, #16]
 800917c:	2c00      	cmp	r4, #0
 800917e:	d065      	beq.n	800924c <LoRaMacMlmeRequest+0x1cc>
 8009180:	f000 fca8 	bl	8009ad4 <LoRaMacConfirmQueueGetCnt>
 8009184:	2800      	cmp	r0, #0
 8009186:	d189      	bne.n	800909c <LoRaMacMlmeRequest+0x1c>
 8009188:	f895 3485 	ldrb.w	r3, [r5, #1157]	; 0x485
 800918c:	f885 0414 	strb.w	r0, [r5, #1044]	; 0x414
 8009190:	f360 0382 	bfi	r3, r0, #2, #1
 8009194:	f885 3485 	strb.w	r3, [r5, #1157]	; 0x485
 8009198:	e780      	b.n	800909c <LoRaMacMlmeRequest+0x1c>
 800919a:	2200      	movs	r2, #0
 800919c:	4669      	mov	r1, sp
 800919e:	2002      	movs	r0, #2
 80091a0:	f000 fac8 	bl	8009734 <LoRaMacCommandsAddCmd>
 80091a4:	b908      	cbnz	r0, 80091aa <LoRaMacMlmeRequest+0x12a>
 80091a6:	2400      	movs	r4, #0
 80091a8:	e7e5      	b.n	8009176 <LoRaMacMlmeRequest+0xf6>
 80091aa:	2413      	movs	r4, #19
 80091ac:	e7e3      	b.n	8009176 <LoRaMacMlmeRequest+0xf6>
 80091ae:	f895 3415 	ldrb.w	r3, [r5, #1045]	; 0x415
 80091b2:	f88d 3008 	strb.w	r3, [sp, #8]
 80091b6:	4b2a      	ldr	r3, [pc, #168]	; (8009260 <LoRaMacMlmeRequest+0x1e0>)
 80091b8:	88b2      	ldrh	r2, [r6, #4]
 80091ba:	f893 1039 	ldrb.w	r1, [r3, #57]	; 0x39
 80091be:	f88d 1009 	strb.w	r1, [sp, #9]
 80091c2:	f893 1038 	ldrb.w	r1, [r3, #56]	; 0x38
 80091c6:	f88d 100a 	strb.w	r1, [sp, #10]
 80091ca:	6f99      	ldr	r1, [r3, #120]	; 0x78
 80091cc:	9103      	str	r1, [sp, #12]
 80091ce:	6fd9      	ldr	r1, [r3, #124]	; 0x7c
 80091d0:	9104      	str	r1, [sp, #16]
 80091d2:	f893 0040 	ldrb.w	r0, [r3, #64]	; 0x40
 80091d6:	f8ad 2014 	strh.w	r2, [sp, #20]
 80091da:	a902      	add	r1, sp, #8
 80091dc:	f001 f999 	bl	800a512 <RegionSetContinuousWave>
 80091e0:	f8d5 3340 	ldr.w	r3, [r5, #832]	; 0x340
 80091e4:	f043 0302 	orr.w	r3, r3, #2
 80091e8:	f8c5 3340 	str.w	r3, [r5, #832]	; 0x340
 80091ec:	e7db      	b.n	80091a6 <LoRaMacMlmeRequest+0x126>
 80091ee:	4b1e      	ldr	r3, [pc, #120]	; (8009268 <LoRaMacMlmeRequest+0x1e8>)
 80091f0:	88b2      	ldrh	r2, [r6, #4]
 80091f2:	f996 100c 	ldrsb.w	r1, [r6, #12]
 80091f6:	68b0      	ldr	r0, [r6, #8]
 80091f8:	6bdb      	ldr	r3, [r3, #60]	; 0x3c
 80091fa:	4798      	blx	r3
 80091fc:	e7f0      	b.n	80091e0 <LoRaMacMlmeRequest+0x160>
 80091fe:	2200      	movs	r2, #0
 8009200:	4669      	mov	r1, sp
 8009202:	200d      	movs	r0, #13
 8009204:	e7cc      	b.n	80091a0 <LoRaMacMlmeRequest+0x120>
 8009206:	4b16      	ldr	r3, [pc, #88]	; (8009260 <LoRaMacMlmeRequest+0x1e0>)
 8009208:	f893 3104 	ldrb.w	r3, [r3, #260]	; 0x104
 800920c:	b9d3      	cbnz	r3, 8009244 <LoRaMacMlmeRequest+0x1c4>
 800920e:	7934      	ldrb	r4, [r6, #4]
 8009210:	f004 0007 	and.w	r0, r4, #7
 8009214:	f000 fa6b 	bl	80096ee <LoRaMacClassBSetPingSlotInfo>
 8009218:	f88d 4000 	strb.w	r4, [sp]
 800921c:	2201      	movs	r2, #1
 800921e:	4669      	mov	r1, sp
 8009220:	2010      	movs	r0, #16
 8009222:	e7bd      	b.n	80091a0 <LoRaMacMlmeRequest+0x120>
 8009224:	2200      	movs	r2, #0
 8009226:	4669      	mov	r1, sp
 8009228:	2012      	movs	r0, #18
 800922a:	e7b9      	b.n	80091a0 <LoRaMacMlmeRequest+0x120>
 800922c:	f88d 2007 	strb.w	r2, [sp, #7]
 8009230:	f000 fa4e 	bl	80096d0 <LoRaMacClassBIsAcquisitionInProgress>
 8009234:	4604      	mov	r4, r0
 8009236:	b938      	cbnz	r0, 8009248 <LoRaMacMlmeRequest+0x1c8>
 8009238:	f000 fa47 	bl	80096ca <LoRaMacClassBSetBeaconState>
 800923c:	4620      	mov	r0, r4
 800923e:	f000 fa49 	bl	80096d4 <LoRaMacClassBBeaconTimerEvent>
 8009242:	e798      	b.n	8009176 <LoRaMacMlmeRequest+0xf6>
 8009244:	2402      	movs	r4, #2
 8009246:	e796      	b.n	8009176 <LoRaMacMlmeRequest+0xf6>
 8009248:	2401      	movs	r4, #1
 800924a:	e794      	b.n	8009176 <LoRaMacMlmeRequest+0xf6>
 800924c:	a801      	add	r0, sp, #4
 800924e:	f000 fb99 	bl	8009984 <LoRaMacConfirmQueueAdd>
 8009252:	e723      	b.n	800909c <LoRaMacMlmeRequest+0x1c>
 8009254:	2403      	movs	r4, #3
 8009256:	e721      	b.n	800909c <LoRaMacMlmeRequest+0x1c>
 8009258:	200018b8 	.word	0x200018b8
 800925c:	2000146c 	.word	0x2000146c
 8009260:	20000d40 	.word	0x20000d40
 8009264:	2000146e 	.word	0x2000146e
 8009268:	0800ee40 	.word	0x0800ee40

0800926c <LoRaMacMcpsRequest>:
 800926c:	e92d 4ff0 	stmdb	sp!, {r4, r5, r6, r7, r8, r9, sl, fp, lr}
 8009270:	b091      	sub	sp, #68	; 0x44
 8009272:	2600      	movs	r6, #0
 8009274:	9103      	str	r1, [sp, #12]
 8009276:	4605      	mov	r5, r0
 8009278:	b918      	cbnz	r0, 8009282 <LoRaMacMcpsRequest+0x16>
 800927a:	2003      	movs	r0, #3
 800927c:	b011      	add	sp, #68	; 0x44
 800927e:	e8bd 8ff0 	ldmia.w	sp!, {r4, r5, r6, r7, r8, r9, sl, fp, pc}
 8009282:	f7fe fd59 	bl	8007d38 <LoRaMacIsBusy>
 8009286:	4682      	mov	sl, r0
 8009288:	2800      	cmp	r0, #0
 800928a:	f040 8163 	bne.w	8009554 <LoRaMacMcpsRequest+0x2e8>
 800928e:	4cb7      	ldr	r4, [pc, #732]	; (800956c <LoRaMacMcpsRequest+0x300>)
 8009290:	2214      	movs	r2, #20
 8009292:	4601      	mov	r1, r0
 8009294:	4607      	mov	r7, r0
 8009296:	f504 6087 	add.w	r0, r4, #1080	; 0x438
 800929a:	f002 fa2d 	bl	800b6f8 <memset1>
 800929e:	2301      	movs	r3, #1
 80092a0:	f884 3439 	strb.w	r3, [r4, #1081]	; 0x439
 80092a4:	f884 3412 	strb.w	r3, [r4, #1042]	; 0x412
 80092a8:	782a      	ldrb	r2, [r5, #0]
 80092aa:	429a      	cmp	r2, r3
 80092ac:	f000 80af 	beq.w	800940e <LoRaMacMcpsRequest+0x1a2>
 80092b0:	2a03      	cmp	r2, #3
 80092b2:	f000 80be 	beq.w	8009432 <LoRaMacMcpsRequest+0x1c6>
 80092b6:	2a00      	cmp	r2, #0
 80092b8:	f040 80c8 	bne.w	800944c <LoRaMacMcpsRequest+0x1e0>
 80092bc:	f884 3411 	strb.w	r3, [r4, #1041]	; 0x411
 80092c0:	2202      	movs	r2, #2
 80092c2:	f895 9004 	ldrb.w	r9, [r5, #4]
 80092c6:	f8d5 8008 	ldr.w	r8, [r5, #8]
 80092ca:	89ae      	ldrh	r6, [r5, #12]
 80092cc:	f995 b00e 	ldrsb.w	fp, [r5, #14]
 80092d0:	f362 1747 	bfi	r7, r2, #5, #3
 80092d4:	469a      	mov	sl, r3
 80092d6:	4ba6      	ldr	r3, [pc, #664]	; (8009570 <LoRaMacMcpsRequest+0x304>)
 80092d8:	2402      	movs	r4, #2
 80092da:	f893 2074 	ldrb.w	r2, [r3, #116]	; 0x74
 80092de:	f893 0040 	ldrb.w	r0, [r3, #64]	; 0x40
 80092e2:	f88d 4024 	strb.w	r4, [sp, #36]	; 0x24
 80092e6:	a909      	add	r1, sp, #36	; 0x24
 80092e8:	f88d 2026 	strb.w	r2, [sp, #38]	; 0x26
 80092ec:	f001 f87f 	bl	800a3ee <RegionGetPhyParam>
 80092f0:	f1ba 0f00 	cmp.w	sl, #0
 80092f4:	f000 812c 	beq.w	8009550 <LoRaMacMcpsRequest+0x2e4>
 80092f8:	4b9d      	ldr	r3, [pc, #628]	; (8009570 <LoRaMacMcpsRequest+0x304>)
 80092fa:	f893 2106 	ldrb.w	r2, [r3, #262]	; 0x106
 80092fe:	b9b2      	cbnz	r2, 800932e <LoRaMacMcpsRequest+0xc2>
 8009300:	b240      	sxtb	r0, r0
 8009302:	4558      	cmp	r0, fp
 8009304:	bfb8      	it	lt
 8009306:	4658      	movlt	r0, fp
 8009308:	f893 2074 	ldrb.w	r2, [r3, #116]	; 0x74
 800930c:	f88d 0014 	strb.w	r0, [sp, #20]
 8009310:	f88d 2016 	strb.w	r2, [sp, #22]
 8009314:	f893 0040 	ldrb.w	r0, [r3, #64]	; 0x40
 8009318:	2205      	movs	r2, #5
 800931a:	a905      	add	r1, sp, #20
 800931c:	f001 f87d 	bl	800a41a <RegionVerify>
 8009320:	2800      	cmp	r0, #0
 8009322:	d0aa      	beq.n	800927a <LoRaMacMcpsRequest+0xe>
 8009324:	4b92      	ldr	r3, [pc, #584]	; (8009570 <LoRaMacMcpsRequest+0x304>)
 8009326:	f89d 2014 	ldrb.w	r2, [sp, #20]
 800932a:	f883 2039 	strb.w	r2, [r3, #57]	; 0x39
 800932e:	8f19      	ldrh	r1, [r3, #56]	; 0x38
 8009330:	8f1a      	ldrh	r2, [r3, #56]	; 0x38
 8009332:	f893 0118 	ldrb.w	r0, [r3, #280]	; 0x118
 8009336:	9101      	str	r1, [sp, #4]
 8009338:	6a99      	ldr	r1, [r3, #40]	; 0x28
 800933a:	9106      	str	r1, [sp, #24]
 800933c:	ba52      	rev16	r2, r2
 800933e:	2800      	cmp	r0, #0
 8009340:	f000 8104 	beq.w	800954c <LoRaMacMcpsRequest+0x2e0>
 8009344:	f893 0107 	ldrb.w	r0, [r3, #263]	; 0x107
 8009348:	b900      	cbnz	r0, 800934c <LoRaMacMcpsRequest+0xe0>
 800934a:	6318      	str	r0, [r3, #48]	; 0x30
 800934c:	f893 0104 	ldrb.w	r0, [r3, #260]	; 0x104
 8009350:	f8ad 203c 	strh.w	r2, [sp, #60]	; 0x3c
 8009354:	1e44      	subs	r4, r0, #1
 8009356:	4260      	negs	r0, r4
 8009358:	4160      	adcs	r0, r4
 800935a:	f893 2074 	ldrb.w	r2, [r3, #116]	; 0x74
 800935e:	4c83      	ldr	r4, [pc, #524]	; (800956c <LoRaMacMcpsRequest+0x300>)
 8009360:	9002      	str	r0, [sp, #8]
 8009362:	f893 003a 	ldrb.w	r0, [r3, #58]	; 0x3a
 8009366:	9000      	str	r0, [sp, #0]
 8009368:	f88d 203e 	strb.w	r2, [sp, #62]	; 0x3e
 800936c:	f8d3 0114 	ldr.w	r0, [r3, #276]	; 0x114
 8009370:	4a80      	ldr	r2, [pc, #512]	; (8009574 <LoRaMacMcpsRequest+0x308>)
 8009372:	f893 b106 	ldrb.w	fp, [r3, #262]	; 0x106
 8009376:	900b      	str	r0, [sp, #44]	; 0x2c
 8009378:	f893 3040 	ldrb.w	r3, [r3, #64]	; 0x40
 800937c:	910d      	str	r1, [sp, #52]	; 0x34
 800937e:	f04f 0001 	mov.w	r0, #1
 8009382:	f8d4 13f4 	ldr.w	r1, [r4, #1012]	; 0x3f4
 8009386:	f88d 0030 	strb.w	r0, [sp, #48]	; 0x30
 800938a:	910e      	str	r1, [sp, #56]	; 0x38
 800938c:	f88d 303f 	strb.w	r3, [sp, #63]	; 0x3f
 8009390:	1c51      	adds	r1, r2, #1
 8009392:	ab06      	add	r3, sp, #24
 8009394:	a80b      	add	r0, sp, #44	; 0x2c
 8009396:	f88d b031 	strb.w	fp, [sp, #49]	; 0x31
 800939a:	f000 f927 	bl	80095ec <LoRaMacAdrCalcNext>
 800939e:	9b02      	ldr	r3, [sp, #8]
 80093a0:	9a00      	ldr	r2, [sp, #0]
 80093a2:	f04f 0a00 	mov.w	sl, #0
 80093a6:	011b      	lsls	r3, r3, #4
 80093a8:	45d0      	cmp	r8, sl
 80093aa:	ea43 1342 	orr.w	r3, r3, r2, lsl #5
 80093ae:	bf08      	it	eq
 80093b0:	4656      	moveq	r6, sl
 80093b2:	ea43 1380 	orr.w	r3, r3, r0, lsl #6
 80093b6:	ea43 13cb 	orr.w	r3, r3, fp, lsl #7
 80093ba:	4632      	mov	r2, r6
 80093bc:	4641      	mov	r1, r8
 80093be:	f504 709c 	add.w	r0, r4, #312	; 0x138
 80093c2:	469b      	mov	fp, r3
 80093c4:	9300      	str	r3, [sp, #0]
 80093c6:	e9cd aa07 	strd	sl, sl, [sp, #28]
 80093ca:	f8a4 a000 	strh.w	sl, [r4]
 80093ce:	f884 a414 	strb.w	sl, [r4, #1044]	; 0x414
 80093d2:	f002 f97d 	bl	800b6d0 <memcpy1>
 80093d6:	b2f9      	uxtb	r1, r7
 80093d8:	70a7      	strb	r7, [r4, #2]
 80093da:	f3c7 1742 	ubfx	r7, r7, #5, #3
 80093de:	b2f2      	uxtb	r2, r6
 80093e0:	2f04      	cmp	r7, #4
 80093e2:	4e63      	ldr	r6, [pc, #396]	; (8009570 <LoRaMacMcpsRequest+0x304>)
 80093e4:	9b00      	ldr	r3, [sp, #0]
 80093e6:	f884 2237 	strb.w	r2, [r4, #567]	; 0x237
 80093ea:	d033      	beq.n	8009454 <LoRaMacMcpsRequest+0x1e8>
 80093ec:	2f07      	cmp	r7, #7
 80093ee:	f000 809d 	beq.w	800952c <LoRaMacMcpsRequest+0x2c0>
 80093f2:	2f02      	cmp	r7, #2
 80093f4:	d032      	beq.n	800945c <LoRaMacMcpsRequest+0x1f0>
 80093f6:	2002      	movs	r0, #2
 80093f8:	9b01      	ldr	r3, [sp, #4]
 80093fa:	8733      	strh	r3, [r6, #56]	; 0x38
 80093fc:	4b5b      	ldr	r3, [pc, #364]	; (800956c <LoRaMacMcpsRequest+0x300>)
 80093fe:	2200      	movs	r2, #0
 8009400:	f883 2414 	strb.w	r2, [r3, #1044]	; 0x414
 8009404:	4b59      	ldr	r3, [pc, #356]	; (800956c <LoRaMacMcpsRequest+0x300>)
 8009406:	f8d3 3488 	ldr.w	r3, [r3, #1160]	; 0x488
 800940a:	612b      	str	r3, [r5, #16]
 800940c:	e736      	b.n	800927c <LoRaMacMcpsRequest+0x10>
 800940e:	7beb      	ldrb	r3, [r5, #15]
 8009410:	2b08      	cmp	r3, #8
 8009412:	bf28      	it	cs
 8009414:	2308      	movcs	r3, #8
 8009416:	f884 3411 	strb.w	r3, [r4, #1041]	; 0x411
 800941a:	2304      	movs	r3, #4
 800941c:	f895 9004 	ldrb.w	r9, [r5, #4]
 8009420:	f8d5 8008 	ldr.w	r8, [r5, #8]
 8009424:	89ae      	ldrh	r6, [r5, #12]
 8009426:	f995 b00e 	ldrsb.w	fp, [r5, #14]
 800942a:	f363 1747 	bfi	r7, r3, #5, #3
 800942e:	4692      	mov	sl, r2
 8009430:	e751      	b.n	80092d6 <LoRaMacMcpsRequest+0x6a>
 8009432:	f884 3411 	strb.w	r3, [r4, #1041]	; 0x411
 8009436:	f8d5 8004 	ldr.w	r8, [r5, #4]
 800943a:	892e      	ldrh	r6, [r5, #8]
 800943c:	f995 b00a 	ldrsb.w	fp, [r5, #10]
 8009440:	f067 071f 	orn	r7, r7, #31
 8009444:	469a      	mov	sl, r3
 8009446:	f04f 0900 	mov.w	r9, #0
 800944a:	e744      	b.n	80092d6 <LoRaMacMcpsRequest+0x6a>
 800944c:	46d3      	mov	fp, sl
 800944e:	46d0      	mov	r8, sl
 8009450:	46d1      	mov	r9, sl
 8009452:	e740      	b.n	80092d6 <LoRaMacMcpsRequest+0x6a>
 8009454:	f04f 0001 	mov.w	r0, #1
 8009458:	f884 0414 	strb.w	r0, [r4, #1044]	; 0x414
 800945c:	4f46      	ldr	r7, [pc, #280]	; (8009578 <LoRaMacMcpsRequest+0x30c>)
 800945e:	f884 110d 	strb.w	r1, [r4, #269]	; 0x10d
 8009462:	2004      	movs	r0, #4
 8009464:	f884 0104 	strb.w	r0, [r4, #260]	; 0x104
 8009468:	20ff      	movs	r0, #255	; 0xff
 800946a:	f8d6 10d4 	ldr.w	r1, [r6, #212]	; 0xd4
 800946e:	f884 010c 	strb.w	r0, [r4, #268]	; 0x10c
 8009472:	f884 3114 	strb.w	r3, [r4, #276]	; 0x114
 8009476:	a807      	add	r0, sp, #28
 8009478:	f507 739b 	add.w	r3, r7, #310	; 0x136
 800947c:	f8c4 7108 	str.w	r7, [r4, #264]	; 0x108
 8009480:	f884 9128 	strb.w	r9, [r4, #296]	; 0x128
 8009484:	f8c4 1110 	str.w	r1, [r4, #272]	; 0x110
 8009488:	f884 2130 	strb.w	r2, [r4, #304]	; 0x130
 800948c:	f8c4 312c 	str.w	r3, [r4, #300]	; 0x12c
 8009490:	f000 fc64 	bl	8009d5c <LoRaMacCryptoGetFCntUp>
 8009494:	2800      	cmp	r0, #0
 8009496:	d157      	bne.n	8009548 <LoRaMacMcpsRequest+0x2dc>
 8009498:	9b07      	ldr	r3, [sp, #28]
 800949a:	f8a4 043c 	strh.w	r0, [r4, #1084]	; 0x43c
 800949e:	a808      	add	r0, sp, #32
 80094a0:	f8a4 3116 	strh.w	r3, [r4, #278]	; 0x116
 80094a4:	f8c4 3444 	str.w	r3, [r4, #1092]	; 0x444
 80094a8:	f000 f9e0 	bl	800986c <LoRaMacCommandsGetSizeSerializedCmds>
 80094ac:	bb60      	cbnz	r0, 8009508 <LoRaMacMcpsRequest+0x29c>
 80094ae:	9b08      	ldr	r3, [sp, #32]
 80094b0:	b1ab      	cbz	r3, 80094de <LoRaMacMcpsRequest+0x272>
 80094b2:	f996 0039 	ldrsb.w	r0, [r6, #57]	; 0x39
 80094b6:	f7fd fca7 	bl	8006e08 <GetMaxAppPayloadWithoutFOptsLength>
 80094ba:	f894 3237 	ldrb.w	r3, [r4, #567]	; 0x237
 80094be:	b32b      	cbz	r3, 800950c <LoRaMacMcpsRequest+0x2a0>
 80094c0:	9b08      	ldr	r3, [sp, #32]
 80094c2:	2b0f      	cmp	r3, #15
 80094c4:	d819      	bhi.n	80094fa <LoRaMacMcpsRequest+0x28e>
 80094c6:	f507 728b 	add.w	r2, r7, #278	; 0x116
 80094ca:	a908      	add	r1, sp, #32
 80094cc:	200f      	movs	r0, #15
 80094ce:	f000 f9d9 	bl	8009884 <LoRaMacCommandsSerializeCmds>
 80094d2:	b9c8      	cbnz	r0, 8009508 <LoRaMacMcpsRequest+0x29c>
 80094d4:	9b08      	ldr	r3, [sp, #32]
 80094d6:	f363 0b03 	bfi	fp, r3, #0, #4
 80094da:	f884 b114 	strb.w	fp, [r4, #276]	; 0x114
 80094de:	9803      	ldr	r0, [sp, #12]
 80094e0:	f7fd fe28 	bl	8007134 <ScheduleTx>
 80094e4:	2800      	cmp	r0, #0
 80094e6:	d187      	bne.n	80093f8 <LoRaMacMcpsRequest+0x18c>
 80094e8:	9b06      	ldr	r3, [sp, #24]
 80094ea:	f886 003a 	strb.w	r0, [r6, #58]	; 0x3a
 80094ee:	62b3      	str	r3, [r6, #40]	; 0x28
 80094f0:	f000 f99c 	bl	800982c <LoRaMacCommandsRemoveNoneStickyCmds>
 80094f4:	b380      	cbz	r0, 8009558 <LoRaMacMcpsRequest+0x2ec>
 80094f6:	2013      	movs	r0, #19
 80094f8:	e780      	b.n	80093fc <LoRaMacMcpsRequest+0x190>
 80094fa:	f207 428a 	addw	r2, r7, #1162	; 0x48a
 80094fe:	a908      	add	r1, sp, #32
 8009500:	f000 f9c0 	bl	8009884 <LoRaMacCommandsSerializeCmds>
 8009504:	2800      	cmp	r0, #0
 8009506:	d0ea      	beq.n	80094de <LoRaMacMcpsRequest+0x272>
 8009508:	2013      	movs	r0, #19
 800950a:	e775      	b.n	80093f8 <LoRaMacMcpsRequest+0x18c>
 800950c:	f207 478a 	addw	r7, r7, #1162	; 0x48a
 8009510:	463a      	mov	r2, r7
 8009512:	a908      	add	r1, sp, #32
 8009514:	f000 f9b6 	bl	8009884 <LoRaMacCommandsSerializeCmds>
 8009518:	2800      	cmp	r0, #0
 800951a:	d1f5      	bne.n	8009508 <LoRaMacMcpsRequest+0x29c>
 800951c:	9b08      	ldr	r3, [sp, #32]
 800951e:	f884 0128 	strb.w	r0, [r4, #296]	; 0x128
 8009522:	f8c4 712c 	str.w	r7, [r4, #300]	; 0x12c
 8009526:	f884 3130 	strb.w	r3, [r4, #304]	; 0x130
 800952a:	e7d8      	b.n	80094de <LoRaMacMcpsRequest+0x272>
 800952c:	f1b8 0f00 	cmp.w	r8, #0
 8009530:	d0d5      	beq.n	80094de <LoRaMacMcpsRequest+0x272>
 8009532:	2a00      	cmp	r2, #0
 8009534:	d0d3      	beq.n	80094de <LoRaMacMcpsRequest+0x272>
 8009536:	4641      	mov	r1, r8
 8009538:	1ce0      	adds	r0, r4, #3
 800953a:	f002 f8c9 	bl	800b6d0 <memcpy1>
 800953e:	f894 3237 	ldrb.w	r3, [r4, #567]	; 0x237
 8009542:	3301      	adds	r3, #1
 8009544:	8023      	strh	r3, [r4, #0]
 8009546:	e7ca      	b.n	80094de <LoRaMacMcpsRequest+0x272>
 8009548:	2012      	movs	r0, #18
 800954a:	e755      	b.n	80093f8 <LoRaMacMcpsRequest+0x18c>
 800954c:	2007      	movs	r0, #7
 800954e:	e755      	b.n	80093fc <LoRaMacMcpsRequest+0x190>
 8009550:	4620      	mov	r0, r4
 8009552:	e757      	b.n	8009404 <LoRaMacMcpsRequest+0x198>
 8009554:	2001      	movs	r0, #1
 8009556:	e691      	b.n	800927c <LoRaMacMcpsRequest+0x10>
 8009558:	782b      	ldrb	r3, [r5, #0]
 800955a:	f884 3438 	strb.w	r3, [r4, #1080]	; 0x438
 800955e:	f894 3485 	ldrb.w	r3, [r4, #1157]	; 0x485
 8009562:	f043 0301 	orr.w	r3, r3, #1
 8009566:	f884 3485 	strb.w	r3, [r4, #1157]	; 0x485
 800956a:	e74b      	b.n	8009404 <LoRaMacMcpsRequest+0x198>
 800956c:	2000146c 	.word	0x2000146c
 8009570:	20000d40 	.word	0x20000d40
 8009574:	20000d78 	.word	0x20000d78
 8009578:	2000146e 	.word	0x2000146e

0800957c <LoRaMacTestSetDutyCycleOn>:
 800957c:	b537      	push	{r0, r1, r2, r4, r5, lr}
 800957e:	4d07      	ldr	r5, [pc, #28]	; (800959c <LoRaMacTestSetDutyCycleOn+0x20>)
 8009580:	f88d 0004 	strb.w	r0, [sp, #4]
 8009584:	4604      	mov	r4, r0
 8009586:	220f      	movs	r2, #15
 8009588:	f895 0040 	ldrb.w	r0, [r5, #64]	; 0x40
 800958c:	a901      	add	r1, sp, #4
 800958e:	f000 ff44 	bl	800a41a <RegionVerify>
 8009592:	b108      	cbz	r0, 8009598 <LoRaMacTestSetDutyCycleOn+0x1c>
 8009594:	f885 4108 	strb.w	r4, [r5, #264]	; 0x108
 8009598:	b003      	add	sp, #12
 800959a:	bd30      	pop	{r4, r5, pc}
 800959c:	20000d40 	.word	0x20000d40

080095a0 <LoRaMacDeInitialization>:
 80095a0:	b510      	push	{r4, lr}
 80095a2:	f7ff f9e9 	bl	8008978 <LoRaMacStop>
 80095a6:	4604      	mov	r4, r0
 80095a8:	b9a0      	cbnz	r0, 80095d4 <LoRaMacDeInitialization+0x34>
 80095aa:	480b      	ldr	r0, [pc, #44]	; (80095d8 <LoRaMacDeInitialization+0x38>)
 80095ac:	f004 fafc 	bl	800dba8 <UTIL_TIMER_Stop>
 80095b0:	480a      	ldr	r0, [pc, #40]	; (80095dc <LoRaMacDeInitialization+0x3c>)
 80095b2:	f004 faf9 	bl	800dba8 <UTIL_TIMER_Stop>
 80095b6:	480a      	ldr	r0, [pc, #40]	; (80095e0 <LoRaMacDeInitialization+0x40>)
 80095b8:	f004 faf6 	bl	800dba8 <UTIL_TIMER_Stop>
 80095bc:	4809      	ldr	r0, [pc, #36]	; (80095e4 <LoRaMacDeInitialization+0x44>)
 80095be:	f004 faf3 	bl	800dba8 <UTIL_TIMER_Stop>
 80095c2:	f000 f895 	bl	80096f0 <LoRaMacClassBHaltBeaconing>
 80095c6:	f7fd fd29 	bl	800701c <ResetMacParameters>
 80095ca:	4b07      	ldr	r3, [pc, #28]	; (80095e8 <LoRaMacDeInitialization+0x48>)
 80095cc:	6adb      	ldr	r3, [r3, #44]	; 0x2c
 80095ce:	4798      	blx	r3
 80095d0:	4620      	mov	r0, r4
 80095d2:	bd10      	pop	{r4, pc}
 80095d4:	2401      	movs	r4, #1
 80095d6:	e7fb      	b.n	80095d0 <LoRaMacDeInitialization+0x30>
 80095d8:	200017d4 	.word	0x200017d4
 80095dc:	200017ec 	.word	0x200017ec
 80095e0:	20001804 	.word	0x20001804
 80095e4:	20001864 	.word	0x20001864
 80095e8:	0800ee40 	.word	0x0800ee40

080095ec <LoRaMacAdrCalcNext>:
 80095ec:	e92d 4ff0 	stmdb	sp!, {r4, r5, r6, r7, r8, r9, sl, fp, lr}
 80095f0:	f890 9002 	ldrb.w	r9, [r0, #2]
 80095f4:	b08b      	sub	sp, #44	; 0x2c
 80095f6:	4604      	mov	r4, r0
 80095f8:	468a      	mov	sl, r1
 80095fa:	9201      	str	r2, [sp, #4]
 80095fc:	f1b9 0f00 	cmp.w	r9, #0
 8009600:	d160      	bne.n	80096c4 <LoRaMacAdrCalcNext+0xd8>
 8009602:	7945      	ldrb	r5, [r0, #5]
 8009604:	6881      	ldr	r1, [r0, #8]
 8009606:	f990 2010 	ldrsb.w	r2, [r0, #16]
 800960a:	f990 8011 	ldrsb.w	r8, [r0, #17]
 800960e:	6019      	str	r1, [r3, #0]
 8009610:	2d00      	cmp	r5, #0
 8009612:	d055      	beq.n	80096c0 <LoRaMacAdrCalcNext+0xd4>
 8009614:	7c81      	ldrb	r1, [r0, #18]
 8009616:	f88d 1016 	strb.w	r1, [sp, #22]
 800961a:	7cc0      	ldrb	r0, [r0, #19]
 800961c:	f04f 0b02 	mov.w	fp, #2
 8009620:	a905      	add	r1, sp, #20
 8009622:	e9cd 2302 	strd	r2, r3, [sp, #8]
 8009626:	f88d b014 	strb.w	fp, [sp, #20]
 800962a:	f000 fee0 	bl	800a3ee <RegionGetPhyParam>
 800962e:	9a02      	ldr	r2, [sp, #8]
 8009630:	b247      	sxtb	r7, r0
 8009632:	42ba      	cmp	r2, r7
 8009634:	4616      	mov	r6, r2
 8009636:	bfb8      	it	lt
 8009638:	463e      	movlt	r6, r7
 800963a:	42ba      	cmp	r2, r7
 800963c:	dc0c      	bgt.n	8009658 <LoRaMacAdrCalcNext+0x6c>
 800963e:	9b03      	ldr	r3, [sp, #12]
 8009640:	f8c3 9000 	str.w	r9, [r3]
 8009644:	464d      	mov	r5, r9
 8009646:	9b01      	ldr	r3, [sp, #4]
 8009648:	f88a 6000 	strb.w	r6, [sl]
 800964c:	f883 8000 	strb.w	r8, [r3]
 8009650:	4628      	mov	r0, r5
 8009652:	b00b      	add	sp, #44	; 0x2c
 8009654:	e8bd 8ff0 	ldmia.w	sp!, {r4, r5, r6, r7, r8, r9, sl, fp, pc}
 8009658:	68a2      	ldr	r2, [r4, #8]
 800965a:	89a1      	ldrh	r1, [r4, #12]
 800965c:	89e3      	ldrh	r3, [r4, #14]
 800965e:	428a      	cmp	r2, r1
 8009660:	440b      	add	r3, r1
 8009662:	bf34      	ite	cc
 8009664:	2500      	movcc	r5, #0
 8009666:	2501      	movcs	r5, #1
 8009668:	429a      	cmp	r2, r3
 800966a:	d3ec      	bcc.n	8009646 <LoRaMacAdrCalcNext+0x5a>
 800966c:	2308      	movs	r3, #8
 800966e:	a905      	add	r1, sp, #20
 8009670:	7ce0      	ldrb	r0, [r4, #19]
 8009672:	f88d 3014 	strb.w	r3, [sp, #20]
 8009676:	f000 feba 	bl	800a3ee <RegionGetPhyParam>
 800967a:	89e2      	ldrh	r2, [r4, #14]
 800967c:	68a3      	ldr	r3, [r4, #8]
 800967e:	fbb3 f1f2 	udiv	r1, r3, r2
 8009682:	fb02 3311 	mls	r3, r2, r1, r3
 8009686:	2b01      	cmp	r3, #1
 8009688:	fa4f f880 	sxtb.w	r8, r0
 800968c:	d1db      	bne.n	8009646 <LoRaMacAdrCalcNext+0x5a>
 800968e:	2322      	movs	r3, #34	; 0x22
 8009690:	f88d 3014 	strb.w	r3, [sp, #20]
 8009694:	7ce0      	ldrb	r0, [r4, #19]
 8009696:	7ca3      	ldrb	r3, [r4, #18]
 8009698:	f88d 6015 	strb.w	r6, [sp, #21]
 800969c:	a905      	add	r1, sp, #20
 800969e:	f88d 3016 	strb.w	r3, [sp, #22]
 80096a2:	f000 fea4 	bl	800a3ee <RegionGetPhyParam>
 80096a6:	b246      	sxtb	r6, r0
 80096a8:	42b7      	cmp	r7, r6
 80096aa:	d1cc      	bne.n	8009646 <LoRaMacAdrCalcNext+0x5a>
 80096ac:	7925      	ldrb	r5, [r4, #4]
 80096ae:	2d00      	cmp	r5, #0
 80096b0:	d0c9      	beq.n	8009646 <LoRaMacAdrCalcNext+0x5a>
 80096b2:	7ce0      	ldrb	r0, [r4, #19]
 80096b4:	f88d b024 	strb.w	fp, [sp, #36]	; 0x24
 80096b8:	a907      	add	r1, sp, #28
 80096ba:	f000 fea8 	bl	800a40e <RegionInitDefaults>
 80096be:	e7c1      	b.n	8009644 <LoRaMacAdrCalcNext+0x58>
 80096c0:	4616      	mov	r6, r2
 80096c2:	e7c0      	b.n	8009646 <LoRaMacAdrCalcNext+0x5a>
 80096c4:	2500      	movs	r5, #0
 80096c6:	e7c3      	b.n	8009650 <LoRaMacAdrCalcNext+0x64>

080096c8 <LoRaMacClassBInit>:
 80096c8:	4770      	bx	lr

080096ca <LoRaMacClassBSetBeaconState>:
 80096ca:	4770      	bx	lr

080096cc <LoRaMacClassBSetPingSlotState>:
 80096cc:	4770      	bx	lr

080096ce <LoRaMacClassBSetMulticastSlotState>:
 80096ce:	4770      	bx	lr

080096d0 <LoRaMacClassBIsAcquisitionInProgress>:
 80096d0:	2000      	movs	r0, #0
 80096d2:	4770      	bx	lr

080096d4 <LoRaMacClassBBeaconTimerEvent>:
 80096d4:	4770      	bx	lr

080096d6 <LoRaMacClassBPingSlotTimerEvent>:
 80096d6:	4770      	bx	lr

080096d8 <LoRaMacClassBMulticastSlotTimerEvent>:
 80096d8:	4770      	bx	lr

080096da <LoRaMacClassBRxBeacon>:
 80096da:	2000      	movs	r0, #0
 80096dc:	4770      	bx	lr

080096de <LoRaMacClassBIsBeaconExpected>:
 80096de:	2000      	movs	r0, #0
 80096e0:	4770      	bx	lr

080096e2 <LoRaMacClassBIsPingExpected>:
 80096e2:	2000      	movs	r0, #0
 80096e4:	4770      	bx	lr

080096e6 <LoRaMacClassBIsMulticastExpected>:
 80096e6:	2000      	movs	r0, #0
 80096e8:	4770      	bx	lr

080096ea <LoRaMacClassBIsBeaconModeActive>:
 80096ea:	2000      	movs	r0, #0
 80096ec:	4770      	bx	lr

080096ee <LoRaMacClassBSetPingSlotInfo>:
 80096ee:	4770      	bx	lr

080096f0 <LoRaMacClassBHaltBeaconing>:
 80096f0:	4770      	bx	lr

080096f2 <LoRaMacClassBResumeBeaconing>:
 80096f2:	4770      	bx	lr

080096f4 <LoRaMacClassBSwitchClass>:
 80096f4:	2002      	movs	r0, #2
 80096f6:	4770      	bx	lr

080096f8 <LoRaMacClassBMibGetRequestConfirm>:
 80096f8:	2002      	movs	r0, #2
 80096fa:	4770      	bx	lr

080096fc <LoRaMacMibClassBSetRequestConfirm>:
 80096fc:	2002      	movs	r0, #2
 80096fe:	4770      	bx	lr

08009700 <LoRaMacClassBPingSlotInfoAns>:
 8009700:	4770      	bx	lr

08009702 <LoRaMacClassBPingSlotChannelReq>:
 8009702:	2000      	movs	r0, #0
 8009704:	4770      	bx	lr

08009706 <LoRaMacClassBBeaconTimingAns>:
 8009706:	4770      	bx	lr

08009708 <LoRaMacClassBDeviceTimeAns>:
 8009708:	4770      	bx	lr

0800970a <LoRaMacClassBBeaconFreqReq>:
 800970a:	2000      	movs	r0, #0
 800970c:	4770      	bx	lr

0800970e <LoRaMacClassBIsUplinkCollision>:
 800970e:	2000      	movs	r0, #0
 8009710:	4770      	bx	lr

08009712 <LoRaMacClassBStopRxSlots>:
 8009712:	4770      	bx	lr

08009714 <LoRaMacClassBProcess>:
 8009714:	4770      	bx	lr
	...

08009718 <LoRaMacCommandsInit>:
 8009718:	b510      	push	{r4, lr}
 800971a:	4c05      	ldr	r4, [pc, #20]	; (8009730 <LoRaMacCommandsInit+0x18>)
 800971c:	22fc      	movs	r2, #252	; 0xfc
 800971e:	4620      	mov	r0, r4
 8009720:	2100      	movs	r1, #0
 8009722:	f001 ffe9 	bl	800b6f8 <memset1>
 8009726:	2000      	movs	r0, #0
 8009728:	e9c4 0000 	strd	r0, r0, [r4]
 800972c:	bd10      	pop	{r4, pc}
 800972e:	bf00      	nop
 8009730:	2000198c 	.word	0x2000198c

08009734 <LoRaMacCommandsAddCmd>:
 8009734:	e92d 41f0 	stmdb	sp!, {r4, r5, r6, r7, r8, lr}
 8009738:	4680      	mov	r8, r0
 800973a:	4615      	mov	r5, r2
 800973c:	2900      	cmp	r1, #0
 800973e:	d03f      	beq.n	80097c0 <LoRaMacCommandsAddCmd+0x8c>
 8009740:	4b23      	ldr	r3, [pc, #140]	; (80097d0 <LoRaMacCommandsAddCmd+0x9c>)
 8009742:	2400      	movs	r4, #0
 8009744:	f103 0c01 	add.w	ip, r3, #1
 8009748:	461a      	mov	r2, r3
 800974a:	0120      	lsls	r0, r4, #4
 800974c:	3310      	adds	r3, #16
 800974e:	f812 6f01 	ldrb.w	r6, [r2, #1]!
 8009752:	bbbe      	cbnz	r6, 80097c4 <LoRaMacCommandsAddCmd+0x90>
 8009754:	429a      	cmp	r2, r3
 8009756:	d1fa      	bne.n	800974e <LoRaMacCommandsAddCmd+0x1a>
 8009758:	4f1e      	ldr	r7, [pc, #120]	; (80097d4 <LoRaMacCommandsAddCmd+0xa0>)
 800975a:	683b      	ldr	r3, [r7, #0]
 800975c:	b90b      	cbnz	r3, 8009762 <LoRaMacCommandsAddCmd+0x2e>
 800975e:	f8c7 c000 	str.w	ip, [r7]
 8009762:	687b      	ldr	r3, [r7, #4]
 8009764:	b10b      	cbz	r3, 800976a <LoRaMacCommandsAddCmd+0x36>
 8009766:	f8c3 c000 	str.w	ip, [r3]
 800976a:	183b      	adds	r3, r7, r0
 800976c:	2200      	movs	r2, #0
 800976e:	3401      	adds	r4, #1
 8009770:	609a      	str	r2, [r3, #8]
 8009772:	f883 800c 	strb.w	r8, [r3, #12]
 8009776:	300d      	adds	r0, #13
 8009778:	0123      	lsls	r3, r4, #4
 800977a:	b2aa      	uxth	r2, r5
 800977c:	4438      	add	r0, r7
 800977e:	50fd      	str	r5, [r7, r3]
 8009780:	f8c7 c004 	str.w	ip, [r7, #4]
 8009784:	f001 ffa4 	bl	800b6d0 <memcpy1>
 8009788:	f1b8 0f05 	cmp.w	r8, #5
 800978c:	d015      	beq.n	80097ba <LoRaMacCommandsAddCmd+0x86>
 800978e:	f1a8 0808 	sub.w	r8, r8, #8
 8009792:	f1b8 0f02 	cmp.w	r8, #2
 8009796:	bf8c      	ite	hi
 8009798:	f04f 0800 	movhi.w	r8, #0
 800979c:	f04f 0801 	movls.w	r8, #1
 80097a0:	f8d7 30f8 	ldr.w	r3, [r7, #248]	; 0xf8
 80097a4:	eb07 1404 	add.w	r4, r7, r4, lsl #4
 80097a8:	3301      	adds	r3, #1
 80097aa:	442b      	add	r3, r5
 80097ac:	f884 8004 	strb.w	r8, [r4, #4]
 80097b0:	f8c7 30f8 	str.w	r3, [r7, #248]	; 0xf8
 80097b4:	4630      	mov	r0, r6
 80097b6:	e8bd 81f0 	ldmia.w	sp!, {r4, r5, r6, r7, r8, pc}
 80097ba:	f04f 0801 	mov.w	r8, #1
 80097be:	e7ef      	b.n	80097a0 <LoRaMacCommandsAddCmd+0x6c>
 80097c0:	2601      	movs	r6, #1
 80097c2:	e7f7      	b.n	80097b4 <LoRaMacCommandsAddCmd+0x80>
 80097c4:	3401      	adds	r4, #1
 80097c6:	2c0f      	cmp	r4, #15
 80097c8:	d1bc      	bne.n	8009744 <LoRaMacCommandsAddCmd+0x10>
 80097ca:	2602      	movs	r6, #2
 80097cc:	e7f2      	b.n	80097b4 <LoRaMacCommandsAddCmd+0x80>
 80097ce:	bf00      	nop
 80097d0:	20001993 	.word	0x20001993
 80097d4:	2000198c 	.word	0x2000198c

080097d8 <LoRaMacCommandsRemoveCmd>:
 80097d8:	b510      	push	{r4, lr}
 80097da:	b310      	cbz	r0, 8009822 <LoRaMacCommandsRemoveCmd+0x4a>
 80097dc:	4a12      	ldr	r2, [pc, #72]	; (8009828 <LoRaMacCommandsRemoveCmd+0x50>)
 80097de:	6813      	ldr	r3, [r2, #0]
 80097e0:	4298      	cmp	r0, r3
 80097e2:	d104      	bne.n	80097ee <LoRaMacCommandsRemoveCmd+0x16>
 80097e4:	6803      	ldr	r3, [r0, #0]
 80097e6:	6013      	str	r3, [r2, #0]
 80097e8:	2300      	movs	r3, #0
 80097ea:	e004      	b.n	80097f6 <LoRaMacCommandsRemoveCmd+0x1e>
 80097ec:	460b      	mov	r3, r1
 80097ee:	b113      	cbz	r3, 80097f6 <LoRaMacCommandsRemoveCmd+0x1e>
 80097f0:	6819      	ldr	r1, [r3, #0]
 80097f2:	4288      	cmp	r0, r1
 80097f4:	d1fa      	bne.n	80097ec <LoRaMacCommandsRemoveCmd+0x14>
 80097f6:	6851      	ldr	r1, [r2, #4]
 80097f8:	4288      	cmp	r0, r1
 80097fa:	bf08      	it	eq
 80097fc:	6053      	streq	r3, [r2, #4]
 80097fe:	b10b      	cbz	r3, 8009804 <LoRaMacCommandsRemoveCmd+0x2c>
 8009800:	6801      	ldr	r1, [r0, #0]
 8009802:	6019      	str	r1, [r3, #0]
 8009804:	f8d2 30f8 	ldr.w	r3, [r2, #248]	; 0xf8
 8009808:	6881      	ldr	r1, [r0, #8]
 800980a:	3b01      	subs	r3, #1
 800980c:	2400      	movs	r4, #0
 800980e:	1a5b      	subs	r3, r3, r1
 8009810:	6004      	str	r4, [r0, #0]
 8009812:	4621      	mov	r1, r4
 8009814:	f8c2 30f8 	str.w	r3, [r2, #248]	; 0xf8
 8009818:	2210      	movs	r2, #16
 800981a:	f001 ff6d 	bl	800b6f8 <memset1>
 800981e:	4620      	mov	r0, r4
 8009820:	bd10      	pop	{r4, pc}
 8009822:	2001      	movs	r0, #1
 8009824:	e7fc      	b.n	8009820 <LoRaMacCommandsRemoveCmd+0x48>
 8009826:	bf00      	nop
 8009828:	2000198c 	.word	0x2000198c

0800982c <LoRaMacCommandsRemoveNoneStickyCmds>:
 800982c:	b510      	push	{r4, lr}
 800982e:	4b05      	ldr	r3, [pc, #20]	; (8009844 <LoRaMacCommandsRemoveNoneStickyCmds+0x18>)
 8009830:	6818      	ldr	r0, [r3, #0]
 8009832:	b900      	cbnz	r0, 8009836 <LoRaMacCommandsRemoveNoneStickyCmds+0xa>
 8009834:	bd10      	pop	{r4, pc}
 8009836:	7b03      	ldrb	r3, [r0, #12]
 8009838:	6804      	ldr	r4, [r0, #0]
 800983a:	b90b      	cbnz	r3, 8009840 <LoRaMacCommandsRemoveNoneStickyCmds+0x14>
 800983c:	f7ff ffcc 	bl	80097d8 <LoRaMacCommandsRemoveCmd>
 8009840:	4620      	mov	r0, r4
 8009842:	e7f6      	b.n	8009832 <LoRaMacCommandsRemoveNoneStickyCmds+0x6>
 8009844:	2000198c 	.word	0x2000198c

08009848 <LoRaMacCommandsRemoveStickyAnsCmds>:
 8009848:	b510      	push	{r4, lr}
 800984a:	4b07      	ldr	r3, [pc, #28]	; (8009868 <LoRaMacCommandsRemoveStickyAnsCmds+0x20>)
 800984c:	6818      	ldr	r0, [r3, #0]
 800984e:	b900      	cbnz	r0, 8009852 <LoRaMacCommandsRemoveStickyAnsCmds+0xa>
 8009850:	bd10      	pop	{r4, pc}
 8009852:	7903      	ldrb	r3, [r0, #4]
 8009854:	6804      	ldr	r4, [r0, #0]
 8009856:	2b05      	cmp	r3, #5
 8009858:	d002      	beq.n	8009860 <LoRaMacCommandsRemoveStickyAnsCmds+0x18>
 800985a:	3b08      	subs	r3, #8
 800985c:	2b02      	cmp	r3, #2
 800985e:	d801      	bhi.n	8009864 <LoRaMacCommandsRemoveStickyAnsCmds+0x1c>
 8009860:	f7ff ffba 	bl	80097d8 <LoRaMacCommandsRemoveCmd>
 8009864:	4620      	mov	r0, r4
 8009866:	e7f2      	b.n	800984e <LoRaMacCommandsRemoveStickyAnsCmds+0x6>
 8009868:	2000198c 	.word	0x2000198c

0800986c <LoRaMacCommandsGetSizeSerializedCmds>:
 800986c:	b128      	cbz	r0, 800987a <LoRaMacCommandsGetSizeSerializedCmds+0xe>
 800986e:	4b04      	ldr	r3, [pc, #16]	; (8009880 <LoRaMacCommandsGetSizeSerializedCmds+0x14>)
 8009870:	f8d3 30f8 	ldr.w	r3, [r3, #248]	; 0xf8
 8009874:	6003      	str	r3, [r0, #0]
 8009876:	2000      	movs	r0, #0
 8009878:	4770      	bx	lr
 800987a:	2001      	movs	r0, #1
 800987c:	4770      	bx	lr
 800987e:	bf00      	nop
 8009880:	2000198c 	.word	0x2000198c

08009884 <LoRaMacCommandsSerializeCmds>:
 8009884:	e92d 41f0 	stmdb	sp!, {r4, r5, r6, r7, r8, lr}
 8009888:	4607      	mov	r7, r0
 800988a:	460e      	mov	r6, r1
 800988c:	4615      	mov	r5, r2
 800988e:	b332      	cbz	r2, 80098de <LoRaMacCommandsSerializeCmds+0x5a>
 8009890:	b329      	cbz	r1, 80098de <LoRaMacCommandsSerializeCmds+0x5a>
 8009892:	4b14      	ldr	r3, [pc, #80]	; (80098e4 <LoRaMacCommandsSerializeCmds+0x60>)
 8009894:	681c      	ldr	r4, [r3, #0]
 8009896:	2300      	movs	r3, #0
 8009898:	b92c      	cbnz	r4, 80098a6 <LoRaMacCommandsSerializeCmds+0x22>
 800989a:	4630      	mov	r0, r6
 800989c:	f7ff ffe6 	bl	800986c <LoRaMacCommandsGetSizeSerializedCmds>
 80098a0:	2000      	movs	r0, #0
 80098a2:	e8bd 81f0 	ldmia.w	sp!, {r4, r5, r6, r7, r8, pc}
 80098a6:	68a2      	ldr	r2, [r4, #8]
 80098a8:	1af9      	subs	r1, r7, r3
 80098aa:	3201      	adds	r2, #1
 80098ac:	4291      	cmp	r1, r2
 80098ae:	d30f      	bcc.n	80098d0 <LoRaMacCommandsSerializeCmds+0x4c>
 80098b0:	7922      	ldrb	r2, [r4, #4]
 80098b2:	54ea      	strb	r2, [r5, r3]
 80098b4:	1c58      	adds	r0, r3, #1
 80098b6:	8922      	ldrh	r2, [r4, #8]
 80098b8:	fa5f f880 	uxtb.w	r8, r0
 80098bc:	1d61      	adds	r1, r4, #5
 80098be:	fa55 f080 	uxtab	r0, r5, r0
 80098c2:	f001 ff05 	bl	800b6d0 <memcpy1>
 80098c6:	68a3      	ldr	r3, [r4, #8]
 80098c8:	6824      	ldr	r4, [r4, #0]
 80098ca:	4443      	add	r3, r8
 80098cc:	b2db      	uxtb	r3, r3
 80098ce:	e7e3      	b.n	8009898 <LoRaMacCommandsSerializeCmds+0x14>
 80098d0:	4620      	mov	r0, r4
 80098d2:	6824      	ldr	r4, [r4, #0]
 80098d4:	f7ff ff80 	bl	80097d8 <LoRaMacCommandsRemoveCmd>
 80098d8:	2c00      	cmp	r4, #0
 80098da:	d1f9      	bne.n	80098d0 <LoRaMacCommandsSerializeCmds+0x4c>
 80098dc:	e7dd      	b.n	800989a <LoRaMacCommandsSerializeCmds+0x16>
 80098de:	2001      	movs	r0, #1
 80098e0:	e7df      	b.n	80098a2 <LoRaMacCommandsSerializeCmds+0x1e>
 80098e2:	bf00      	nop
 80098e4:	2000198c 	.word	0x2000198c

080098e8 <LoRaMacCommandsStickyCmdsPending>:
 80098e8:	4603      	mov	r3, r0
 80098ea:	b168      	cbz	r0, 8009908 <LoRaMacCommandsStickyCmdsPending+0x20>
 80098ec:	4a07      	ldr	r2, [pc, #28]	; (800990c <LoRaMacCommandsStickyCmdsPending+0x24>)
 80098ee:	6810      	ldr	r0, [r2, #0]
 80098f0:	2200      	movs	r2, #0
 80098f2:	701a      	strb	r2, [r3, #0]
 80098f4:	b900      	cbnz	r0, 80098f8 <LoRaMacCommandsStickyCmdsPending+0x10>
 80098f6:	4770      	bx	lr
 80098f8:	7b02      	ldrb	r2, [r0, #12]
 80098fa:	b11a      	cbz	r2, 8009904 <LoRaMacCommandsStickyCmdsPending+0x1c>
 80098fc:	2201      	movs	r2, #1
 80098fe:	701a      	strb	r2, [r3, #0]
 8009900:	2000      	movs	r0, #0
 8009902:	4770      	bx	lr
 8009904:	6800      	ldr	r0, [r0, #0]
 8009906:	e7f5      	b.n	80098f4 <LoRaMacCommandsStickyCmdsPending+0xc>
 8009908:	2001      	movs	r0, #1
 800990a:	4770      	bx	lr
 800990c:	2000198c 	.word	0x2000198c

08009910 <LoRaMacCommandsGetCmdSize>:
 8009910:	3802      	subs	r0, #2
 8009912:	b2c0      	uxtb	r0, r0
 8009914:	2811      	cmp	r0, #17
 8009916:	bf9a      	itte	ls
 8009918:	4b01      	ldrls	r3, [pc, #4]	; (8009920 <LoRaMacCommandsGetCmdSize+0x10>)
 800991a:	5c18      	ldrbls	r0, [r3, r0]
 800991c:	2000      	movhi	r0, #0
 800991e:	4770      	bx	lr
 8009920:	0800edb7 	.word	0x0800edb7

08009924 <GetElement.constprop.0>:
 8009924:	b530      	push	{r4, r5, lr}
 8009926:	4b0b      	ldr	r3, [pc, #44]	; (8009954 <GetElement.constprop.0+0x30>)
 8009928:	f893 2020 	ldrb.w	r2, [r3, #32]
 800992c:	4604      	mov	r4, r0
 800992e:	4608      	mov	r0, r1
 8009930:	b172      	cbz	r2, 8009950 <GetElement.constprop.0+0x2c>
 8009932:	2100      	movs	r1, #0
 8009934:	331c      	adds	r3, #28
 8009936:	7805      	ldrb	r5, [r0, #0]
 8009938:	42a5      	cmp	r5, r4
 800993a:	d008      	beq.n	800994e <GetElement.constprop.0+0x2a>
 800993c:	3101      	adds	r1, #1
 800993e:	4298      	cmp	r0, r3
 8009940:	b2cd      	uxtb	r5, r1
 8009942:	bf0c      	ite	eq
 8009944:	4804      	ldreq	r0, [pc, #16]	; (8009958 <GetElement.constprop.0+0x34>)
 8009946:	3004      	addne	r0, #4
 8009948:	42aa      	cmp	r2, r5
 800994a:	d8f4      	bhi.n	8009936 <GetElement.constprop.0+0x12>
 800994c:	2000      	movs	r0, #0
 800994e:	bd30      	pop	{r4, r5, pc}
 8009950:	4610      	mov	r0, r2
 8009952:	e7fc      	b.n	800994e <GetElement.constprop.0+0x2a>
 8009954:	20001a88 	.word	0x20001a88
 8009958:	20001a94 	.word	0x20001a94

0800995c <LoRaMacConfirmQueueInit>:
 800995c:	b510      	push	{r4, lr}
 800995e:	4c08      	ldr	r4, [pc, #32]	; (8009980 <LoRaMacConfirmQueueInit+0x24>)
 8009960:	2300      	movs	r3, #0
 8009962:	6020      	str	r0, [r4, #0]
 8009964:	2214      	movs	r2, #20
 8009966:	f104 000c 	add.w	r0, r4, #12
 800996a:	21ff      	movs	r1, #255	; 0xff
 800996c:	f884 3020 	strb.w	r3, [r4, #32]
 8009970:	e9c4 0001 	strd	r0, r0, [r4, #4]
 8009974:	f001 fec0 	bl	800b6f8 <memset1>
 8009978:	2301      	movs	r3, #1
 800997a:	f884 3021 	strb.w	r3, [r4, #33]	; 0x21
 800997e:	bd10      	pop	{r4, pc}
 8009980:	20001a88 	.word	0x20001a88

08009984 <LoRaMacConfirmQueueAdd>:
 8009984:	b510      	push	{r4, lr}
 8009986:	4a0e      	ldr	r2, [pc, #56]	; (80099c0 <LoRaMacConfirmQueueAdd+0x3c>)
 8009988:	f892 1020 	ldrb.w	r1, [r2, #32]
 800998c:	2904      	cmp	r1, #4
 800998e:	d815      	bhi.n	80099bc <LoRaMacConfirmQueueAdd+0x38>
 8009990:	6893      	ldr	r3, [r2, #8]
 8009992:	7804      	ldrb	r4, [r0, #0]
 8009994:	701c      	strb	r4, [r3, #0]
 8009996:	7844      	ldrb	r4, [r0, #1]
 8009998:	705c      	strb	r4, [r3, #1]
 800999a:	78c0      	ldrb	r0, [r0, #3]
 800999c:	70d8      	strb	r0, [r3, #3]
 800999e:	3101      	adds	r1, #1
 80099a0:	2000      	movs	r0, #0
 80099a2:	7098      	strb	r0, [r3, #2]
 80099a4:	f882 1020 	strb.w	r1, [r2, #32]
 80099a8:	f102 011c 	add.w	r1, r2, #28
 80099ac:	428b      	cmp	r3, r1
 80099ae:	bf14      	ite	ne
 80099b0:	3304      	addne	r3, #4
 80099b2:	f102 030c 	addeq.w	r3, r2, #12
 80099b6:	6093      	str	r3, [r2, #8]
 80099b8:	2001      	movs	r0, #1
 80099ba:	bd10      	pop	{r4, pc}
 80099bc:	2000      	movs	r0, #0
 80099be:	e7fc      	b.n	80099ba <LoRaMacConfirmQueueAdd+0x36>
 80099c0:	20001a88 	.word	0x20001a88

080099c4 <LoRaMacConfirmQueueRemoveFirst>:
 80099c4:	4b09      	ldr	r3, [pc, #36]	; (80099ec <LoRaMacConfirmQueueRemoveFirst+0x28>)
 80099c6:	f893 0020 	ldrb.w	r0, [r3, #32]
 80099ca:	b168      	cbz	r0, 80099e8 <LoRaMacConfirmQueueRemoveFirst+0x24>
 80099cc:	685a      	ldr	r2, [r3, #4]
 80099ce:	f103 011c 	add.w	r1, r3, #28
 80099d2:	428a      	cmp	r2, r1
 80099d4:	f100 30ff 	add.w	r0, r0, #4294967295
 80099d8:	bf14      	ite	ne
 80099da:	3204      	addne	r2, #4
 80099dc:	f103 020c 	addeq.w	r2, r3, #12
 80099e0:	f883 0020 	strb.w	r0, [r3, #32]
 80099e4:	605a      	str	r2, [r3, #4]
 80099e6:	2001      	movs	r0, #1
 80099e8:	4770      	bx	lr
 80099ea:	bf00      	nop
 80099ec:	20001a88 	.word	0x20001a88

080099f0 <LoRaMacConfirmQueueSetStatus>:
 80099f0:	b510      	push	{r4, lr}
 80099f2:	4b07      	ldr	r3, [pc, #28]	; (8009a10 <LoRaMacConfirmQueueSetStatus+0x20>)
 80099f4:	f893 2020 	ldrb.w	r2, [r3, #32]
 80099f8:	4604      	mov	r4, r0
 80099fa:	4608      	mov	r0, r1
 80099fc:	b132      	cbz	r2, 8009a0c <LoRaMacConfirmQueueSetStatus+0x1c>
 80099fe:	6859      	ldr	r1, [r3, #4]
 8009a00:	f7ff ff90 	bl	8009924 <GetElement.constprop.0>
 8009a04:	b110      	cbz	r0, 8009a0c <LoRaMacConfirmQueueSetStatus+0x1c>
 8009a06:	2301      	movs	r3, #1
 8009a08:	7044      	strb	r4, [r0, #1]
 8009a0a:	7083      	strb	r3, [r0, #2]
 8009a0c:	bd10      	pop	{r4, pc}
 8009a0e:	bf00      	nop
 8009a10:	20001a88 	.word	0x20001a88

08009a14 <LoRaMacConfirmQueueGetStatus>:
 8009a14:	b508      	push	{r3, lr}
 8009a16:	4b06      	ldr	r3, [pc, #24]	; (8009a30 <LoRaMacConfirmQueueGetStatus+0x1c>)
 8009a18:	f893 2020 	ldrb.w	r2, [r3, #32]
 8009a1c:	b12a      	cbz	r2, 8009a2a <LoRaMacConfirmQueueGetStatus+0x16>
 8009a1e:	6859      	ldr	r1, [r3, #4]
 8009a20:	f7ff ff80 	bl	8009924 <GetElement.constprop.0>
 8009a24:	b108      	cbz	r0, 8009a2a <LoRaMacConfirmQueueGetStatus+0x16>
 8009a26:	7840      	ldrb	r0, [r0, #1]
 8009a28:	bd08      	pop	{r3, pc}
 8009a2a:	2001      	movs	r0, #1
 8009a2c:	e7fc      	b.n	8009a28 <LoRaMacConfirmQueueGetStatus+0x14>
 8009a2e:	bf00      	nop
 8009a30:	20001a88 	.word	0x20001a88

08009a34 <LoRaMacConfirmQueueSetStatusCmn>:
 8009a34:	b530      	push	{r4, r5, lr}
 8009a36:	4a0a      	ldr	r2, [pc, #40]	; (8009a60 <LoRaMacConfirmQueueSetStatusCmn+0x2c>)
 8009a38:	f892 1020 	ldrb.w	r1, [r2, #32]
 8009a3c:	6853      	ldr	r3, [r2, #4]
 8009a3e:	f882 0021 	strb.w	r0, [r2, #33]	; 0x21
 8009a42:	b161      	cbz	r1, 8009a5e <LoRaMacConfirmQueueSetStatusCmn+0x2a>
 8009a44:	6891      	ldr	r1, [r2, #8]
 8009a46:	2401      	movs	r4, #1
 8009a48:	321c      	adds	r2, #28
 8009a4a:	78dd      	ldrb	r5, [r3, #3]
 8009a4c:	7058      	strb	r0, [r3, #1]
 8009a4e:	b905      	cbnz	r5, 8009a52 <LoRaMacConfirmQueueSetStatusCmn+0x1e>
 8009a50:	709c      	strb	r4, [r3, #2]
 8009a52:	4293      	cmp	r3, r2
 8009a54:	bf0c      	ite	eq
 8009a56:	4b03      	ldreq	r3, [pc, #12]	; (8009a64 <LoRaMacConfirmQueueSetStatusCmn+0x30>)
 8009a58:	3304      	addne	r3, #4
 8009a5a:	4299      	cmp	r1, r3
 8009a5c:	d1f5      	bne.n	8009a4a <LoRaMacConfirmQueueSetStatusCmn+0x16>
 8009a5e:	bd30      	pop	{r4, r5, pc}
 8009a60:	20001a88 	.word	0x20001a88
 8009a64:	20001a94 	.word	0x20001a94

08009a68 <LoRaMacConfirmQueueIsCmdActive>:
 8009a68:	b508      	push	{r3, lr}
 8009a6a:	4b04      	ldr	r3, [pc, #16]	; (8009a7c <LoRaMacConfirmQueueIsCmdActive+0x14>)
 8009a6c:	6859      	ldr	r1, [r3, #4]
 8009a6e:	f7ff ff59 	bl	8009924 <GetElement.constprop.0>
 8009a72:	3800      	subs	r0, #0
 8009a74:	bf18      	it	ne
 8009a76:	2001      	movne	r0, #1
 8009a78:	bd08      	pop	{r3, pc}
 8009a7a:	bf00      	nop
 8009a7c:	20001a88 	.word	0x20001a88

08009a80 <LoRaMacConfirmQueueHandleCb>:
 8009a80:	e92d 41f3 	stmdb	sp!, {r0, r1, r4, r5, r6, r7, r8, lr}
 8009a84:	4e12      	ldr	r6, [pc, #72]	; (8009ad0 <LoRaMacConfirmQueueHandleCb+0x50>)
 8009a86:	f896 8020 	ldrb.w	r8, [r6, #32]
 8009a8a:	4604      	mov	r4, r0
 8009a8c:	2500      	movs	r5, #0
 8009a8e:	b2eb      	uxtb	r3, r5
 8009a90:	4598      	cmp	r8, r3
 8009a92:	d802      	bhi.n	8009a9a <LoRaMacConfirmQueueHandleCb+0x1a>
 8009a94:	b002      	add	sp, #8
 8009a96:	e8bd 81f0 	ldmia.w	sp!, {r4, r5, r6, r7, r8, pc}
 8009a9a:	6873      	ldr	r3, [r6, #4]
 8009a9c:	7819      	ldrb	r1, [r3, #0]
 8009a9e:	7021      	strb	r1, [r4, #0]
 8009aa0:	785a      	ldrb	r2, [r3, #1]
 8009aa2:	7062      	strb	r2, [r4, #1]
 8009aa4:	789f      	ldrb	r7, [r3, #2]
 8009aa6:	b15f      	cbz	r7, 8009ac0 <LoRaMacConfirmQueueHandleCb+0x40>
 8009aa8:	6833      	ldr	r3, [r6, #0]
 8009aaa:	4620      	mov	r0, r4
 8009aac:	689b      	ldr	r3, [r3, #8]
 8009aae:	4798      	blx	r3
 8009ab0:	f7ff ff88 	bl	80099c4 <LoRaMacConfirmQueueRemoveFirst>
 8009ab4:	b917      	cbnz	r7, 8009abc <LoRaMacConfirmQueueHandleCb+0x3c>
 8009ab6:	a801      	add	r0, sp, #4
 8009ab8:	f7ff ff64 	bl	8009984 <LoRaMacConfirmQueueAdd>
 8009abc:	3501      	adds	r5, #1
 8009abe:	e7e6      	b.n	8009a8e <LoRaMacConfirmQueueHandleCb+0xe>
 8009ac0:	78db      	ldrb	r3, [r3, #3]
 8009ac2:	f88d 1004 	strb.w	r1, [sp, #4]
 8009ac6:	f88d 2005 	strb.w	r2, [sp, #5]
 8009aca:	f88d 3007 	strb.w	r3, [sp, #7]
 8009ace:	e7ef      	b.n	8009ab0 <LoRaMacConfirmQueueHandleCb+0x30>
 8009ad0:	20001a88 	.word	0x20001a88

08009ad4 <LoRaMacConfirmQueueGetCnt>:
 8009ad4:	4b01      	ldr	r3, [pc, #4]	; (8009adc <LoRaMacConfirmQueueGetCnt+0x8>)
 8009ad6:	f893 0020 	ldrb.w	r0, [r3, #32]
 8009ada:	4770      	bx	lr
 8009adc:	20001a88 	.word	0x20001a88

08009ae0 <LoRaMacConfirmQueueIsFull>:
 8009ae0:	4b03      	ldr	r3, [pc, #12]	; (8009af0 <LoRaMacConfirmQueueIsFull+0x10>)
 8009ae2:	f893 0020 	ldrb.w	r0, [r3, #32]
 8009ae6:	2804      	cmp	r0, #4
 8009ae8:	bf94      	ite	ls
 8009aea:	2000      	movls	r0, #0
 8009aec:	2001      	movhi	r0, #1
 8009aee:	4770      	bx	lr
 8009af0:	20001a88 	.word	0x20001a88

08009af4 <DeriveSessionKey10x>:
 8009af4:	b51f      	push	{r0, r1, r2, r3, r4, lr}
 8009af6:	2400      	movs	r4, #0
 8009af8:	e9cd 4402 	strd	r4, r4, [sp, #8]
 8009afc:	1e44      	subs	r4, r0, #1
 8009afe:	f88d 4000 	strb.w	r4, [sp]
 8009b02:	f88d 1001 	strb.w	r1, [sp, #1]
 8009b06:	0a0c      	lsrs	r4, r1, #8
 8009b08:	0c09      	lsrs	r1, r1, #16
 8009b0a:	f88d 1003 	strb.w	r1, [sp, #3]
 8009b0e:	f88d 2004 	strb.w	r2, [sp, #4]
 8009b12:	0a11      	lsrs	r1, r2, #8
 8009b14:	0c12      	lsrs	r2, r2, #16
 8009b16:	f88d 1005 	strb.w	r1, [sp, #5]
 8009b1a:	f88d 2006 	strb.w	r2, [sp, #6]
 8009b1e:	f88d 3007 	strb.w	r3, [sp, #7]
 8009b22:	4602      	mov	r2, r0
 8009b24:	0a1b      	lsrs	r3, r3, #8
 8009b26:	2101      	movs	r1, #1
 8009b28:	4668      	mov	r0, sp
 8009b2a:	f88d 4002 	strb.w	r4, [sp, #2]
 8009b2e:	f88d 3008 	strb.w	r3, [sp, #8]
 8009b32:	f7fc fa90 	bl	8006056 <SecureElementDeriveAndStoreKey>
 8009b36:	2800      	cmp	r0, #0
 8009b38:	bf18      	it	ne
 8009b3a:	200f      	movne	r0, #15
 8009b3c:	b004      	add	sp, #16
 8009b3e:	bd10      	pop	{r4, pc}

08009b40 <PayloadEncrypt>:
 8009b40:	e92d 41f0 	stmdb	sp!, {r4, r5, r6, r7, r8, lr}
 8009b44:	b088      	sub	sp, #32
 8009b46:	4617      	mov	r7, r2
 8009b48:	460d      	mov	r5, r1
 8009b4a:	9a0f      	ldr	r2, [sp, #60]	; 0x3c
 8009b4c:	4606      	mov	r6, r0
 8009b4e:	2800      	cmp	r0, #0
 8009b50:	d053      	beq.n	8009bfa <PayloadEncrypt+0xba>
 8009b52:	2400      	movs	r4, #0
 8009b54:	2101      	movs	r1, #1
 8009b56:	e9cd 4404 	strd	r4, r4, [sp, #16]
 8009b5a:	f88d 1010 	strb.w	r1, [sp, #16]
 8009b5e:	f89d 1038 	ldrb.w	r1, [sp, #56]	; 0x38
 8009b62:	f88d 1015 	strb.w	r1, [sp, #21]
 8009b66:	0a19      	lsrs	r1, r3, #8
 8009b68:	f88d 3016 	strb.w	r3, [sp, #22]
 8009b6c:	f88d 1017 	strb.w	r1, [sp, #23]
 8009b70:	0c19      	lsrs	r1, r3, #16
 8009b72:	0e1b      	lsrs	r3, r3, #24
 8009b74:	f88d 3019 	strb.w	r3, [sp, #25]
 8009b78:	e9cd 4400 	strd	r4, r4, [sp]
 8009b7c:	0a13      	lsrs	r3, r2, #8
 8009b7e:	e9cd 4402 	strd	r4, r4, [sp, #8]
 8009b82:	f88d 201a 	strb.w	r2, [sp, #26]
 8009b86:	f88d 301b 	strb.w	r3, [sp, #27]
 8009b8a:	0c13      	lsrs	r3, r2, #16
 8009b8c:	0e12      	lsrs	r2, r2, #24
 8009b8e:	9407      	str	r4, [sp, #28]
 8009b90:	f88d 1018 	strb.w	r1, [sp, #24]
 8009b94:	f88d 301c 	strb.w	r3, [sp, #28]
 8009b98:	f88d 201d 	strb.w	r2, [sp, #29]
 8009b9c:	b2e3      	uxtb	r3, r4
 8009b9e:	ea4f 1803 	mov.w	r8, r3, lsl #4
 8009ba2:	2d00      	cmp	r5, #0
 8009ba4:	fa5f f888 	uxtb.w	r8, r8
 8009ba8:	dc03      	bgt.n	8009bb2 <PayloadEncrypt+0x72>
 8009baa:	2000      	movs	r0, #0
 8009bac:	b008      	add	sp, #32
 8009bae:	e8bd 81f0 	ldmia.w	sp!, {r4, r5, r6, r7, r8, pc}
 8009bb2:	3301      	adds	r3, #1
 8009bb4:	2110      	movs	r1, #16
 8009bb6:	f88d 301f 	strb.w	r3, [sp, #31]
 8009bba:	463a      	mov	r2, r7
 8009bbc:	466b      	mov	r3, sp
 8009bbe:	eb0d 0001 	add.w	r0, sp, r1
 8009bc2:	f7fc f9dc 	bl	8005f7e <SecureElementAesEncrypt>
 8009bc6:	4603      	mov	r3, r0
 8009bc8:	b9c8      	cbnz	r0, 8009bfe <PayloadEncrypt+0xbe>
 8009bca:	2d10      	cmp	r5, #16
 8009bcc:	46ac      	mov	ip, r5
 8009bce:	bfa8      	it	ge
 8009bd0:	f04f 0c10 	movge.w	ip, #16
 8009bd4:	b2da      	uxtb	r2, r3
 8009bd6:	4562      	cmp	r2, ip
 8009bd8:	f103 0301 	add.w	r3, r3, #1
 8009bdc:	db03      	blt.n	8009be6 <PayloadEncrypt+0xa6>
 8009bde:	3d10      	subs	r5, #16
 8009be0:	b22d      	sxth	r5, r5
 8009be2:	3401      	adds	r4, #1
 8009be4:	e7da      	b.n	8009b9c <PayloadEncrypt+0x5c>
 8009be6:	eb08 0002 	add.w	r0, r8, r2
 8009bea:	3220      	adds	r2, #32
 8009bec:	446a      	add	r2, sp
 8009bee:	5c31      	ldrb	r1, [r6, r0]
 8009bf0:	f812 2c20 	ldrb.w	r2, [r2, #-32]
 8009bf4:	404a      	eors	r2, r1
 8009bf6:	5432      	strb	r2, [r6, r0]
 8009bf8:	e7ec      	b.n	8009bd4 <PayloadEncrypt+0x94>
 8009bfa:	200a      	movs	r0, #10
 8009bfc:	e7d6      	b.n	8009bac <PayloadEncrypt+0x6c>
 8009bfe:	200f      	movs	r0, #15
 8009c00:	e7d4      	b.n	8009bac <PayloadEncrypt+0x6c>

08009c02 <LoRaMacCryptoDeriveMcKEKey.part.0>:
 8009c02:	b51f      	push	{r0, r1, r2, r3, r4, lr}
 8009c04:	2300      	movs	r3, #0
 8009c06:	227f      	movs	r2, #127	; 0x7f
 8009c08:	2104      	movs	r1, #4
 8009c0a:	4668      	mov	r0, sp
 8009c0c:	e9cd 3300 	strd	r3, r3, [sp]
 8009c10:	e9cd 3302 	strd	r3, r3, [sp, #8]
 8009c14:	f7fc fa1f 	bl	8006056 <SecureElementDeriveAndStoreKey>
 8009c18:	2800      	cmp	r0, #0
 8009c1a:	bf18      	it	ne
 8009c1c:	200f      	movne	r0, #15
 8009c1e:	b005      	add	sp, #20
 8009c20:	f85d fb04 	ldr.w	pc, [sp], #4

08009c24 <GetLastFcntDown.constprop.0>:
 8009c24:	3801      	subs	r0, #1
 8009c26:	2803      	cmp	r0, #3
 8009c28:	d81c      	bhi.n	8009c64 <GetLastFcntDown.constprop.0+0x40>
 8009c2a:	e8df f000 	tbb	[pc, r0]
 8009c2e:	0a02      	.short	0x0a02
 8009c30:	1610      	.short	0x1610
 8009c32:	4b0d      	ldr	r3, [pc, #52]	; (8009c68 <GetLastFcntDown.constprop.0+0x44>)
 8009c34:	681b      	ldr	r3, [r3, #0]
 8009c36:	691a      	ldr	r2, [r3, #16]
 8009c38:	600a      	str	r2, [r1, #0]
 8009c3a:	691a      	ldr	r2, [r3, #16]
 8009c3c:	621a      	str	r2, [r3, #32]
 8009c3e:	2000      	movs	r0, #0
 8009c40:	4770      	bx	lr
 8009c42:	4b09      	ldr	r3, [pc, #36]	; (8009c68 <GetLastFcntDown.constprop.0+0x44>)
 8009c44:	681b      	ldr	r3, [r3, #0]
 8009c46:	695a      	ldr	r2, [r3, #20]
 8009c48:	600a      	str	r2, [r1, #0]
 8009c4a:	695a      	ldr	r2, [r3, #20]
 8009c4c:	e7f6      	b.n	8009c3c <GetLastFcntDown.constprop.0+0x18>
 8009c4e:	4b06      	ldr	r3, [pc, #24]	; (8009c68 <GetLastFcntDown.constprop.0+0x44>)
 8009c50:	681b      	ldr	r3, [r3, #0]
 8009c52:	699a      	ldr	r2, [r3, #24]
 8009c54:	600a      	str	r2, [r1, #0]
 8009c56:	699a      	ldr	r2, [r3, #24]
 8009c58:	e7f0      	b.n	8009c3c <GetLastFcntDown.constprop.0+0x18>
 8009c5a:	4b03      	ldr	r3, [pc, #12]	; (8009c68 <GetLastFcntDown.constprop.0+0x44>)
 8009c5c:	681b      	ldr	r3, [r3, #0]
 8009c5e:	69db      	ldr	r3, [r3, #28]
 8009c60:	600b      	str	r3, [r1, #0]
 8009c62:	e7ec      	b.n	8009c3e <GetLastFcntDown.constprop.0+0x1a>
 8009c64:	2005      	movs	r0, #5
 8009c66:	4770      	bx	lr
 8009c68:	20001aac 	.word	0x20001aac

08009c6c <VerifyCmacB0.constprop.0.isra.0>:
 8009c6c:	e92d 43f0 	stmdb	sp!, {r4, r5, r6, r7, r8, r9, lr}
 8009c70:	b0c5      	sub	sp, #276	; 0x114
 8009c72:	460c      	mov	r4, r1
 8009c74:	9e4c      	ldr	r6, [sp, #304]	; 0x130
 8009c76:	4690      	mov	r8, r2
 8009c78:	461d      	mov	r5, r3
 8009c7a:	4681      	mov	r9, r0
 8009c7c:	2800      	cmp	r0, #0
 8009c7e:	d045      	beq.n	8009d0c <VerifyCmacB0.constprop.0.isra.0+0xa0>
 8009c80:	f5b1 7f80 	cmp.w	r1, #256	; 0x100
 8009c84:	d844      	bhi.n	8009d10 <VerifyCmacB0.constprop.0.isra.0+0xa4>
 8009c86:	f44f 7288 	mov.w	r2, #272	; 0x110
 8009c8a:	2100      	movs	r1, #0
 8009c8c:	4668      	mov	r0, sp
 8009c8e:	f001 fd33 	bl	800b6f8 <memset1>
 8009c92:	2349      	movs	r3, #73	; 0x49
 8009c94:	f88d 3000 	strb.w	r3, [sp]
 8009c98:	2301      	movs	r3, #1
 8009c9a:	f88d 3005 	strb.w	r3, [sp, #5]
 8009c9e:	0a2b      	lsrs	r3, r5, #8
 8009ca0:	f88d 3007 	strb.w	r3, [sp, #7]
 8009ca4:	0c2b      	lsrs	r3, r5, #16
 8009ca6:	f88d 5006 	strb.w	r5, [sp, #6]
 8009caa:	f88d 3008 	strb.w	r3, [sp, #8]
 8009cae:	0e2d      	lsrs	r5, r5, #24
 8009cb0:	0a33      	lsrs	r3, r6, #8
 8009cb2:	2700      	movs	r7, #0
 8009cb4:	f88d 5009 	strb.w	r5, [sp, #9]
 8009cb8:	f88d 300b 	strb.w	r3, [sp, #11]
 8009cbc:	4622      	mov	r2, r4
 8009cbe:	0c33      	lsrs	r3, r6, #16
 8009cc0:	4649      	mov	r1, r9
 8009cc2:	a804      	add	r0, sp, #16
 8009cc4:	0e35      	lsrs	r5, r6, #24
 8009cc6:	f88d 300c 	strb.w	r3, [sp, #12]
 8009cca:	f88d 7001 	strb.w	r7, [sp, #1]
 8009cce:	f88d 7002 	strb.w	r7, [sp, #2]
 8009cd2:	f88d 7003 	strb.w	r7, [sp, #3]
 8009cd6:	f88d 7004 	strb.w	r7, [sp, #4]
 8009cda:	f88d 600a 	strb.w	r6, [sp, #10]
 8009cde:	f88d 500d 	strb.w	r5, [sp, #13]
 8009ce2:	f88d 700e 	strb.w	r7, [sp, #14]
 8009ce6:	f88d 400f 	strb.w	r4, [sp, #15]
 8009cea:	f001 fcf1 	bl	800b6d0 <memcpy1>
 8009cee:	f104 0110 	add.w	r1, r4, #16
 8009cf2:	9a4d      	ldr	r2, [sp, #308]	; 0x134
 8009cf4:	4643      	mov	r3, r8
 8009cf6:	b289      	uxth	r1, r1
 8009cf8:	4668      	mov	r0, sp
 8009cfa:	f7fc f92a 	bl	8005f52 <SecureElementVerifyAesCmac>
 8009cfe:	b110      	cbz	r0, 8009d06 <VerifyCmacB0.constprop.0.isra.0+0x9a>
 8009d00:	2801      	cmp	r0, #1
 8009d02:	bf18      	it	ne
 8009d04:	200f      	movne	r0, #15
 8009d06:	b045      	add	sp, #276	; 0x114
 8009d08:	e8bd 83f0 	ldmia.w	sp!, {r4, r5, r6, r7, r8, r9, pc}
 8009d0c:	200a      	movs	r0, #10
 8009d0e:	e7fa      	b.n	8009d06 <VerifyCmacB0.constprop.0.isra.0+0x9a>
 8009d10:	200e      	movs	r0, #14
 8009d12:	e7f8      	b.n	8009d06 <VerifyCmacB0.constprop.0.isra.0+0x9a>

08009d14 <LoRaMacCryptoInit>:
 8009d14:	b510      	push	{r4, lr}
 8009d16:	b190      	cbz	r0, 8009d3e <LoRaMacCryptoInit+0x2a>
 8009d18:	4c0a      	ldr	r4, [pc, #40]	; (8009d44 <LoRaMacCryptoInit+0x30>)
 8009d1a:	2228      	movs	r2, #40	; 0x28
 8009d1c:	2100      	movs	r1, #0
 8009d1e:	6020      	str	r0, [r4, #0]
 8009d20:	f001 fcea 	bl	800b6f8 <memset1>
 8009d24:	6823      	ldr	r3, [r4, #0]
 8009d26:	4a08      	ldr	r2, [pc, #32]	; (8009d48 <LoRaMacCryptoInit+0x34>)
 8009d28:	601a      	str	r2, [r3, #0]
 8009d2a:	2000      	movs	r0, #0
 8009d2c:	f04f 32ff 	mov.w	r2, #4294967295
 8009d30:	e9c3 0203 	strd	r0, r2, [r3, #12]
 8009d34:	e9c3 2205 	strd	r2, r2, [r3, #20]
 8009d38:	e9c3 2207 	strd	r2, r2, [r3, #28]
 8009d3c:	bd10      	pop	{r4, pc}
 8009d3e:	2009      	movs	r0, #9
 8009d40:	e7fc      	b.n	8009d3c <LoRaMacCryptoInit+0x28>
 8009d42:	bf00      	nop
 8009d44:	20001aac 	.word	0x20001aac
 8009d48:	01010100 	.word	0x01010100

08009d4c <LoRaMacCryptoSetLrWanVersion>:
 8009d4c:	4b02      	ldr	r3, [pc, #8]	; (8009d58 <LoRaMacCryptoSetLrWanVersion+0xc>)
 8009d4e:	681b      	ldr	r3, [r3, #0]
 8009d50:	6018      	str	r0, [r3, #0]
 8009d52:	2000      	movs	r0, #0
 8009d54:	4770      	bx	lr
 8009d56:	bf00      	nop
 8009d58:	20001aac 	.word	0x20001aac

08009d5c <LoRaMacCryptoGetFCntUp>:
 8009d5c:	b130      	cbz	r0, 8009d6c <LoRaMacCryptoGetFCntUp+0x10>
 8009d5e:	4b04      	ldr	r3, [pc, #16]	; (8009d70 <LoRaMacCryptoGetFCntUp+0x14>)
 8009d60:	681b      	ldr	r3, [r3, #0]
 8009d62:	68db      	ldr	r3, [r3, #12]
 8009d64:	3301      	adds	r3, #1
 8009d66:	6003      	str	r3, [r0, #0]
 8009d68:	2000      	movs	r0, #0
 8009d6a:	4770      	bx	lr
 8009d6c:	200a      	movs	r0, #10
 8009d6e:	4770      	bx	lr
 8009d70:	20001aac 	.word	0x20001aac

08009d74 <LoRaMacCryptoGetFCntDown>:
 8009d74:	b5f7      	push	{r0, r1, r2, r4, r5, r6, r7, lr}
 8009d76:	4617      	mov	r7, r2
 8009d78:	2200      	movs	r2, #0
 8009d7a:	460e      	mov	r6, r1
 8009d7c:	9201      	str	r2, [sp, #4]
 8009d7e:	461c      	mov	r4, r3
 8009d80:	b343      	cbz	r3, 8009dd4 <LoRaMacCryptoGetFCntDown+0x60>
 8009d82:	a901      	add	r1, sp, #4
 8009d84:	f7ff ff4e 	bl	8009c24 <GetLastFcntDown.constprop.0>
 8009d88:	b9d8      	cbnz	r0, 8009dc2 <LoRaMacCryptoGetFCntDown+0x4e>
 8009d8a:	9b01      	ldr	r3, [sp, #4]
 8009d8c:	1c5a      	adds	r2, r3, #1
 8009d8e:	d10e      	bne.n	8009dae <LoRaMacCryptoGetFCntDown+0x3a>
 8009d90:	6027      	str	r7, [r4, #0]
 8009d92:	4a12      	ldr	r2, [pc, #72]	; (8009ddc <LoRaMacCryptoGetFCntDown+0x68>)
 8009d94:	6812      	ldr	r2, [r2, #0]
 8009d96:	7891      	ldrb	r1, [r2, #2]
 8009d98:	b999      	cbnz	r1, 8009dc2 <LoRaMacCryptoGetFCntDown+0x4e>
 8009d9a:	6822      	ldr	r2, [r4, #0]
 8009d9c:	1ad3      	subs	r3, r2, r3
 8009d9e:	eb62 0202 	sbc.w	r2, r2, r2
 8009da2:	42b3      	cmp	r3, r6
 8009da4:	f172 0300 	sbcs.w	r3, r2, #0
 8009da8:	db16      	blt.n	8009dd8 <LoRaMacCryptoGetFCntDown+0x64>
 8009daa:	2008      	movs	r0, #8
 8009dac:	e009      	b.n	8009dc2 <LoRaMacCryptoGetFCntDown+0x4e>
 8009dae:	b299      	uxth	r1, r3
 8009db0:	1a79      	subs	r1, r7, r1
 8009db2:	2900      	cmp	r1, #0
 8009db4:	dd02      	ble.n	8009dbc <LoRaMacCryptoGetFCntDown+0x48>
 8009db6:	4419      	add	r1, r3
 8009db8:	6021      	str	r1, [r4, #0]
 8009dba:	e7ea      	b.n	8009d92 <LoRaMacCryptoGetFCntDown+0x1e>
 8009dbc:	d103      	bne.n	8009dc6 <LoRaMacCryptoGetFCntDown+0x52>
 8009dbe:	6023      	str	r3, [r4, #0]
 8009dc0:	2007      	movs	r0, #7
 8009dc2:	b003      	add	sp, #12
 8009dc4:	bdf0      	pop	{r4, r5, r6, r7, pc}
 8009dc6:	0c1d      	lsrs	r5, r3, #16
 8009dc8:	042d      	lsls	r5, r5, #16
 8009dca:	f505 3580 	add.w	r5, r5, #65536	; 0x10000
 8009dce:	443d      	add	r5, r7
 8009dd0:	6025      	str	r5, [r4, #0]
 8009dd2:	e7de      	b.n	8009d92 <LoRaMacCryptoGetFCntDown+0x1e>
 8009dd4:	200a      	movs	r0, #10
 8009dd6:	e7f4      	b.n	8009dc2 <LoRaMacCryptoGetFCntDown+0x4e>
 8009dd8:	4608      	mov	r0, r1
 8009dda:	e7f2      	b.n	8009dc2 <LoRaMacCryptoGetFCntDown+0x4e>
 8009ddc:	20001aac 	.word	0x20001aac

08009de0 <LoRaMacCryptoSetMulticastReference>:
 8009de0:	b128      	cbz	r0, 8009dee <LoRaMacCryptoSetMulticastReference+0xe>
 8009de2:	4b04      	ldr	r3, [pc, #16]	; (8009df4 <LoRaMacCryptoSetMulticastReference+0x14>)
 8009de4:	681b      	ldr	r3, [r3, #0]
 8009de6:	331c      	adds	r3, #28
 8009de8:	6203      	str	r3, [r0, #32]
 8009dea:	2000      	movs	r0, #0
 8009dec:	4770      	bx	lr
 8009dee:	200a      	movs	r0, #10
 8009df0:	4770      	bx	lr
 8009df2:	bf00      	nop
 8009df4:	20001aac 	.word	0x20001aac

08009df8 <LoRaMacCryptoPrepareJoinRequest>:
 8009df8:	b51f      	push	{r0, r1, r2, r3, r4, lr}
 8009dfa:	4604      	mov	r4, r0
 8009dfc:	b1f0      	cbz	r0, 8009e3c <LoRaMacCryptoPrepareJoinRequest+0x44>
 8009dfe:	2300      	movs	r3, #0
 8009e00:	a803      	add	r0, sp, #12
 8009e02:	9303      	str	r3, [sp, #12]
 8009e04:	f7fc f986 	bl	8006114 <SecureElementRandomNumber>
 8009e08:	4a0e      	ldr	r2, [pc, #56]	; (8009e44 <LoRaMacCryptoPrepareJoinRequest+0x4c>)
 8009e0a:	f8bd 300c 	ldrh.w	r3, [sp, #12]
 8009e0e:	6812      	ldr	r2, [r2, #0]
 8009e10:	4620      	mov	r0, r4
 8009e12:	8093      	strh	r3, [r2, #4]
 8009e14:	82e3      	strh	r3, [r4, #22]
 8009e16:	f000 fa46 	bl	800a2a6 <LoRaMacSerializerJoinRequest>
 8009e1a:	b960      	cbnz	r0, 8009e36 <LoRaMacCryptoPrepareJoinRequest+0x3e>
 8009e1c:	f104 0318 	add.w	r3, r4, #24
 8009e20:	9300      	str	r3, [sp, #0]
 8009e22:	6821      	ldr	r1, [r4, #0]
 8009e24:	2301      	movs	r3, #1
 8009e26:	2213      	movs	r2, #19
 8009e28:	f7fc f88a 	bl	8005f40 <SecureElementComputeAesCmac>
 8009e2c:	b940      	cbnz	r0, 8009e40 <LoRaMacCryptoPrepareJoinRequest+0x48>
 8009e2e:	4620      	mov	r0, r4
 8009e30:	f000 fa39 	bl	800a2a6 <LoRaMacSerializerJoinRequest>
 8009e34:	b100      	cbz	r0, 8009e38 <LoRaMacCryptoPrepareJoinRequest+0x40>
 8009e36:	2011      	movs	r0, #17
 8009e38:	b004      	add	sp, #16
 8009e3a:	bd10      	pop	{r4, pc}
 8009e3c:	200a      	movs	r0, #10
 8009e3e:	e7fb      	b.n	8009e38 <LoRaMacCryptoPrepareJoinRequest+0x40>
 8009e40:	200f      	movs	r0, #15
 8009e42:	e7f9      	b.n	8009e38 <LoRaMacCryptoPrepareJoinRequest+0x40>
 8009e44:	20001aac 	.word	0x20001aac

08009e48 <LoRaMacCryptoSecureMessage>:
 8009e48:	b5f0      	push	{r4, r5, r6, r7, lr}
 8009e4a:	4605      	mov	r5, r0
 8009e4c:	b087      	sub	sp, #28
 8009e4e:	461c      	mov	r4, r3
 8009e50:	b323      	cbz	r3, 8009e9c <LoRaMacCryptoSecureMessage+0x54>
 8009e52:	4e35      	ldr	r6, [pc, #212]	; (8009f28 <LoRaMacCryptoSecureMessage+0xe0>)
 8009e54:	6833      	ldr	r3, [r6, #0]
 8009e56:	68db      	ldr	r3, [r3, #12]
 8009e58:	4283      	cmp	r3, r0
 8009e5a:	d863      	bhi.n	8009f24 <LoRaMacCryptoSecureMessage+0xdc>
 8009e5c:	f894 2020 	ldrb.w	r2, [r4, #32]
 8009e60:	2a00      	cmp	r2, #0
 8009e62:	bf14      	ite	ne
 8009e64:	2203      	movne	r2, #3
 8009e66:	2202      	moveq	r2, #2
 8009e68:	4283      	cmp	r3, r0
 8009e6a:	d305      	bcc.n	8009e78 <LoRaMacCryptoSecureMessage+0x30>
 8009e6c:	4620      	mov	r0, r4
 8009e6e:	f000 fa4e 	bl	800a30e <LoRaMacSerializerData>
 8009e72:	b170      	cbz	r0, 8009e92 <LoRaMacCryptoSecureMessage+0x4a>
 8009e74:	2011      	movs	r0, #17
 8009e76:	e00a      	b.n	8009e8e <LoRaMacCryptoSecureMessage+0x46>
 8009e78:	2300      	movs	r3, #0
 8009e7a:	9001      	str	r0, [sp, #4]
 8009e7c:	9300      	str	r3, [sp, #0]
 8009e7e:	68a3      	ldr	r3, [r4, #8]
 8009e80:	f894 1028 	ldrb.w	r1, [r4, #40]	; 0x28
 8009e84:	6a60      	ldr	r0, [r4, #36]	; 0x24
 8009e86:	f7ff fe5b 	bl	8009b40 <PayloadEncrypt>
 8009e8a:	2800      	cmp	r0, #0
 8009e8c:	d0ee      	beq.n	8009e6c <LoRaMacCryptoSecureMessage+0x24>
 8009e8e:	b007      	add	sp, #28
 8009e90:	bdf0      	pop	{r4, r5, r6, r7, pc}
 8009e92:	7927      	ldrb	r7, [r4, #4]
 8009e94:	6821      	ldr	r1, [r4, #0]
 8009e96:	3f04      	subs	r7, #4
 8009e98:	b2ba      	uxth	r2, r7
 8009e9a:	b909      	cbnz	r1, 8009ea0 <LoRaMacCryptoSecureMessage+0x58>
 8009e9c:	200a      	movs	r0, #10
 8009e9e:	e7f6      	b.n	8009e8e <LoRaMacCryptoSecureMessage+0x46>
 8009ea0:	f5b2 7f80 	cmp.w	r2, #256	; 0x100
 8009ea4:	d83c      	bhi.n	8009f20 <LoRaMacCryptoSecureMessage+0xd8>
 8009ea6:	68a3      	ldr	r3, [r4, #8]
 8009ea8:	f88d 300e 	strb.w	r3, [sp, #14]
 8009eac:	f04f 0c49 	mov.w	ip, #73	; 0x49
 8009eb0:	f88d c008 	strb.w	ip, [sp, #8]
 8009eb4:	ea4f 2c13 	mov.w	ip, r3, lsr #8
 8009eb8:	f88d c00f 	strb.w	ip, [sp, #15]
 8009ebc:	ea4f 4c13 	mov.w	ip, r3, lsr #16
 8009ec0:	0e1b      	lsrs	r3, r3, #24
 8009ec2:	f88d 3011 	strb.w	r3, [sp, #17]
 8009ec6:	0a2b      	lsrs	r3, r5, #8
 8009ec8:	f88d 3013 	strb.w	r3, [sp, #19]
 8009ecc:	0c2b      	lsrs	r3, r5, #16
 8009ece:	f88d 3014 	strb.w	r3, [sp, #20]
 8009ed2:	0e2b      	lsrs	r3, r5, #24
 8009ed4:	f88d 3015 	strb.w	r3, [sp, #21]
 8009ed8:	f104 032c 	add.w	r3, r4, #44	; 0x2c
 8009edc:	f88d 0009 	strb.w	r0, [sp, #9]
 8009ee0:	f88d 000a 	strb.w	r0, [sp, #10]
 8009ee4:	f88d 000b 	strb.w	r0, [sp, #11]
 8009ee8:	f88d 000c 	strb.w	r0, [sp, #12]
 8009eec:	f88d 000d 	strb.w	r0, [sp, #13]
 8009ef0:	f88d 0016 	strb.w	r0, [sp, #22]
 8009ef4:	9300      	str	r3, [sp, #0]
 8009ef6:	a802      	add	r0, sp, #8
 8009ef8:	2302      	movs	r3, #2
 8009efa:	f88d c010 	strb.w	ip, [sp, #16]
 8009efe:	f88d 5012 	strb.w	r5, [sp, #18]
 8009f02:	f88d 7017 	strb.w	r7, [sp, #23]
 8009f06:	f7fc f81b 	bl	8005f40 <SecureElementComputeAesCmac>
 8009f0a:	b108      	cbz	r0, 8009f10 <LoRaMacCryptoSecureMessage+0xc8>
 8009f0c:	200f      	movs	r0, #15
 8009f0e:	e7be      	b.n	8009e8e <LoRaMacCryptoSecureMessage+0x46>
 8009f10:	4620      	mov	r0, r4
 8009f12:	f000 f9fc 	bl	800a30e <LoRaMacSerializerData>
 8009f16:	2800      	cmp	r0, #0
 8009f18:	d1ac      	bne.n	8009e74 <LoRaMacCryptoSecureMessage+0x2c>
 8009f1a:	6833      	ldr	r3, [r6, #0]
 8009f1c:	60dd      	str	r5, [r3, #12]
 8009f1e:	e7b6      	b.n	8009e8e <LoRaMacCryptoSecureMessage+0x46>
 8009f20:	200e      	movs	r0, #14
 8009f22:	e7b4      	b.n	8009e8e <LoRaMacCryptoSecureMessage+0x46>
 8009f24:	2006      	movs	r0, #6
 8009f26:	e7b2      	b.n	8009e8e <LoRaMacCryptoSecureMessage+0x46>
 8009f28:	20001aac 	.word	0x20001aac

08009f2c <LoRaMacCryptoUnsecureMessage>:
 8009f2c:	e92d 41ff 	stmdb	sp!, {r0, r1, r2, r3, r4, r5, r6, r7, r8, lr}
 8009f30:	9d0a      	ldr	r5, [sp, #40]	; 0x28
 8009f32:	4680      	mov	r8, r0
 8009f34:	460f      	mov	r7, r1
 8009f36:	4616      	mov	r6, r2
 8009f38:	461c      	mov	r4, r3
 8009f3a:	2d00      	cmp	r5, #0
 8009f3c:	d059      	beq.n	8009ff2 <LoRaMacCryptoUnsecureMessage+0xc6>
 8009f3e:	2300      	movs	r3, #0
 8009f40:	a903      	add	r1, sp, #12
 8009f42:	4610      	mov	r0, r2
 8009f44:	9303      	str	r3, [sp, #12]
 8009f46:	f7ff fe6d 	bl	8009c24 <GetLastFcntDown.constprop.0>
 8009f4a:	b118      	cbz	r0, 8009f54 <LoRaMacCryptoUnsecureMessage+0x28>
 8009f4c:	2006      	movs	r0, #6
 8009f4e:	b004      	add	sp, #16
 8009f50:	e8bd 81f0 	ldmia.w	sp!, {r4, r5, r6, r7, r8, pc}
 8009f54:	9b03      	ldr	r3, [sp, #12]
 8009f56:	429c      	cmp	r4, r3
 8009f58:	d801      	bhi.n	8009f5e <LoRaMacCryptoUnsecureMessage+0x32>
 8009f5a:	3301      	adds	r3, #1
 8009f5c:	d1f6      	bne.n	8009f4c <LoRaMacCryptoUnsecureMessage+0x20>
 8009f5e:	4628      	mov	r0, r5
 8009f60:	f000 f946 	bl	800a1f0 <LoRaMacParserData>
 8009f64:	2800      	cmp	r0, #0
 8009f66:	d146      	bne.n	8009ff6 <LoRaMacCryptoUnsecureMessage+0xca>
 8009f68:	4b26      	ldr	r3, [pc, #152]	; (800a004 <LoRaMacCryptoUnsecureMessage+0xd8>)
 8009f6a:	781a      	ldrb	r2, [r3, #0]
 8009f6c:	4542      	cmp	r2, r8
 8009f6e:	d003      	beq.n	8009f78 <LoRaMacCryptoUnsecureMessage+0x4c>
 8009f70:	791a      	ldrb	r2, [r3, #4]
 8009f72:	4542      	cmp	r2, r8
 8009f74:	d141      	bne.n	8009ffa <LoRaMacCryptoUnsecureMessage+0xce>
 8009f76:	2001      	movs	r0, #1
 8009f78:	68aa      	ldr	r2, [r5, #8]
 8009f7a:	42ba      	cmp	r2, r7
 8009f7c:	d13f      	bne.n	8009ffe <LoRaMacCryptoUnsecureMessage+0xd2>
 8009f7e:	eb03 0080 	add.w	r0, r3, r0, lsl #2
 8009f82:	6aeb      	ldr	r3, [r5, #44]	; 0x2c
 8009f84:	f890 8001 	ldrb.w	r8, [r0, #1]
 8009f88:	7929      	ldrb	r1, [r5, #4]
 8009f8a:	e9cd 4300 	strd	r4, r3, [sp]
 8009f8e:	3904      	subs	r1, #4
 8009f90:	7882      	ldrb	r2, [r0, #2]
 8009f92:	6828      	ldr	r0, [r5, #0]
 8009f94:	463b      	mov	r3, r7
 8009f96:	b289      	uxth	r1, r1
 8009f98:	f7ff fe68 	bl	8009c6c <VerifyCmacB0.constprop.0.isra.0>
 8009f9c:	2800      	cmp	r0, #0
 8009f9e:	d1d6      	bne.n	8009f4e <LoRaMacCryptoUnsecureMessage+0x22>
 8009fa0:	f895 3020 	ldrb.w	r3, [r5, #32]
 8009fa4:	9401      	str	r4, [sp, #4]
 8009fa6:	2b00      	cmp	r3, #0
 8009fa8:	f04f 0301 	mov.w	r3, #1
 8009fac:	9300      	str	r3, [sp, #0]
 8009fae:	bf14      	ite	ne
 8009fb0:	4642      	movne	r2, r8
 8009fb2:	2202      	moveq	r2, #2
 8009fb4:	f895 1028 	ldrb.w	r1, [r5, #40]	; 0x28
 8009fb8:	6a68      	ldr	r0, [r5, #36]	; 0x24
 8009fba:	463b      	mov	r3, r7
 8009fbc:	f7ff fdc0 	bl	8009b40 <PayloadEncrypt>
 8009fc0:	2800      	cmp	r0, #0
 8009fc2:	d1c4      	bne.n	8009f4e <LoRaMacCryptoUnsecureMessage+0x22>
 8009fc4:	3e01      	subs	r6, #1
 8009fc6:	2e03      	cmp	r6, #3
 8009fc8:	d8c1      	bhi.n	8009f4e <LoRaMacCryptoUnsecureMessage+0x22>
 8009fca:	e8df f006 	tbb	[pc, r6]
 8009fce:	0602      	.short	0x0602
 8009fd0:	0e0a      	.short	0x0e0a
 8009fd2:	4b0d      	ldr	r3, [pc, #52]	; (800a008 <LoRaMacCryptoUnsecureMessage+0xdc>)
 8009fd4:	681b      	ldr	r3, [r3, #0]
 8009fd6:	611c      	str	r4, [r3, #16]
 8009fd8:	e7b9      	b.n	8009f4e <LoRaMacCryptoUnsecureMessage+0x22>
 8009fda:	4b0b      	ldr	r3, [pc, #44]	; (800a008 <LoRaMacCryptoUnsecureMessage+0xdc>)
 8009fdc:	681b      	ldr	r3, [r3, #0]
 8009fde:	615c      	str	r4, [r3, #20]
 8009fe0:	e7b5      	b.n	8009f4e <LoRaMacCryptoUnsecureMessage+0x22>
 8009fe2:	4b09      	ldr	r3, [pc, #36]	; (800a008 <LoRaMacCryptoUnsecureMessage+0xdc>)
 8009fe4:	681b      	ldr	r3, [r3, #0]
 8009fe6:	619c      	str	r4, [r3, #24]
 8009fe8:	e7b1      	b.n	8009f4e <LoRaMacCryptoUnsecureMessage+0x22>
 8009fea:	4b07      	ldr	r3, [pc, #28]	; (800a008 <LoRaMacCryptoUnsecureMessage+0xdc>)
 8009fec:	681b      	ldr	r3, [r3, #0]
 8009fee:	61dc      	str	r4, [r3, #28]
 8009ff0:	e7ad      	b.n	8009f4e <LoRaMacCryptoUnsecureMessage+0x22>
 8009ff2:	200a      	movs	r0, #10
 8009ff4:	e7ab      	b.n	8009f4e <LoRaMacCryptoUnsecureMessage+0x22>
 8009ff6:	2010      	movs	r0, #16
 8009ff8:	e7a9      	b.n	8009f4e <LoRaMacCryptoUnsecureMessage+0x22>
 8009ffa:	200c      	movs	r0, #12
 8009ffc:	e7a7      	b.n	8009f4e <LoRaMacCryptoUnsecureMessage+0x22>
 8009ffe:	2002      	movs	r0, #2
 800a000:	e7a5      	b.n	8009f4e <LoRaMacCryptoUnsecureMessage+0x22>
 800a002:	bf00      	nop
 800a004:	2000010c 	.word	0x2000010c
 800a008:	20001aac 	.word	0x20001aac

0800a00c <LoRaMacCryptoDeriveMcRootKey>:
 800a00c:	b51f      	push	{r0, r1, r2, r3, r4, lr}
 800a00e:	b9b1      	cbnz	r1, 800a03e <LoRaMacCryptoDeriveMcRootKey+0x32>
 800a010:	2801      	cmp	r0, #1
 800a012:	e9cd 1100 	strd	r1, r1, [sp]
 800a016:	bf08      	it	eq
 800a018:	2320      	moveq	r3, #32
 800a01a:	e9cd 1102 	strd	r1, r1, [sp, #8]
 800a01e:	f04f 0204 	mov.w	r2, #4
 800a022:	f04f 0100 	mov.w	r1, #0
 800a026:	4668      	mov	r0, sp
 800a028:	bf08      	it	eq
 800a02a:	f88d 3000 	strbeq.w	r3, [sp]
 800a02e:	f7fc f812 	bl	8006056 <SecureElementDeriveAndStoreKey>
 800a032:	2800      	cmp	r0, #0
 800a034:	bf18      	it	ne
 800a036:	200f      	movne	r0, #15
 800a038:	b005      	add	sp, #20
 800a03a:	f85d fb04 	ldr.w	pc, [sp], #4
 800a03e:	200b      	movs	r0, #11
 800a040:	e7fa      	b.n	800a038 <LoRaMacCryptoDeriveMcRootKey+0x2c>
	...

0800a044 <LoRaMacCryptoSetKey>:
 800a044:	b538      	push	{r3, r4, r5, lr}
 800a046:	4605      	mov	r5, r0
 800a048:	f7fc f800 	bl	800604c <SecureElementSetKey>
 800a04c:	4604      	mov	r4, r0
 800a04e:	b950      	cbnz	r0, 800a066 <LoRaMacCryptoSetKey+0x22>
 800a050:	b955      	cbnz	r5, 800a068 <LoRaMacCryptoSetKey+0x24>
 800a052:	4b06      	ldr	r3, [pc, #24]	; (800a06c <LoRaMacCryptoSetKey+0x28>)
 800a054:	681b      	ldr	r3, [r3, #0]
 800a056:	4601      	mov	r1, r0
 800a058:	7898      	ldrb	r0, [r3, #2]
 800a05a:	f7ff ffd7 	bl	800a00c <LoRaMacCryptoDeriveMcRootKey>
 800a05e:	b910      	cbnz	r0, 800a066 <LoRaMacCryptoSetKey+0x22>
 800a060:	f7ff fdcf 	bl	8009c02 <LoRaMacCryptoDeriveMcKEKey.part.0>
 800a064:	b100      	cbz	r0, 800a068 <LoRaMacCryptoSetKey+0x24>
 800a066:	240f      	movs	r4, #15
 800a068:	4620      	mov	r0, r4
 800a06a:	bd38      	pop	{r3, r4, r5, pc}
 800a06c:	20001aac 	.word	0x20001aac

0800a070 <LoRaMacCryptoHandleJoinAccept>:
 800a070:	e92d 43f0 	stmdb	sp!, {r4, r5, r6, r7, r8, r9, lr}
 800a074:	4680      	mov	r8, r0
 800a076:	b08f      	sub	sp, #60	; 0x3c
 800a078:	460d      	mov	r5, r1
 800a07a:	4614      	mov	r4, r2
 800a07c:	2a00      	cmp	r2, #0
 800a07e:	d05f      	beq.n	800a140 <LoRaMacCryptoHandleJoinAccept+0xd0>
 800a080:	2900      	cmp	r1, #0
 800a082:	d05d      	beq.n	800a140 <LoRaMacCryptoHandleJoinAccept+0xd0>
 800a084:	2600      	movs	r6, #0
 800a086:	4631      	mov	r1, r6
 800a088:	221d      	movs	r2, #29
 800a08a:	a806      	add	r0, sp, #24
 800a08c:	9605      	str	r6, [sp, #20]
 800a08e:	f003 ff15 	bl	800debc <memset>
 800a092:	f88d 6013 	strb.w	r6, [sp, #19]
 800a096:	4e2e      	ldr	r6, [pc, #184]	; (800a150 <LoRaMacCryptoHandleJoinAccept+0xe0>)
 800a098:	6833      	ldr	r3, [r6, #0]
 800a09a:	f10d 0914 	add.w	r9, sp, #20
 800a09e:	889f      	ldrh	r7, [r3, #4]
 800a0a0:	f8cd 9004 	str.w	r9, [sp, #4]
 800a0a4:	f10d 0313 	add.w	r3, sp, #19
 800a0a8:	9302      	str	r3, [sp, #8]
 800a0aa:	7923      	ldrb	r3, [r4, #4]
 800a0ac:	9300      	str	r3, [sp, #0]
 800a0ae:	6823      	ldr	r3, [r4, #0]
 800a0b0:	463a      	mov	r2, r7
 800a0b2:	4629      	mov	r1, r5
 800a0b4:	4640      	mov	r0, r8
 800a0b6:	f7fb ffea 	bl	800608e <SecureElementProcessJoinAccept>
 800a0ba:	2800      	cmp	r0, #0
 800a0bc:	d142      	bne.n	800a144 <LoRaMacCryptoHandleJoinAccept+0xd4>
 800a0be:	4649      	mov	r1, r9
 800a0c0:	7922      	ldrb	r2, [r4, #4]
 800a0c2:	6820      	ldr	r0, [r4, #0]
 800a0c4:	f001 fb04 	bl	800b6d0 <memcpy1>
 800a0c8:	4620      	mov	r0, r4
 800a0ca:	f000 f843 	bl	800a154 <LoRaMacParserJoinAccept>
 800a0ce:	4601      	mov	r1, r0
 800a0d0:	2800      	cmp	r0, #0
 800a0d2:	d139      	bne.n	800a148 <LoRaMacCryptoHandleJoinAccept+0xd8>
 800a0d4:	7a25      	ldrb	r5, [r4, #8]
 800a0d6:	79e2      	ldrb	r2, [r4, #7]
 800a0d8:	79a3      	ldrb	r3, [r4, #6]
 800a0da:	042d      	lsls	r5, r5, #16
 800a0dc:	ea45 2502 	orr.w	r5, r5, r2, lsl #8
 800a0e0:	431d      	orrs	r5, r3
 800a0e2:	6833      	ldr	r3, [r6, #0]
 800a0e4:	689a      	ldr	r2, [r3, #8]
 800a0e6:	42aa      	cmp	r2, r5
 800a0e8:	d030      	beq.n	800a14c <LoRaMacCryptoHandleJoinAccept+0xdc>
 800a0ea:	f89d 0013 	ldrb.w	r0, [sp, #19]
 800a0ee:	609d      	str	r5, [r3, #8]
 800a0f0:	f7ff ff8c 	bl	800a00c <LoRaMacCryptoDeriveMcRootKey>
 800a0f4:	bb08      	cbnz	r0, 800a13a <LoRaMacCryptoHandleJoinAccept+0xca>
 800a0f6:	f7ff fd84 	bl	8009c02 <LoRaMacCryptoDeriveMcKEKey.part.0>
 800a0fa:	b9f0      	cbnz	r0, 800a13a <LoRaMacCryptoHandleJoinAccept+0xca>
 800a0fc:	7a62      	ldrb	r2, [r4, #9]
 800a0fe:	7aa3      	ldrb	r3, [r4, #10]
 800a100:	7ae4      	ldrb	r4, [r4, #11]
 800a102:	0424      	lsls	r4, r4, #16
 800a104:	ea44 2403 	orr.w	r4, r4, r3, lsl #8
 800a108:	4314      	orrs	r4, r2
 800a10a:	463b      	mov	r3, r7
 800a10c:	4622      	mov	r2, r4
 800a10e:	4629      	mov	r1, r5
 800a110:	2003      	movs	r0, #3
 800a112:	f7ff fcef 	bl	8009af4 <DeriveSessionKey10x>
 800a116:	b980      	cbnz	r0, 800a13a <LoRaMacCryptoHandleJoinAccept+0xca>
 800a118:	463b      	mov	r3, r7
 800a11a:	4622      	mov	r2, r4
 800a11c:	4629      	mov	r1, r5
 800a11e:	2002      	movs	r0, #2
 800a120:	f7ff fce8 	bl	8009af4 <DeriveSessionKey10x>
 800a124:	b948      	cbnz	r0, 800a13a <LoRaMacCryptoHandleJoinAccept+0xca>
 800a126:	6833      	ldr	r3, [r6, #0]
 800a128:	f89d 2013 	ldrb.w	r2, [sp, #19]
 800a12c:	709a      	strb	r2, [r3, #2]
 800a12e:	f04f 32ff 	mov.w	r2, #4294967295
 800a132:	e9c3 2204 	strd	r2, r2, [r3, #16]
 800a136:	60d8      	str	r0, [r3, #12]
 800a138:	619a      	str	r2, [r3, #24]
 800a13a:	b00f      	add	sp, #60	; 0x3c
 800a13c:	e8bd 83f0 	ldmia.w	sp!, {r4, r5, r6, r7, r8, r9, pc}
 800a140:	200a      	movs	r0, #10
 800a142:	e7fa      	b.n	800a13a <LoRaMacCryptoHandleJoinAccept+0xca>
 800a144:	200f      	movs	r0, #15
 800a146:	e7f8      	b.n	800a13a <LoRaMacCryptoHandleJoinAccept+0xca>
 800a148:	2010      	movs	r0, #16
 800a14a:	e7f6      	b.n	800a13a <LoRaMacCryptoHandleJoinAccept+0xca>
 800a14c:	2003      	movs	r0, #3
 800a14e:	e7f4      	b.n	800a13a <LoRaMacCryptoHandleJoinAccept+0xca>
 800a150:	20001aac 	.word	0x20001aac

0800a154 <LoRaMacParserJoinAccept>:
 800a154:	b510      	push	{r4, lr}
 800a156:	4604      	mov	r4, r0
 800a158:	2800      	cmp	r0, #0
 800a15a:	d045      	beq.n	800a1e8 <LoRaMacParserJoinAccept+0x94>
 800a15c:	6801      	ldr	r1, [r0, #0]
 800a15e:	2900      	cmp	r1, #0
 800a160:	d042      	beq.n	800a1e8 <LoRaMacParserJoinAccept+0x94>
 800a162:	f811 3b01 	ldrb.w	r3, [r1], #1
 800a166:	7143      	strb	r3, [r0, #5]
 800a168:	2203      	movs	r2, #3
 800a16a:	3006      	adds	r0, #6
 800a16c:	f001 fab0 	bl	800b6d0 <memcpy1>
 800a170:	4620      	mov	r0, r4
 800a172:	2203      	movs	r2, #3
 800a174:	f850 1b09 	ldr.w	r1, [r0], #9
 800a178:	3104      	adds	r1, #4
 800a17a:	f001 faa9 	bl	800b6d0 <memcpy1>
 800a17e:	6821      	ldr	r1, [r4, #0]
 800a180:	79cb      	ldrb	r3, [r1, #7]
 800a182:	60e3      	str	r3, [r4, #12]
 800a184:	7a0a      	ldrb	r2, [r1, #8]
 800a186:	ea43 2302 	orr.w	r3, r3, r2, lsl #8
 800a18a:	60e3      	str	r3, [r4, #12]
 800a18c:	7a4a      	ldrb	r2, [r1, #9]
 800a18e:	ea43 4302 	orr.w	r3, r3, r2, lsl #16
 800a192:	60e3      	str	r3, [r4, #12]
 800a194:	7a8a      	ldrb	r2, [r1, #10]
 800a196:	ea43 6302 	orr.w	r3, r3, r2, lsl #24
 800a19a:	60e3      	str	r3, [r4, #12]
 800a19c:	7acb      	ldrb	r3, [r1, #11]
 800a19e:	7423      	strb	r3, [r4, #16]
 800a1a0:	7b0b      	ldrb	r3, [r1, #12]
 800a1a2:	7463      	strb	r3, [r4, #17]
 800a1a4:	7923      	ldrb	r3, [r4, #4]
 800a1a6:	2b21      	cmp	r3, #33	; 0x21
 800a1a8:	d11a      	bne.n	800a1e0 <LoRaMacParserJoinAccept+0x8c>
 800a1aa:	2210      	movs	r2, #16
 800a1ac:	310d      	adds	r1, #13
 800a1ae:	f104 0012 	add.w	r0, r4, #18
 800a1b2:	f001 fa8d 	bl	800b6d0 <memcpy1>
 800a1b6:	221d      	movs	r2, #29
 800a1b8:	6821      	ldr	r1, [r4, #0]
 800a1ba:	1c50      	adds	r0, r2, #1
 800a1bc:	5c8b      	ldrb	r3, [r1, r2]
 800a1be:	6263      	str	r3, [r4, #36]	; 0x24
 800a1c0:	5c08      	ldrb	r0, [r1, r0]
 800a1c2:	ea43 2300 	orr.w	r3, r3, r0, lsl #8
 800a1c6:	1c90      	adds	r0, r2, #2
 800a1c8:	6263      	str	r3, [r4, #36]	; 0x24
 800a1ca:	5c08      	ldrb	r0, [r1, r0]
 800a1cc:	3203      	adds	r2, #3
 800a1ce:	ea43 4300 	orr.w	r3, r3, r0, lsl #16
 800a1d2:	6263      	str	r3, [r4, #36]	; 0x24
 800a1d4:	5c8a      	ldrb	r2, [r1, r2]
 800a1d6:	ea43 6302 	orr.w	r3, r3, r2, lsl #24
 800a1da:	6263      	str	r3, [r4, #36]	; 0x24
 800a1dc:	2000      	movs	r0, #0
 800a1de:	bd10      	pop	{r4, pc}
 800a1e0:	2b11      	cmp	r3, #17
 800a1e2:	dc03      	bgt.n	800a1ec <LoRaMacParserJoinAccept+0x98>
 800a1e4:	220d      	movs	r2, #13
 800a1e6:	e7e7      	b.n	800a1b8 <LoRaMacParserJoinAccept+0x64>
 800a1e8:	2002      	movs	r0, #2
 800a1ea:	e7f8      	b.n	800a1de <LoRaMacParserJoinAccept+0x8a>
 800a1ec:	2001      	movs	r0, #1
 800a1ee:	e7f6      	b.n	800a1de <LoRaMacParserJoinAccept+0x8a>

0800a1f0 <LoRaMacParserData>:
 800a1f0:	b510      	push	{r4, lr}
 800a1f2:	4604      	mov	r4, r0
 800a1f4:	2800      	cmp	r0, #0
 800a1f6:	d054      	beq.n	800a2a2 <LoRaMacParserData+0xb2>
 800a1f8:	6801      	ldr	r1, [r0, #0]
 800a1fa:	2900      	cmp	r1, #0
 800a1fc:	d051      	beq.n	800a2a2 <LoRaMacParserData+0xb2>
 800a1fe:	780b      	ldrb	r3, [r1, #0]
 800a200:	7143      	strb	r3, [r0, #5]
 800a202:	784b      	ldrb	r3, [r1, #1]
 800a204:	6083      	str	r3, [r0, #8]
 800a206:	788a      	ldrb	r2, [r1, #2]
 800a208:	ea43 2302 	orr.w	r3, r3, r2, lsl #8
 800a20c:	6083      	str	r3, [r0, #8]
 800a20e:	78ca      	ldrb	r2, [r1, #3]
 800a210:	ea43 4302 	orr.w	r3, r3, r2, lsl #16
 800a214:	6083      	str	r3, [r0, #8]
 800a216:	790a      	ldrb	r2, [r1, #4]
 800a218:	ea43 6302 	orr.w	r3, r3, r2, lsl #24
 800a21c:	6083      	str	r3, [r0, #8]
 800a21e:	794b      	ldrb	r3, [r1, #5]
 800a220:	7303      	strb	r3, [r0, #12]
 800a222:	798b      	ldrb	r3, [r1, #6]
 800a224:	81c3      	strh	r3, [r0, #14]
 800a226:	79ca      	ldrb	r2, [r1, #7]
 800a228:	ea43 2302 	orr.w	r3, r3, r2, lsl #8
 800a22c:	7b02      	ldrb	r2, [r0, #12]
 800a22e:	81c3      	strh	r3, [r0, #14]
 800a230:	f002 020f 	and.w	r2, r2, #15
 800a234:	3108      	adds	r1, #8
 800a236:	3010      	adds	r0, #16
 800a238:	f001 fa4a 	bl	800b6d0 <memcpy1>
 800a23c:	7b23      	ldrb	r3, [r4, #12]
 800a23e:	2200      	movs	r2, #0
 800a240:	f003 030f 	and.w	r3, r3, #15
 800a244:	f884 2020 	strb.w	r2, [r4, #32]
 800a248:	f884 2028 	strb.w	r2, [r4, #40]	; 0x28
 800a24c:	7922      	ldrb	r2, [r4, #4]
 800a24e:	f103 0008 	add.w	r0, r3, #8
 800a252:	1a11      	subs	r1, r2, r0
 800a254:	2904      	cmp	r1, #4
 800a256:	dd0d      	ble.n	800a274 <LoRaMacParserData+0x84>
 800a258:	6821      	ldr	r1, [r4, #0]
 800a25a:	3309      	adds	r3, #9
 800a25c:	3a04      	subs	r2, #4
 800a25e:	1ad2      	subs	r2, r2, r3
 800a260:	5c08      	ldrb	r0, [r1, r0]
 800a262:	f884 0020 	strb.w	r0, [r4, #32]
 800a266:	b2d2      	uxtb	r2, r2
 800a268:	6a60      	ldr	r0, [r4, #36]	; 0x24
 800a26a:	f884 2028 	strb.w	r2, [r4, #40]	; 0x28
 800a26e:	4419      	add	r1, r3
 800a270:	f001 fa2e 	bl	800b6d0 <memcpy1>
 800a274:	7923      	ldrb	r3, [r4, #4]
 800a276:	6822      	ldr	r2, [r4, #0]
 800a278:	441a      	add	r2, r3
 800a27a:	2000      	movs	r0, #0
 800a27c:	f812 3c04 	ldrb.w	r3, [r2, #-4]
 800a280:	62e3      	str	r3, [r4, #44]	; 0x2c
 800a282:	f812 1c03 	ldrb.w	r1, [r2, #-3]
 800a286:	ea43 2301 	orr.w	r3, r3, r1, lsl #8
 800a28a:	62e3      	str	r3, [r4, #44]	; 0x2c
 800a28c:	f812 1c02 	ldrb.w	r1, [r2, #-2]
 800a290:	ea43 4301 	orr.w	r3, r3, r1, lsl #16
 800a294:	62e3      	str	r3, [r4, #44]	; 0x2c
 800a296:	f812 2c01 	ldrb.w	r2, [r2, #-1]
 800a29a:	ea43 6302 	orr.w	r3, r3, r2, lsl #24
 800a29e:	62e3      	str	r3, [r4, #44]	; 0x2c
 800a2a0:	bd10      	pop	{r4, pc}
 800a2a2:	2002      	movs	r0, #2
 800a2a4:	e7fc      	b.n	800a2a0 <LoRaMacParserData+0xb0>

0800a2a6 <LoRaMacSerializerJoinRequest>:
 800a2a6:	b510      	push	{r4, lr}
 800a2a8:	4604      	mov	r4, r0
 800a2aa:	b360      	cbz	r0, 800a306 <LoRaMacSerializerJoinRequest+0x60>
 800a2ac:	6803      	ldr	r3, [r0, #0]
 800a2ae:	b353      	cbz	r3, 800a306 <LoRaMacSerializerJoinRequest+0x60>
 800a2b0:	7902      	ldrb	r2, [r0, #4]
 800a2b2:	2a16      	cmp	r2, #22
 800a2b4:	d929      	bls.n	800a30a <LoRaMacSerializerJoinRequest+0x64>
 800a2b6:	7942      	ldrb	r2, [r0, #5]
 800a2b8:	701a      	strb	r2, [r3, #0]
 800a2ba:	4601      	mov	r1, r0
 800a2bc:	2208      	movs	r2, #8
 800a2be:	f851 0b06 	ldr.w	r0, [r1], #6
 800a2c2:	3001      	adds	r0, #1
 800a2c4:	f001 fa0e 	bl	800b6e4 <memcpyr>
 800a2c8:	4621      	mov	r1, r4
 800a2ca:	2208      	movs	r2, #8
 800a2cc:	f851 0b0e 	ldr.w	r0, [r1], #14
 800a2d0:	3009      	adds	r0, #9
 800a2d2:	f001 fa07 	bl	800b6e4 <memcpyr>
 800a2d6:	6823      	ldr	r3, [r4, #0]
 800a2d8:	8ae2      	ldrh	r2, [r4, #22]
 800a2da:	745a      	strb	r2, [r3, #17]
 800a2dc:	8ae3      	ldrh	r3, [r4, #22]
 800a2de:	6822      	ldr	r2, [r4, #0]
 800a2e0:	0a1b      	lsrs	r3, r3, #8
 800a2e2:	7493      	strb	r3, [r2, #18]
 800a2e4:	6823      	ldr	r3, [r4, #0]
 800a2e6:	69a2      	ldr	r2, [r4, #24]
 800a2e8:	74da      	strb	r2, [r3, #19]
 800a2ea:	69a3      	ldr	r3, [r4, #24]
 800a2ec:	6822      	ldr	r2, [r4, #0]
 800a2ee:	0a1b      	lsrs	r3, r3, #8
 800a2f0:	7513      	strb	r3, [r2, #20]
 800a2f2:	6823      	ldr	r3, [r4, #0]
 800a2f4:	8b62      	ldrh	r2, [r4, #26]
 800a2f6:	755a      	strb	r2, [r3, #21]
 800a2f8:	6823      	ldr	r3, [r4, #0]
 800a2fa:	7ee2      	ldrb	r2, [r4, #27]
 800a2fc:	759a      	strb	r2, [r3, #22]
 800a2fe:	2317      	movs	r3, #23
 800a300:	7123      	strb	r3, [r4, #4]
 800a302:	2000      	movs	r0, #0
 800a304:	bd10      	pop	{r4, pc}
 800a306:	2001      	movs	r0, #1
 800a308:	e7fc      	b.n	800a304 <LoRaMacSerializerJoinRequest+0x5e>
 800a30a:	2002      	movs	r0, #2
 800a30c:	e7fa      	b.n	800a304 <LoRaMacSerializerJoinRequest+0x5e>

0800a30e <LoRaMacSerializerData>:
 800a30e:	b538      	push	{r3, r4, r5, lr}
 800a310:	4604      	mov	r4, r0
 800a312:	2800      	cmp	r0, #0
 800a314:	d063      	beq.n	800a3de <LoRaMacSerializerData+0xd0>
 800a316:	6801      	ldr	r1, [r0, #0]
 800a318:	2900      	cmp	r1, #0
 800a31a:	d060      	beq.n	800a3de <LoRaMacSerializerData+0xd0>
 800a31c:	7b03      	ldrb	r3, [r0, #12]
 800a31e:	f890 2028 	ldrb.w	r2, [r0, #40]	; 0x28
 800a322:	f003 030f 	and.w	r3, r3, #15
 800a326:	2a00      	cmp	r2, #0
 800a328:	d157      	bne.n	800a3da <LoRaMacSerializerData+0xcc>
 800a32a:	3308      	adds	r3, #8
 800a32c:	7920      	ldrb	r0, [r4, #4]
 800a32e:	3204      	adds	r2, #4
 800a330:	4413      	add	r3, r2
 800a332:	4298      	cmp	r0, r3
 800a334:	d355      	bcc.n	800a3e2 <LoRaMacSerializerData+0xd4>
 800a336:	7963      	ldrb	r3, [r4, #5]
 800a338:	700b      	strb	r3, [r1, #0]
 800a33a:	6823      	ldr	r3, [r4, #0]
 800a33c:	68a2      	ldr	r2, [r4, #8]
 800a33e:	705a      	strb	r2, [r3, #1]
 800a340:	68a3      	ldr	r3, [r4, #8]
 800a342:	6822      	ldr	r2, [r4, #0]
 800a344:	0a1b      	lsrs	r3, r3, #8
 800a346:	7093      	strb	r3, [r2, #2]
 800a348:	6823      	ldr	r3, [r4, #0]
 800a34a:	8962      	ldrh	r2, [r4, #10]
 800a34c:	70da      	strb	r2, [r3, #3]
 800a34e:	6823      	ldr	r3, [r4, #0]
 800a350:	7ae2      	ldrb	r2, [r4, #11]
 800a352:	711a      	strb	r2, [r3, #4]
 800a354:	6823      	ldr	r3, [r4, #0]
 800a356:	7b22      	ldrb	r2, [r4, #12]
 800a358:	715a      	strb	r2, [r3, #5]
 800a35a:	6823      	ldr	r3, [r4, #0]
 800a35c:	89e2      	ldrh	r2, [r4, #14]
 800a35e:	719a      	strb	r2, [r3, #6]
 800a360:	89e3      	ldrh	r3, [r4, #14]
 800a362:	6822      	ldr	r2, [r4, #0]
 800a364:	0a1b      	lsrs	r3, r3, #8
 800a366:	4621      	mov	r1, r4
 800a368:	71d3      	strb	r3, [r2, #7]
 800a36a:	7b22      	ldrb	r2, [r4, #12]
 800a36c:	f851 0b10 	ldr.w	r0, [r1], #16
 800a370:	f002 020f 	and.w	r2, r2, #15
 800a374:	3008      	adds	r0, #8
 800a376:	f001 f9ab 	bl	800b6d0 <memcpy1>
 800a37a:	7b23      	ldrb	r3, [r4, #12]
 800a37c:	f894 2028 	ldrb.w	r2, [r4, #40]	; 0x28
 800a380:	f003 030f 	and.w	r3, r3, #15
 800a384:	f103 0508 	add.w	r5, r3, #8
 800a388:	b12a      	cbz	r2, 800a396 <LoRaMacSerializerData+0x88>
 800a38a:	6822      	ldr	r2, [r4, #0]
 800a38c:	f894 1020 	ldrb.w	r1, [r4, #32]
 800a390:	5551      	strb	r1, [r2, r5]
 800a392:	f103 0509 	add.w	r5, r3, #9
 800a396:	6820      	ldr	r0, [r4, #0]
 800a398:	f894 2028 	ldrb.w	r2, [r4, #40]	; 0x28
 800a39c:	6a61      	ldr	r1, [r4, #36]	; 0x24
 800a39e:	4428      	add	r0, r5
 800a3a0:	f001 f996 	bl	800b6d0 <memcpy1>
 800a3a4:	f894 3028 	ldrb.w	r3, [r4, #40]	; 0x28
 800a3a8:	6822      	ldr	r2, [r4, #0]
 800a3aa:	6ae1      	ldr	r1, [r4, #44]	; 0x2c
 800a3ac:	442b      	add	r3, r5
 800a3ae:	54d1      	strb	r1, [r2, r3]
 800a3b0:	1c5a      	adds	r2, r3, #1
 800a3b2:	6ae1      	ldr	r1, [r4, #44]	; 0x2c
 800a3b4:	6820      	ldr	r0, [r4, #0]
 800a3b6:	b292      	uxth	r2, r2
 800a3b8:	0a09      	lsrs	r1, r1, #8
 800a3ba:	5481      	strb	r1, [r0, r2]
 800a3bc:	1c9a      	adds	r2, r3, #2
 800a3be:	6821      	ldr	r1, [r4, #0]
 800a3c0:	8de0      	ldrh	r0, [r4, #46]	; 0x2e
 800a3c2:	b292      	uxth	r2, r2
 800a3c4:	5488      	strb	r0, [r1, r2]
 800a3c6:	1cda      	adds	r2, r3, #3
 800a3c8:	6821      	ldr	r1, [r4, #0]
 800a3ca:	f894 002f 	ldrb.w	r0, [r4, #47]	; 0x2f
 800a3ce:	b292      	uxth	r2, r2
 800a3d0:	3304      	adds	r3, #4
 800a3d2:	5488      	strb	r0, [r1, r2]
 800a3d4:	7123      	strb	r3, [r4, #4]
 800a3d6:	2000      	movs	r0, #0
 800a3d8:	bd38      	pop	{r3, r4, r5, pc}
 800a3da:	3309      	adds	r3, #9
 800a3dc:	e7a6      	b.n	800a32c <LoRaMacSerializerData+0x1e>
 800a3de:	2001      	movs	r0, #1
 800a3e0:	e7fa      	b.n	800a3d8 <LoRaMacSerializerData+0xca>
 800a3e2:	2002      	movs	r0, #2
 800a3e4:	e7f8      	b.n	800a3d8 <LoRaMacSerializerData+0xca>

0800a3e6 <RegionIsActive>:
 800a3e6:	1f43      	subs	r3, r0, #5
 800a3e8:	4258      	negs	r0, r3
 800a3ea:	4158      	adcs	r0, r3
 800a3ec:	4770      	bx	lr

0800a3ee <RegionGetPhyParam>:
 800a3ee:	2805      	cmp	r0, #5
 800a3f0:	b082      	sub	sp, #8
 800a3f2:	d103      	bne.n	800a3fc <RegionGetPhyParam+0xe>
 800a3f4:	4608      	mov	r0, r1
 800a3f6:	b002      	add	sp, #8
 800a3f8:	f000 bc2e 	b.w	800ac58 <RegionEU868GetPhyParam>
 800a3fc:	2000      	movs	r0, #0
 800a3fe:	b002      	add	sp, #8
 800a400:	4770      	bx	lr

0800a402 <RegionSetBandTxDone>:
 800a402:	2805      	cmp	r0, #5
 800a404:	d102      	bne.n	800a40c <RegionSetBandTxDone+0xa>
 800a406:	4608      	mov	r0, r1
 800a408:	f000 bcc2 	b.w	800ad90 <RegionEU868SetBandTxDone>
 800a40c:	4770      	bx	lr

0800a40e <RegionInitDefaults>:
 800a40e:	2805      	cmp	r0, #5
 800a410:	d102      	bne.n	800a418 <RegionInitDefaults+0xa>
 800a412:	4608      	mov	r0, r1
 800a414:	f000 bcd8 	b.w	800adc8 <RegionEU868InitDefaults>
 800a418:	4770      	bx	lr

0800a41a <RegionVerify>:
 800a41a:	4603      	mov	r3, r0
 800a41c:	2b05      	cmp	r3, #5
 800a41e:	4608      	mov	r0, r1
 800a420:	4611      	mov	r1, r2
 800a422:	d101      	bne.n	800a428 <RegionVerify+0xe>
 800a424:	f000 bd36 	b.w	800ae94 <RegionEU868Verify>
 800a428:	2000      	movs	r0, #0
 800a42a:	4770      	bx	lr

0800a42c <RegionApplyCFList>:
 800a42c:	2805      	cmp	r0, #5
 800a42e:	d102      	bne.n	800a436 <RegionApplyCFList+0xa>
 800a430:	4608      	mov	r0, r1
 800a432:	f001 b89d 	b.w	800b570 <RegionEU868ApplyCFList>
 800a436:	4770      	bx	lr

0800a438 <RegionChanMaskSet>:
 800a438:	2805      	cmp	r0, #5
 800a43a:	d102      	bne.n	800a442 <RegionChanMaskSet+0xa>
 800a43c:	4608      	mov	r0, r1
 800a43e:	f000 bd51 	b.w	800aee4 <RegionEU868ChanMaskSet>
 800a442:	2000      	movs	r0, #0
 800a444:	4770      	bx	lr

0800a446 <RegionComputeRxWindowParameters>:
 800a446:	b410      	push	{r4}
 800a448:	4604      	mov	r4, r0
 800a44a:	2c05      	cmp	r4, #5
 800a44c:	4608      	mov	r0, r1
 800a44e:	4611      	mov	r1, r2
 800a450:	461a      	mov	r2, r3
 800a452:	9b01      	ldr	r3, [sp, #4]
 800a454:	d102      	bne.n	800a45c <RegionComputeRxWindowParameters+0x16>
 800a456:	bc10      	pop	{r4}
 800a458:	f000 bd62 	b.w	800af20 <RegionEU868ComputeRxWindowParameters>
 800a45c:	bc10      	pop	{r4}
 800a45e:	4770      	bx	lr

0800a460 <RegionRxConfig>:
 800a460:	4603      	mov	r3, r0
 800a462:	2b05      	cmp	r3, #5
 800a464:	4608      	mov	r0, r1
 800a466:	4611      	mov	r1, r2
 800a468:	d101      	bne.n	800a46e <RegionRxConfig+0xe>
 800a46a:	f000 bd8b 	b.w	800af84 <RegionEU868RxConfig>
 800a46e:	2000      	movs	r0, #0
 800a470:	4770      	bx	lr

0800a472 <RegionTxConfig>:
 800a472:	b410      	push	{r4}
 800a474:	4604      	mov	r4, r0
 800a476:	2c05      	cmp	r4, #5
 800a478:	4608      	mov	r0, r1
 800a47a:	4611      	mov	r1, r2
 800a47c:	461a      	mov	r2, r3
 800a47e:	d102      	bne.n	800a486 <RegionTxConfig+0x14>
 800a480:	bc10      	pop	{r4}
 800a482:	f000 bdfd 	b.w	800b080 <RegionEU868TxConfig>
 800a486:	2000      	movs	r0, #0
 800a488:	bc10      	pop	{r4}
 800a48a:	4770      	bx	lr

0800a48c <RegionLinkAdrReq>:
 800a48c:	b430      	push	{r4, r5}
 800a48e:	4605      	mov	r5, r0
 800a490:	2d05      	cmp	r5, #5
 800a492:	4608      	mov	r0, r1
 800a494:	4611      	mov	r1, r2
 800a496:	461a      	mov	r2, r3
 800a498:	e9dd 3402 	ldrd	r3, r4, [sp, #8]
 800a49c:	d103      	bne.n	800a4a6 <RegionLinkAdrReq+0x1a>
 800a49e:	9402      	str	r4, [sp, #8]
 800a4a0:	bc30      	pop	{r4, r5}
 800a4a2:	f000 be79 	b.w	800b198 <RegionEU868LinkAdrReq>
 800a4a6:	2000      	movs	r0, #0
 800a4a8:	bc30      	pop	{r4, r5}
 800a4aa:	4770      	bx	lr

0800a4ac <RegionRxParamSetupReq>:
 800a4ac:	2805      	cmp	r0, #5
 800a4ae:	d102      	bne.n	800a4b6 <RegionRxParamSetupReq+0xa>
 800a4b0:	4608      	mov	r0, r1
 800a4b2:	f000 bf1f 	b.w	800b2f4 <RegionEU868RxParamSetupReq>
 800a4b6:	2000      	movs	r0, #0
 800a4b8:	4770      	bx	lr

0800a4ba <RegionNewChannelReq>:
 800a4ba:	2805      	cmp	r0, #5
 800a4bc:	d102      	bne.n	800a4c4 <RegionNewChannelReq+0xa>
 800a4be:	4608      	mov	r0, r1
 800a4c0:	f001 b894 	b.w	800b5ec <RegionEU868NewChannelReq>
 800a4c4:	2000      	movs	r0, #0
 800a4c6:	4770      	bx	lr

0800a4c8 <RegionTxParamSetupReq>:
 800a4c8:	2805      	cmp	r0, #5
 800a4ca:	d102      	bne.n	800a4d2 <RegionTxParamSetupReq+0xa>
 800a4cc:	4608      	mov	r0, r1
 800a4ce:	f000 bf34 	b.w	800b33a <RegionEU868TxParamSetupReq>
 800a4d2:	2000      	movs	r0, #0
 800a4d4:	4770      	bx	lr

0800a4d6 <RegionDlChannelReq>:
 800a4d6:	2805      	cmp	r0, #5
 800a4d8:	d102      	bne.n	800a4e0 <RegionDlChannelReq+0xa>
 800a4da:	4608      	mov	r0, r1
 800a4dc:	f000 bf30 	b.w	800b340 <RegionEU868DlChannelReq>
 800a4e0:	2000      	movs	r0, #0
 800a4e2:	4770      	bx	lr

0800a4e4 <RegionAlternateDr>:
 800a4e4:	4603      	mov	r3, r0
 800a4e6:	2b05      	cmp	r3, #5
 800a4e8:	4608      	mov	r0, r1
 800a4ea:	4611      	mov	r1, r2
 800a4ec:	d101      	bne.n	800a4f2 <RegionAlternateDr+0xe>
 800a4ee:	f000 bf4b 	b.w	800b388 <RegionEU868AlternateDr>
 800a4f2:	2000      	movs	r0, #0
 800a4f4:	4770      	bx	lr

0800a4f6 <RegionNextChannel>:
 800a4f6:	b410      	push	{r4}
 800a4f8:	4604      	mov	r4, r0
 800a4fa:	2c05      	cmp	r4, #5
 800a4fc:	4608      	mov	r0, r1
 800a4fe:	4611      	mov	r1, r2
 800a500:	461a      	mov	r2, r3
 800a502:	9b01      	ldr	r3, [sp, #4]
 800a504:	d102      	bne.n	800a50c <RegionNextChannel+0x16>
 800a506:	bc10      	pop	{r4}
 800a508:	f000 bf40 	b.w	800b38c <RegionEU868NextChannel>
 800a50c:	2009      	movs	r0, #9
 800a50e:	bc10      	pop	{r4}
 800a510:	4770      	bx	lr

0800a512 <RegionSetContinuousWave>:
 800a512:	2805      	cmp	r0, #5
 800a514:	d102      	bne.n	800a51c <RegionSetContinuousWave+0xa>
 800a516:	4608      	mov	r0, r1
 800a518:	f001 b888 	b.w	800b62c <RegionEU868SetContinuousWave>
 800a51c:	4770      	bx	lr

0800a51e <RegionApplyDrOffset>:
 800a51e:	b410      	push	{r4}
 800a520:	4604      	mov	r4, r0
 800a522:	2c05      	cmp	r4, #5
 800a524:	4608      	mov	r0, r1
 800a526:	4611      	mov	r1, r2
 800a528:	461a      	mov	r2, r3
 800a52a:	d102      	bne.n	800a532 <RegionApplyDrOffset+0x14>
 800a52c:	bc10      	pop	{r4}
 800a52e:	f001 b8a7 	b.w	800b680 <RegionEU868ApplyDrOffset>
 800a532:	b2c8      	uxtb	r0, r1
 800a534:	bc10      	pop	{r4}
 800a536:	4770      	bx	lr

0800a538 <RegionGetVersion>:
 800a538:	4800      	ldr	r0, [pc, #0]	; (800a53c <RegionGetVersion+0x4>)
 800a53a:	4770      	bx	lr
 800a53c:	01010003 	.word	0x01010003

0800a540 <RegionCommonChanVerifyDr>:
 800a540:	b5f0      	push	{r4, r5, r6, r7, lr}
 800a542:	429a      	cmp	r2, r3
 800a544:	9e06      	ldr	r6, [sp, #24]
 800a546:	db03      	blt.n	800a550 <RegionCommonChanVerifyDr+0x10>
 800a548:	f99d 3014 	ldrsb.w	r3, [sp, #20]
 800a54c:	429a      	cmp	r2, r3
 800a54e:	dd25      	ble.n	800a59c <RegionCommonChanVerifyDr+0x5c>
 800a550:	2000      	movs	r0, #0
 800a552:	bdf0      	pop	{r4, r5, r6, r7, pc}
 800a554:	eb03 0343 	add.w	r3, r3, r3, lsl #1
 800a558:	f831 e014 	ldrh.w	lr, [r1, r4, lsl #1]
 800a55c:	eb06 0383 	add.w	r3, r6, r3, lsl #2
 800a560:	2700      	movs	r7, #0
 800a562:	fa4e f507 	asr.w	r5, lr, r7
 800a566:	07ed      	lsls	r5, r5, #31
 800a568:	d50c      	bpl.n	800a584 <RegionCommonChanVerifyDr+0x44>
 800a56a:	f893 c008 	ldrb.w	ip, [r3, #8]
 800a56e:	f34c 1503 	sbfx	r5, ip, #4, #4
 800a572:	f00c 0c0f 	and.w	ip, ip, #15
 800a576:	4562      	cmp	r2, ip
 800a578:	b26d      	sxtb	r5, r5
 800a57a:	db03      	blt.n	800a584 <RegionCommonChanVerifyDr+0x44>
 800a57c:	f005 050f 	and.w	r5, r5, #15
 800a580:	42aa      	cmp	r2, r5
 800a582:	dd0d      	ble.n	800a5a0 <RegionCommonChanVerifyDr+0x60>
 800a584:	3701      	adds	r7, #1
 800a586:	2f10      	cmp	r7, #16
 800a588:	f103 030c 	add.w	r3, r3, #12
 800a58c:	d1e9      	bne.n	800a562 <RegionCommonChanVerifyDr+0x22>
 800a58e:	3401      	adds	r4, #1
 800a590:	b2e4      	uxtb	r4, r4
 800a592:	0123      	lsls	r3, r4, #4
 800a594:	b2db      	uxtb	r3, r3
 800a596:	4298      	cmp	r0, r3
 800a598:	d8dc      	bhi.n	800a554 <RegionCommonChanVerifyDr+0x14>
 800a59a:	e7d9      	b.n	800a550 <RegionCommonChanVerifyDr+0x10>
 800a59c:	2400      	movs	r4, #0
 800a59e:	e7f8      	b.n	800a592 <RegionCommonChanVerifyDr+0x52>
 800a5a0:	2001      	movs	r0, #1
 800a5a2:	e7d6      	b.n	800a552 <RegionCommonChanVerifyDr+0x12>

0800a5a4 <RegionCommonValueInRange>:
 800a5a4:	4288      	cmp	r0, r1
 800a5a6:	db04      	blt.n	800a5b2 <RegionCommonValueInRange+0xe>
 800a5a8:	4290      	cmp	r0, r2
 800a5aa:	bfcc      	ite	gt
 800a5ac:	2000      	movgt	r0, #0
 800a5ae:	2001      	movle	r0, #1
 800a5b0:	4770      	bx	lr
 800a5b2:	2000      	movs	r0, #0
 800a5b4:	4770      	bx	lr

0800a5b6 <RegionCommonChanDisable>:
 800a5b6:	b510      	push	{r4, lr}
 800a5b8:	0914      	lsrs	r4, r2, #4
 800a5ba:	ebb4 1f11 	cmp.w	r4, r1, lsr #4
 800a5be:	4603      	mov	r3, r0
 800a5c0:	ea4f 1011 	mov.w	r0, r1, lsr #4
 800a5c4:	d30e      	bcc.n	800a5e4 <RegionCommonChanDisable+0x2e>
 800a5c6:	4291      	cmp	r1, r2
 800a5c8:	d20c      	bcs.n	800a5e4 <RegionCommonChanDisable+0x2e>
 800a5ca:	b202      	sxth	r2, r0
 800a5cc:	f001 010f 	and.w	r1, r1, #15
 800a5d0:	f833 4012 	ldrh.w	r4, [r3, r2, lsl #1]
 800a5d4:	2001      	movs	r0, #1
 800a5d6:	fa00 f101 	lsl.w	r1, r0, r1
 800a5da:	ea24 0101 	bic.w	r1, r4, r1
 800a5de:	f823 1012 	strh.w	r1, [r3, r2, lsl #1]
 800a5e2:	bd10      	pop	{r4, pc}
 800a5e4:	2000      	movs	r0, #0
 800a5e6:	e7fc      	b.n	800a5e2 <RegionCommonChanDisable+0x2c>

0800a5e8 <RegionCommonCountChannels>:
 800a5e8:	b5f0      	push	{r4, r5, r6, r7, lr}
 800a5ea:	b128      	cbz	r0, 800a5f8 <RegionCommonCountChannels+0x10>
 800a5ec:	eb00 0541 	add.w	r5, r0, r1, lsl #1
 800a5f0:	2601      	movs	r6, #1
 800a5f2:	2000      	movs	r0, #0
 800a5f4:	4291      	cmp	r1, r2
 800a5f6:	d300      	bcc.n	800a5fa <RegionCommonCountChannels+0x12>
 800a5f8:	bdf0      	pop	{r4, r5, r6, r7, pc}
 800a5fa:	2400      	movs	r4, #0
 800a5fc:	f835 7b02 	ldrh.w	r7, [r5], #2
 800a600:	4623      	mov	r3, r4
 800a602:	fa06 fc04 	lsl.w	ip, r6, r4
 800a606:	ea3c 0c07 	bics.w	ip, ip, r7
 800a60a:	bf08      	it	eq
 800a60c:	3301      	addeq	r3, #1
 800a60e:	f104 0401 	add.w	r4, r4, #1
 800a612:	bf08      	it	eq
 800a614:	b2db      	uxtbeq	r3, r3
 800a616:	2c10      	cmp	r4, #16
 800a618:	d1f3      	bne.n	800a602 <RegionCommonCountChannels+0x1a>
 800a61a:	4418      	add	r0, r3
 800a61c:	3101      	adds	r1, #1
 800a61e:	b2c0      	uxtb	r0, r0
 800a620:	b2c9      	uxtb	r1, r1
 800a622:	e7e7      	b.n	800a5f4 <RegionCommonCountChannels+0xc>

0800a624 <RegionCommonChanMaskCopy>:
 800a624:	b510      	push	{r4, lr}
 800a626:	b100      	cbz	r0, 800a62a <RegionCommonChanMaskCopy+0x6>
 800a628:	b949      	cbnz	r1, 800a63e <RegionCommonChanMaskCopy+0x1a>
 800a62a:	bd10      	pop	{r4, pc}
 800a62c:	f831 4013 	ldrh.w	r4, [r1, r3, lsl #1]
 800a630:	f820 4013 	strh.w	r4, [r0, r3, lsl #1]
 800a634:	3301      	adds	r3, #1
 800a636:	b2dc      	uxtb	r4, r3
 800a638:	42a2      	cmp	r2, r4
 800a63a:	d8f7      	bhi.n	800a62c <RegionCommonChanMaskCopy+0x8>
 800a63c:	e7f5      	b.n	800a62a <RegionCommonChanMaskCopy+0x6>
 800a63e:	2300      	movs	r3, #0
 800a640:	e7f9      	b.n	800a636 <RegionCommonChanMaskCopy+0x12>

0800a642 <RegionCommonSetBandTxDone>:
 800a642:	b082      	sub	sp, #8
 800a644:	b530      	push	{r4, r5, lr}
 800a646:	8804      	ldrh	r4, [r0, #0]
 800a648:	9304      	str	r3, [sp, #16]
 800a64a:	b96a      	cbnz	r2, 800a668 <RegionCommonSetBandTxDone+0x26>
 800a64c:	f5b3 6f61 	cmp.w	r3, #3600	; 0xe10
 800a650:	d318      	bcc.n	800a684 <RegionCommonSetBandTxDone+0x42>
 800a652:	f649 25af 	movw	r5, #39599	; 0x9aaf
 800a656:	f242 7210 	movw	r2, #10000	; 0x2710
 800a65a:	42ab      	cmp	r3, r5
 800a65c:	bf98      	it	ls
 800a65e:	f44f 727a 	movls.w	r2, #1000	; 0x3e8
 800a662:	4294      	cmp	r4, r2
 800a664:	bf38      	it	cc
 800a666:	4614      	movcc	r4, r2
 800a668:	2c01      	cmp	r4, #1
 800a66a:	68c3      	ldr	r3, [r0, #12]
 800a66c:	bf38      	it	cc
 800a66e:	2401      	movcc	r4, #1
 800a670:	434c      	muls	r4, r1
 800a672:	42a3      	cmp	r3, r4
 800a674:	bf8c      	ite	hi
 800a676:	1b1c      	subhi	r4, r3, r4
 800a678:	2400      	movls	r4, #0
 800a67a:	60c4      	str	r4, [r0, #12]
 800a67c:	e8bd 4030 	ldmia.w	sp!, {r4, r5, lr}
 800a680:	b002      	add	sp, #8
 800a682:	4770      	bx	lr
 800a684:	2264      	movs	r2, #100	; 0x64
 800a686:	e7ec      	b.n	800a662 <RegionCommonSetBandTxDone+0x20>

0800a688 <RegionCommonUpdateBandTimeOff>:
 800a688:	e92d 4ff0 	stmdb	sp!, {r4, r5, r6, r7, r8, r9, sl, fp, lr}
 800a68c:	b091      	sub	sp, #68	; 0x44
 800a68e:	4615      	mov	r5, r2
 800a690:	f8dd 806c 	ldr.w	r8, [sp, #108]	; 0x6c
 800a694:	9304      	str	r3, [sp, #16]
 800a696:	f89d 3068 	ldrb.w	r3, [sp, #104]	; 0x68
 800a69a:	9309      	str	r3, [sp, #36]	; 0x24
 800a69c:	460c      	mov	r4, r1
 800a69e:	4606      	mov	r6, r0
 800a6a0:	f003 fa3e 	bl	800db20 <UTIL_TIMER_GetCurrentTime>
 800a6a4:	4a68      	ldr	r2, [pc, #416]	; (800a848 <RegionCommonUpdateBandTimeOff+0x1c0>)
 800a6a6:	f8df b1a4 	ldr.w	fp, [pc, #420]	; 800a84c <RegionCommonUpdateBandTimeOff+0x1c4>
 800a6aa:	9005      	str	r0, [sp, #20]
 800a6ac:	f5a8 33f6 	sub.w	r3, r8, #125952	; 0x1ec00
 800a6b0:	3b30      	subs	r3, #48	; 0x30
 800a6b2:	fbb3 f3f2 	udiv	r3, r3, r2
 800a6b6:	4353      	muls	r3, r2
 800a6b8:	f503 32f6 	add.w	r2, r3, #125952	; 0x1ec00
 800a6bc:	3230      	adds	r2, #48	; 0x30
 800a6be:	f503 33a8 	add.w	r3, r3, #86016	; 0x15000
 800a6c2:	f503 73c0 	add.w	r3, r3, #384	; 0x180
 800a6c6:	9206      	str	r2, [sp, #24]
 800a6c8:	2218      	movs	r2, #24
 800a6ca:	9303      	str	r3, [sp, #12]
 800a6cc:	fb12 4305 	smlabb	r3, r2, r5, r4
 800a6d0:	9308      	str	r3, [sp, #32]
 800a6d2:	2500      	movs	r5, #0
 800a6d4:	f04f 3aff 	mov.w	sl, #4294967295
 800a6d8:	9b08      	ldr	r3, [sp, #32]
 800a6da:	42a3      	cmp	r3, r4
 800a6dc:	d107      	bne.n	800a6ee <RegionCommonUpdateBandTimeOff+0x66>
 800a6de:	2d00      	cmp	r5, #0
 800a6e0:	bf14      	ite	ne
 800a6e2:	4650      	movne	r0, sl
 800a6e4:	f04f 30ff 	moveq.w	r0, #4294967295
 800a6e8:	b011      	add	sp, #68	; 0x44
 800a6ea:	e8bd 8ff0 	ldmia.w	sp!, {r4, r5, r6, r7, r8, r9, sl, fp, pc}
 800a6ee:	f9bd 3070 	ldrsh.w	r3, [sp, #112]	; 0x70
 800a6f2:	f8ad 302c 	strh.w	r3, [sp, #44]	; 0x2c
 800a6f6:	990b      	ldr	r1, [sp, #44]	; 0x2c
 800a6f8:	f8cd 806c 	str.w	r8, [sp, #108]	; 0x6c
 800a6fc:	4640      	mov	r0, r8
 800a6fe:	f8cd 8028 	str.w	r8, [sp, #40]	; 0x28
 800a702:	f002 ffb9 	bl	800d678 <SysTimeToMs>
 800a706:	f8b4 9000 	ldrh.w	r9, [r4]
 800a70a:	b96e      	cbnz	r6, 800a728 <RegionCommonUpdateBandTimeOff+0xa0>
 800a70c:	f5b8 6f61 	cmp.w	r8, #3600	; 0xe10
 800a710:	d35b      	bcc.n	800a7ca <RegionCommonUpdateBandTimeOff+0x142>
 800a712:	f649 22af 	movw	r2, #39599	; 0x9aaf
 800a716:	f242 7310 	movw	r3, #10000	; 0x2710
 800a71a:	4590      	cmp	r8, r2
 800a71c:	bf98      	it	ls
 800a71e:	f44f 737a 	movls.w	r3, #1000	; 0x3e8
 800a722:	4599      	cmp	r9, r3
 800a724:	bf38      	it	cc
 800a726:	4699      	movcc	r9, r3
 800a728:	464b      	mov	r3, r9
 800a72a:	2b01      	cmp	r3, #1
 800a72c:	bf38      	it	cc
 800a72e:	2301      	movcc	r3, #1
 800a730:	9307      	str	r3, [sp, #28]
 800a732:	2e00      	cmp	r6, #0
 800a734:	d152      	bne.n	800a7dc <RegionCommonUpdateBandTimeOff+0x154>
 800a736:	f1b9 0f64 	cmp.w	r9, #100	; 0x64
 800a73a:	d148      	bne.n	800a7ce <RegionCommonUpdateBandTimeOff+0x146>
 800a73c:	60a0      	str	r0, [r4, #8]
 800a73e:	465f      	mov	r7, fp
 800a740:	68a1      	ldr	r1, [r4, #8]
 800a742:	a80e      	add	r0, sp, #56	; 0x38
 800a744:	f002 ffba 	bl	800d6bc <SysTimeFromMs>
 800a748:	9b0f      	ldr	r3, [sp, #60]	; 0x3c
 800a74a:	9300      	str	r3, [sp, #0]
 800a74c:	e9dd 120a 	ldrd	r1, r2, [sp, #40]	; 0x28
 800a750:	9b0e      	ldr	r3, [sp, #56]	; 0x38
 800a752:	a80c      	add	r0, sp, #48	; 0x30
 800a754:	f002 ff11 	bl	800d57a <SysTimeSub>
 800a758:	9b04      	ldr	r3, [sp, #16]
 800a75a:	b90b      	cbnz	r3, 800a760 <RegionCommonUpdateBandTimeOff+0xd8>
 800a75c:	9b09      	ldr	r3, [sp, #36]	; 0x24
 800a75e:	b133      	cbz	r3, 800a76e <RegionCommonUpdateBandTimeOff+0xe6>
 800a760:	6923      	ldr	r3, [r4, #16]
 800a762:	42bb      	cmp	r3, r7
 800a764:	d103      	bne.n	800a76e <RegionCommonUpdateBandTimeOff+0xe6>
 800a766:	4b3a      	ldr	r3, [pc, #232]	; (800a850 <RegionCommonUpdateBandTimeOff+0x1c8>)
 800a768:	9a0c      	ldr	r2, [sp, #48]	; 0x30
 800a76a:	429a      	cmp	r2, r3
 800a76c:	d90d      	bls.n	800a78a <RegionCommonUpdateBandTimeOff+0x102>
 800a76e:	4b39      	ldr	r3, [pc, #228]	; (800a854 <RegionCommonUpdateBandTimeOff+0x1cc>)
 800a770:	60e7      	str	r7, [r4, #12]
 800a772:	4598      	cmp	r8, r3
 800a774:	d909      	bls.n	800a78a <RegionCommonUpdateBandTimeOff+0x102>
 800a776:	2300      	movs	r3, #0
 800a778:	f8ad 3034 	strh.w	r3, [sp, #52]	; 0x34
 800a77c:	9b06      	ldr	r3, [sp, #24]
 800a77e:	990d      	ldr	r1, [sp, #52]	; 0x34
 800a780:	930c      	str	r3, [sp, #48]	; 0x30
 800a782:	4618      	mov	r0, r3
 800a784:	f002 ff78 	bl	800d678 <SysTimeToMs>
 800a788:	60a0      	str	r0, [r4, #8]
 800a78a:	6860      	ldr	r0, [r4, #4]
 800a78c:	b900      	cbnz	r0, 800a790 <RegionCommonUpdateBandTimeOff+0x108>
 800a78e:	60e7      	str	r7, [r4, #12]
 800a790:	6127      	str	r7, [r4, #16]
 800a792:	b126      	cbz	r6, 800a79e <RegionCommonUpdateBandTimeOff+0x116>
 800a794:	f003 f9ce 	bl	800db34 <UTIL_TIMER_GetElapsedTime>
 800a798:	68e3      	ldr	r3, [r4, #12]
 800a79a:	4403      	add	r3, r0
 800a79c:	60e3      	str	r3, [r4, #12]
 800a79e:	e9d4 3203 	ldrd	r3, r2, [r4, #12]
 800a7a2:	4293      	cmp	r3, r2
 800a7a4:	9b05      	ldr	r3, [sp, #20]
 800a7a6:	991d      	ldr	r1, [sp, #116]	; 0x74
 800a7a8:	6063      	str	r3, [r4, #4]
 800a7aa:	9b07      	ldr	r3, [sp, #28]
 800a7ac:	bf88      	it	hi
 800a7ae:	60e2      	strhi	r2, [r4, #12]
 800a7b0:	434b      	muls	r3, r1
 800a7b2:	68e1      	ldr	r1, [r4, #12]
 800a7b4:	4299      	cmp	r1, r3
 800a7b6:	d802      	bhi.n	800a7be <RegionCommonUpdateBandTimeOff+0x136>
 800a7b8:	9804      	ldr	r0, [sp, #16]
 800a7ba:	b9a8      	cbnz	r0, 800a7e8 <RegionCommonUpdateBandTimeOff+0x160>
 800a7bc:	b1a6      	cbz	r6, 800a7e8 <RegionCommonUpdateBandTimeOff+0x160>
 800a7be:	2301      	movs	r3, #1
 800a7c0:	441d      	add	r5, r3
 800a7c2:	7523      	strb	r3, [r4, #20]
 800a7c4:	b2ed      	uxtb	r5, r5
 800a7c6:	3418      	adds	r4, #24
 800a7c8:	e786      	b.n	800a6d8 <RegionCommonUpdateBandTimeOff+0x50>
 800a7ca:	2364      	movs	r3, #100	; 0x64
 800a7cc:	e7a9      	b.n	800a722 <RegionCommonUpdateBandTimeOff+0x9a>
 800a7ce:	f5b9 7f7a 	cmp.w	r9, #1000	; 0x3e8
 800a7d2:	bf0a      	itet	eq
 800a7d4:	4f20      	ldreq	r7, [pc, #128]	; (800a858 <RegionCommonUpdateBandTimeOff+0x1d0>)
 800a7d6:	4f21      	ldrne	r7, [pc, #132]	; (800a85c <RegionCommonUpdateBandTimeOff+0x1d4>)
 800a7d8:	60a0      	streq	r0, [r4, #8]
 800a7da:	e7b1      	b.n	800a740 <RegionCommonUpdateBandTimeOff+0xb8>
 800a7dc:	9b04      	ldr	r3, [sp, #16]
 800a7de:	b90b      	cbnz	r3, 800a7e4 <RegionCommonUpdateBandTimeOff+0x15c>
 800a7e0:	f8c4 b00c 	str.w	fp, [r4, #12]
 800a7e4:	465f      	mov	r7, fp
 800a7e6:	e7d0      	b.n	800a78a <RegionCommonUpdateBandTimeOff+0x102>
 800a7e8:	2000      	movs	r0, #0
 800a7ea:	4293      	cmp	r3, r2
 800a7ec:	7520      	strb	r0, [r4, #20]
 800a7ee:	d206      	bcs.n	800a7fe <RegionCommonUpdateBandTimeOff+0x176>
 800a7f0:	1a5b      	subs	r3, r3, r1
 800a7f2:	459a      	cmp	sl, r3
 800a7f4:	f105 0501 	add.w	r5, r5, #1
 800a7f8:	bf28      	it	cs
 800a7fa:	469a      	movcs	sl, r3
 800a7fc:	b2ed      	uxtb	r5, r5
 800a7fe:	2e00      	cmp	r6, #0
 800a800:	d1e1      	bne.n	800a7c6 <RegionCommonUpdateBandTimeOff+0x13e>
 800a802:	f1b9 0f64 	cmp.w	r9, #100	; 0x64
 800a806:	4a16      	ldr	r2, [pc, #88]	; (800a860 <RegionCommonUpdateBandTimeOff+0x1d8>)
 800a808:	f8ad 6034 	strh.w	r6, [sp, #52]	; 0x34
 800a80c:	d019      	beq.n	800a842 <RegionCommonUpdateBandTimeOff+0x1ba>
 800a80e:	f649 23b0 	movw	r3, #39600	; 0x9ab0
 800a812:	f5b9 7f7a 	cmp.w	r9, #1000	; 0x3e8
 800a816:	bf18      	it	ne
 800a818:	4613      	movne	r3, r2
 800a81a:	4590      	cmp	r8, r2
 800a81c:	bf84      	itt	hi
 800a81e:	9a03      	ldrhi	r2, [sp, #12]
 800a820:	189b      	addhi	r3, r3, r2
 800a822:	930c      	str	r3, [sp, #48]	; 0x30
 800a824:	9b1c      	ldr	r3, [sp, #112]	; 0x70
 800a826:	9300      	str	r3, [sp, #0]
 800a828:	af0c      	add	r7, sp, #48	; 0x30
 800a82a:	e897 0006 	ldmia.w	r7, {r1, r2}
 800a82e:	9b1b      	ldr	r3, [sp, #108]	; 0x6c
 800a830:	4638      	mov	r0, r7
 800a832:	f002 fea2 	bl	800d57a <SysTimeSub>
 800a836:	e897 0003 	ldmia.w	r7, {r0, r1}
 800a83a:	f002 ff1d 	bl	800d678 <SysTimeToMs>
 800a83e:	4682      	mov	sl, r0
 800a840:	e7c1      	b.n	800a7c6 <RegionCommonUpdateBandTimeOff+0x13e>
 800a842:	f44f 6361 	mov.w	r3, #3600	; 0xe10
 800a846:	e7e8      	b.n	800a81a <RegionCommonUpdateBandTimeOff+0x192>
 800a848:	00015180 	.word	0x00015180
 800a84c:	001b7740 	.word	0x001b7740
 800a850:	0001517f 	.word	0x0001517f
 800a854:	0001ec2f 	.word	0x0001ec2f
 800a858:	0112a880 	.word	0x0112a880
 800a85c:	02932e00 	.word	0x02932e00
 800a860:	0001ec30 	.word	0x0001ec30

0800a864 <RegionCommonParseLinkAdrReq>:
 800a864:	7803      	ldrb	r3, [r0, #0]
 800a866:	2b03      	cmp	r3, #3
 800a868:	d114      	bne.n	800a894 <RegionCommonParseLinkAdrReq+0x30>
 800a86a:	7843      	ldrb	r3, [r0, #1]
 800a86c:	f003 020f 	and.w	r2, r3, #15
 800a870:	091b      	lsrs	r3, r3, #4
 800a872:	708a      	strb	r2, [r1, #2]
 800a874:	704b      	strb	r3, [r1, #1]
 800a876:	7883      	ldrb	r3, [r0, #2]
 800a878:	808b      	strh	r3, [r1, #4]
 800a87a:	78c2      	ldrb	r2, [r0, #3]
 800a87c:	ea43 2302 	orr.w	r3, r3, r2, lsl #8
 800a880:	808b      	strh	r3, [r1, #4]
 800a882:	7903      	ldrb	r3, [r0, #4]
 800a884:	f3c3 1202 	ubfx	r2, r3, #4, #3
 800a888:	f003 030f 	and.w	r3, r3, #15
 800a88c:	70ca      	strb	r2, [r1, #3]
 800a88e:	700b      	strb	r3, [r1, #0]
 800a890:	2005      	movs	r0, #5
 800a892:	4770      	bx	lr
 800a894:	2000      	movs	r0, #0
 800a896:	4770      	bx	lr

0800a898 <RegionCommonLinkAdrReqVerifyParams>:
 800a898:	e92d 47f3 	stmdb	sp!, {r0, r1, r4, r5, r6, r7, r8, r9, sl, lr}
 800a89c:	4698      	mov	r8, r3
 800a89e:	7943      	ldrb	r3, [r0, #5]
 800a8a0:	7905      	ldrb	r5, [r0, #4]
 800a8a2:	f990 7007 	ldrsb.w	r7, [r0, #7]
 800a8a6:	7a06      	ldrb	r6, [r0, #8]
 800a8a8:	4691      	mov	r9, r2
 800a8aa:	4604      	mov	r4, r0
 800a8ac:	f990 2006 	ldrsb.w	r2, [r0, #6]
 800a8b0:	468a      	mov	sl, r1
 800a8b2:	b17b      	cbz	r3, 800a8d4 <RegionCommonLinkAdrReqVerifyParams+0x3c>
 800a8b4:	b276      	sxtb	r6, r6
 800a8b6:	b375      	cbz	r5, 800a916 <RegionCommonLinkAdrReqVerifyParams+0x7e>
 800a8b8:	2a0f      	cmp	r2, #15
 800a8ba:	d112      	bne.n	800a8e2 <RegionCommonLinkAdrReqVerifyParams+0x4a>
 800a8bc:	f994 2009 	ldrsb.w	r2, [r4, #9]
 800a8c0:	2f0f      	cmp	r7, #15
 800a8c2:	d11e      	bne.n	800a902 <RegionCommonLinkAdrReqVerifyParams+0x6a>
 800a8c4:	f994 700a 	ldrsb.w	r7, [r4, #10]
 800a8c8:	2d07      	cmp	r5, #7
 800a8ca:	d124      	bne.n	800a916 <RegionCommonLinkAdrReqVerifyParams+0x7e>
 800a8cc:	2e00      	cmp	r6, #0
 800a8ce:	bf08      	it	eq
 800a8d0:	2601      	moveq	r6, #1
 800a8d2:	e020      	b.n	800a916 <RegionCommonLinkAdrReqVerifyParams+0x7e>
 800a8d4:	f990 600b 	ldrsb.w	r6, [r0, #11]
 800a8d8:	f990 2009 	ldrsb.w	r2, [r0, #9]
 800a8dc:	f990 700a 	ldrsb.w	r7, [r0, #10]
 800a8e0:	e7e9      	b.n	800a8b6 <RegionCommonLinkAdrReqVerifyParams+0x1e>
 800a8e2:	69a3      	ldr	r3, [r4, #24]
 800a8e4:	9301      	str	r3, [sp, #4]
 800a8e6:	f994 3015 	ldrsb.w	r3, [r4, #21]
 800a8ea:	9300      	str	r3, [sp, #0]
 800a8ec:	6921      	ldr	r1, [r4, #16]
 800a8ee:	f994 3014 	ldrsb.w	r3, [r4, #20]
 800a8f2:	7b20      	ldrb	r0, [r4, #12]
 800a8f4:	f7ff fe24 	bl	800a540 <RegionCommonChanVerifyDr>
 800a8f8:	2800      	cmp	r0, #0
 800a8fa:	d1e1      	bne.n	800a8c0 <RegionCommonLinkAdrReqVerifyParams+0x28>
 800a8fc:	f005 05fd 	and.w	r5, r5, #253	; 0xfd
 800a900:	e7de      	b.n	800a8c0 <RegionCommonLinkAdrReqVerifyParams+0x28>
 800a902:	f994 301d 	ldrsb.w	r3, [r4, #29]
 800a906:	f994 101c 	ldrsb.w	r1, [r4, #28]
 800a90a:	42bb      	cmp	r3, r7
 800a90c:	dc0d      	bgt.n	800a92a <RegionCommonLinkAdrReqVerifyParams+0x92>
 800a90e:	42b9      	cmp	r1, r7
 800a910:	dada      	bge.n	800a8c8 <RegionCommonLinkAdrReqVerifyParams+0x30>
 800a912:	f005 05fb 	and.w	r5, r5, #251	; 0xfb
 800a916:	4628      	mov	r0, r5
 800a918:	f88a 2000 	strb.w	r2, [sl]
 800a91c:	f889 7000 	strb.w	r7, [r9]
 800a920:	f888 6000 	strb.w	r6, [r8]
 800a924:	b002      	add	sp, #8
 800a926:	e8bd 87f0 	ldmia.w	sp!, {r4, r5, r6, r7, r8, r9, sl, pc}
 800a92a:	461f      	mov	r7, r3
 800a92c:	e7cc      	b.n	800a8c8 <RegionCommonLinkAdrReqVerifyParams+0x30>
	...

0800a930 <RegionCommonComputeSymbolTimeLoRa>:
 800a930:	4b02      	ldr	r3, [pc, #8]	; (800a93c <RegionCommonComputeSymbolTimeLoRa+0xc>)
 800a932:	fa03 f000 	lsl.w	r0, r3, r0
 800a936:	fbb0 f0f1 	udiv	r0, r0, r1
 800a93a:	4770      	bx	lr
 800a93c:	000f4240 	.word	0x000f4240

0800a940 <RegionCommonComputeSymbolTimeFsk>:
 800a940:	f44f 53fa 	mov.w	r3, #8000	; 0x1f40
 800a944:	fbb3 f0f0 	udiv	r0, r3, r0
 800a948:	4770      	bx	lr

0800a94a <RegionCommonComputeRxWindowParameters>:
 800a94a:	b530      	push	{r4, r5, lr}
 800a94c:	f44f 757a 	mov.w	r5, #1000	; 0x3e8
 800a950:	1f0c      	subs	r4, r1, #4
 800a952:	436a      	muls	r2, r5
 800a954:	fb00 2204 	mla	r2, r0, r4, r2
 800a958:	0052      	lsls	r2, r2, #1
 800a95a:	bf1e      	ittt	ne
 800a95c:	f100 34ff 	addne.w	r4, r0, #4294967295
 800a960:	1912      	addne	r2, r2, r4
 800a962:	fbb2 f2f0 	udivne	r2, r2, r0
 800a966:	428a      	cmp	r2, r1
 800a968:	bf38      	it	cc
 800a96a:	460a      	movcc	r2, r1
 800a96c:	0084      	lsls	r4, r0, #2
 800a96e:	4350      	muls	r0, r2
 800a970:	bf18      	it	ne
 800a972:	3001      	addne	r0, #1
 800a974:	9903      	ldr	r1, [sp, #12]
 800a976:	bf18      	it	ne
 800a978:	0840      	lsrne	r0, r0, #1
 800a97a:	600a      	str	r2, [r1, #0]
 800a97c:	1a20      	subs	r0, r4, r0
 800a97e:	f44f 727a 	mov.w	r2, #1000	; 0x3e8
 800a982:	fb02 0013 	mls	r0, r2, r3, r0
 800a986:	2800      	cmp	r0, #0
 800a988:	9b04      	ldr	r3, [sp, #16]
 800a98a:	bfd2      	itee	le
 800a98c:	fb90 f0f2 	sdivle	r0, r0, r2
 800a990:	f200 30e7 	addwgt	r0, r0, #999	; 0x3e7
 800a994:	fbb0 f0f2 	udivgt	r0, r0, r2
 800a998:	6018      	str	r0, [r3, #0]
 800a99a:	bd30      	pop	{r4, r5, pc}

0800a99c <RegionCommonComputeTxPower>:
 800a99c:	b538      	push	{r3, r4, r5, lr}
 800a99e:	0040      	lsls	r0, r0, #1
 800a9a0:	4614      	mov	r4, r2
 800a9a2:	460d      	mov	r5, r1
 800a9a4:	f7f5 ff66 	bl	8000874 <__aeabi_ui2f>
 800a9a8:	4601      	mov	r1, r0
 800a9aa:	4628      	mov	r0, r5
 800a9ac:	f7f5 feb0 	bl	8000710 <__aeabi_fsub>
 800a9b0:	4621      	mov	r1, r4
 800a9b2:	f7f5 fead 	bl	8000710 <__aeabi_fsub>
 800a9b6:	f7f5 fd9f 	bl	80004f8 <__aeabi_f2d>
 800a9ba:	f003 ff09 	bl	800e7d0 <floor>
 800a9be:	f7f5 fe7b 	bl	80006b8 <__aeabi_d2iz>
 800a9c2:	b240      	sxtb	r0, r0
 800a9c4:	bd38      	pop	{r3, r4, r5, pc}

0800a9c6 <RegionCommonCountNbOfEnabledChannels>:
 800a9c6:	e92d 4ff7 	stmdb	sp!, {r0, r1, r2, r4, r5, r6, r7, r8, r9, sl, fp, lr}
 800a9ca:	9301      	str	r3, [sp, #4]
 800a9cc:	2300      	movs	r3, #0
 800a9ce:	461f      	mov	r7, r3
 800a9d0:	469c      	mov	ip, r3
 800a9d2:	011c      	lsls	r4, r3, #4
 800a9d4:	8a05      	ldrh	r5, [r0, #16]
 800a9d6:	fa5f fe84 	uxtb.w	lr, r4
 800a9da:	f004 04f0 	and.w	r4, r4, #240	; 0xf0
 800a9de:	42a5      	cmp	r5, r4
 800a9e0:	d806      	bhi.n	800a9f0 <RegionCommonCountNbOfEnabledChannels+0x2a>
 800a9e2:	9b01      	ldr	r3, [sp, #4]
 800a9e4:	f882 c000 	strb.w	ip, [r2]
 800a9e8:	701f      	strb	r7, [r3, #0]
 800a9ea:	b003      	add	sp, #12
 800a9ec:	e8bd 8ff0 	ldmia.w	sp!, {r4, r5, r6, r7, r8, r9, sl, fp, pc}
 800a9f0:	eb0e 054e 	add.w	r5, lr, lr, lsl #1
 800a9f4:	ea4f 0943 	mov.w	r9, r3, lsl #1
 800a9f8:	00ad      	lsls	r5, r5, #2
 800a9fa:	2400      	movs	r4, #0
 800a9fc:	6846      	ldr	r6, [r0, #4]
 800a9fe:	f836 6009 	ldrh.w	r6, [r6, r9]
 800aa02:	4126      	asrs	r6, r4
 800aa04:	07f6      	lsls	r6, r6, #31
 800aa06:	d527      	bpl.n	800aa58 <RegionCommonCountNbOfEnabledChannels+0x92>
 800aa08:	6886      	ldr	r6, [r0, #8]
 800aa0a:	eb06 0a05 	add.w	sl, r6, r5
 800aa0e:	5976      	ldr	r6, [r6, r5]
 800aa10:	b316      	cbz	r6, 800aa58 <RegionCommonCountNbOfEnabledChannels+0x92>
 800aa12:	7806      	ldrb	r6, [r0, #0]
 800aa14:	b936      	cbnz	r6, 800aa24 <RegionCommonCountNbOfEnabledChannels+0x5e>
 800aa16:	6946      	ldr	r6, [r0, #20]
 800aa18:	b126      	cbz	r6, 800aa24 <RegionCommonCountNbOfEnabledChannels+0x5e>
 800aa1a:	f836 6009 	ldrh.w	r6, [r6, r9]
 800aa1e:	4126      	asrs	r6, r4
 800aa20:	07f6      	lsls	r6, r6, #31
 800aa22:	d519      	bpl.n	800aa58 <RegionCommonCountNbOfEnabledChannels+0x92>
 800aa24:	f89a 6008 	ldrb.w	r6, [sl, #8]
 800aa28:	f990 b001 	ldrsb.w	fp, [r0, #1]
 800aa2c:	f346 0803 	sbfx	r8, r6, #0, #4
 800aa30:	fa4f f888 	sxtb.w	r8, r8
 800aa34:	45d8      	cmp	r8, fp
 800aa36:	dc0f      	bgt.n	800aa58 <RegionCommonCountNbOfEnabledChannels+0x92>
 800aa38:	f346 1603 	sbfx	r6, r6, #4, #4
 800aa3c:	b276      	sxtb	r6, r6
 800aa3e:	455e      	cmp	r6, fp
 800aa40:	db0a      	blt.n	800aa58 <RegionCommonCountNbOfEnabledChannels+0x92>
 800aa42:	f89a 6009 	ldrb.w	r6, [sl, #9]
 800aa46:	eb06 0846 	add.w	r8, r6, r6, lsl #1
 800aa4a:	68c6      	ldr	r6, [r0, #12]
 800aa4c:	eb06 06c8 	add.w	r6, r6, r8, lsl #3
 800aa50:	7d36      	ldrb	r6, [r6, #20]
 800aa52:	b94e      	cbnz	r6, 800aa68 <RegionCommonCountNbOfEnabledChannels+0xa2>
 800aa54:	3701      	adds	r7, #1
 800aa56:	b2ff      	uxtb	r7, r7
 800aa58:	3401      	adds	r4, #1
 800aa5a:	2c10      	cmp	r4, #16
 800aa5c:	f105 050c 	add.w	r5, r5, #12
 800aa60:	d1cc      	bne.n	800a9fc <RegionCommonCountNbOfEnabledChannels+0x36>
 800aa62:	3301      	adds	r3, #1
 800aa64:	b2db      	uxtb	r3, r3
 800aa66:	e7b4      	b.n	800a9d2 <RegionCommonCountNbOfEnabledChannels+0xc>
 800aa68:	f10c 0601 	add.w	r6, ip, #1
 800aa6c:	eb0e 0804 	add.w	r8, lr, r4
 800aa70:	f801 800c 	strb.w	r8, [r1, ip]
 800aa74:	fa5f fc86 	uxtb.w	ip, r6
 800aa78:	e7ee      	b.n	800aa58 <RegionCommonCountNbOfEnabledChannels+0x92>

0800aa7a <RegionCommonIdentifyChannels>:
 800aa7a:	e92d 47ff 	stmdb	sp!, {r0, r1, r2, r3, r4, r5, r6, r7, r8, r9, sl, lr}
 800aa7e:	4604      	mov	r4, r0
 800aa80:	6840      	ldr	r0, [r0, #4]
 800aa82:	e9dd 670c 	ldrd	r6, r7, [sp, #48]	; 0x30
 800aa86:	461d      	mov	r5, r3
 800aa88:	468a      	mov	sl, r1
 800aa8a:	4691      	mov	r9, r2
 800aa8c:	f003 f852 	bl	800db34 <UTIL_TIMER_GetElapsedTime>
 800aa90:	6823      	ldr	r3, [r4, #0]
 800aa92:	1a1b      	subs	r3, r3, r0
 800aa94:	603b      	str	r3, [r7, #0]
 800aa96:	f04f 0800 	mov.w	r8, #0
 800aa9a:	2301      	movs	r3, #1
 800aa9c:	7033      	strb	r3, [r6, #0]
 800aa9e:	f885 8000 	strb.w	r8, [r5]
 800aaa2:	6863      	ldr	r3, [r4, #4]
 800aaa4:	b113      	cbz	r3, 800aaac <RegionCommonIdentifyChannels+0x32>
 800aaa6:	6823      	ldr	r3, [r4, #0]
 800aaa8:	4283      	cmp	r3, r0
 800aaaa:	d824      	bhi.n	800aaf6 <RegionCommonIdentifyChannels+0x7c>
 800aaac:	f8ca 8000 	str.w	r8, [sl]
 800aab0:	f8d4 c01c 	ldr.w	ip, [r4, #28]
 800aab4:	69a3      	ldr	r3, [r4, #24]
 800aab6:	f89c e000 	ldrb.w	lr, [ip]
 800aaba:	9303      	str	r3, [sp, #12]
 800aabc:	e9d4 0103 	ldrd	r0, r1, [r4, #12]
 800aac0:	ab01      	add	r3, sp, #4
 800aac2:	e883 0003 	stmia.w	r3, {r0, r1}
 800aac6:	7d23      	ldrb	r3, [r4, #20]
 800aac8:	9300      	str	r3, [sp, #0]
 800aaca:	f8dc 100c 	ldr.w	r1, [ip, #12]
 800aace:	7a23      	ldrb	r3, [r4, #8]
 800aad0:	7a62      	ldrb	r2, [r4, #9]
 800aad2:	4670      	mov	r0, lr
 800aad4:	f7ff fdd8 	bl	800a688 <RegionCommonUpdateBandTimeOff>
 800aad8:	4633      	mov	r3, r6
 800aada:	6038      	str	r0, [r7, #0]
 800aadc:	462a      	mov	r2, r5
 800aade:	69e0      	ldr	r0, [r4, #28]
 800aae0:	4649      	mov	r1, r9
 800aae2:	f7ff ff70 	bl	800a9c6 <RegionCommonCountNbOfEnabledChannels>
 800aae6:	782b      	ldrb	r3, [r5, #0]
 800aae8:	b12b      	cbz	r3, 800aaf6 <RegionCommonIdentifyChannels+0x7c>
 800aaea:	f8c7 8000 	str.w	r8, [r7]
 800aaee:	2000      	movs	r0, #0
 800aaf0:	b004      	add	sp, #16
 800aaf2:	e8bd 87f0 	ldmia.w	sp!, {r4, r5, r6, r7, r8, r9, sl, pc}
 800aaf6:	7833      	ldrb	r3, [r6, #0]
 800aaf8:	2b00      	cmp	r3, #0
 800aafa:	bf14      	ite	ne
 800aafc:	200b      	movne	r0, #11
 800aafe:	200c      	moveq	r0, #12
 800ab00:	e7f6      	b.n	800aaf0 <RegionCommonIdentifyChannels+0x76>

0800ab02 <RegionCommonGetNextLowerTxDr>:
 800ab02:	b537      	push	{r0, r1, r2, r4, r5, lr}
 800ab04:	f990 2000 	ldrsb.w	r2, [r0]
 800ab08:	f990 5002 	ldrsb.w	r5, [r0, #2]
 800ab0c:	4295      	cmp	r5, r2
 800ab0e:	4604      	mov	r4, r0
 800ab10:	d00f      	beq.n	800ab32 <RegionCommonGetNextLowerTxDr+0x30>
 800ab12:	3a01      	subs	r2, #1
 800ab14:	b252      	sxtb	r2, r2
 800ab16:	4295      	cmp	r5, r2
 800ab18:	d00b      	beq.n	800ab32 <RegionCommonGetNextLowerTxDr+0x30>
 800ab1a:	68a3      	ldr	r3, [r4, #8]
 800ab1c:	9301      	str	r3, [sp, #4]
 800ab1e:	f994 3001 	ldrsb.w	r3, [r4, #1]
 800ab22:	9300      	str	r3, [sp, #0]
 800ab24:	6861      	ldr	r1, [r4, #4]
 800ab26:	78e0      	ldrb	r0, [r4, #3]
 800ab28:	462b      	mov	r3, r5
 800ab2a:	f7ff fd09 	bl	800a540 <RegionCommonChanVerifyDr>
 800ab2e:	2800      	cmp	r0, #0
 800ab30:	d0ef      	beq.n	800ab12 <RegionCommonGetNextLowerTxDr+0x10>
 800ab32:	4610      	mov	r0, r2
 800ab34:	b003      	add	sp, #12
 800ab36:	bd30      	pop	{r4, r5, pc}

0800ab38 <RegionCommonLimitTxPower>:
 800ab38:	4288      	cmp	r0, r1
 800ab3a:	bfb8      	it	lt
 800ab3c:	4608      	movlt	r0, r1
 800ab3e:	4770      	bx	lr

0800ab40 <RegionCommonGetBandwidth>:
 800ab40:	f851 0020 	ldr.w	r0, [r1, r0, lsl #2]
 800ab44:	4b05      	ldr	r3, [pc, #20]	; (800ab5c <RegionCommonGetBandwidth+0x1c>)
 800ab46:	4298      	cmp	r0, r3
 800ab48:	d005      	beq.n	800ab56 <RegionCommonGetBandwidth+0x16>
 800ab4a:	4b05      	ldr	r3, [pc, #20]	; (800ab60 <RegionCommonGetBandwidth+0x20>)
 800ab4c:	4298      	cmp	r0, r3
 800ab4e:	bf0c      	ite	eq
 800ab50:	2002      	moveq	r0, #2
 800ab52:	2000      	movne	r0, #0
 800ab54:	4770      	bx	lr
 800ab56:	2001      	movs	r0, #1
 800ab58:	4770      	bx	lr
 800ab5a:	bf00      	nop
 800ab5c:	0003d090 	.word	0x0003d090
 800ab60:	0007a120 	.word	0x0007a120

0800ab64 <RegionCommonRxConfigPrint>:
 800ab64:	4770      	bx	lr

0800ab66 <RegionCommonTxConfigPrint>:
 800ab66:	4770      	bx	lr

0800ab68 <GetTimeOnAir>:
 800ab68:	b5f0      	push	{r4, r5, r6, r7, lr}
 800ab6a:	4b11      	ldr	r3, [pc, #68]	; (800abb0 <GetTimeOnAir+0x48>)
 800ab6c:	b085      	sub	sp, #20
 800ab6e:	460c      	mov	r4, r1
 800ab70:	4910      	ldr	r1, [pc, #64]	; (800abb4 <GetTimeOnAir+0x4c>)
 800ab72:	561f      	ldrsb	r7, [r3, r0]
 800ab74:	4605      	mov	r5, r0
 800ab76:	f7ff ffe3 	bl	800ab40 <RegionCommonGetBandwidth>
 800ab7a:	4b0f      	ldr	r3, [pc, #60]	; (800abb8 <GetTimeOnAir+0x50>)
 800ab7c:	b2e4      	uxtb	r4, r4
 800ab7e:	6a5e      	ldr	r6, [r3, #36]	; 0x24
 800ab80:	2d07      	cmp	r5, #7
 800ab82:	f04f 0301 	mov.w	r3, #1
 800ab86:	e9cd 4302 	strd	r4, r3, [sp, #8]
 800ab8a:	4601      	mov	r1, r0
 800ab8c:	d10a      	bne.n	800aba4 <GetTimeOnAir+0x3c>
 800ab8e:	2205      	movs	r2, #5
 800ab90:	2300      	movs	r3, #0
 800ab92:	e9cd 2300 	strd	r2, r3, [sp]
 800ab96:	f44f 727a 	mov.w	r2, #1000	; 0x3e8
 800ab9a:	437a      	muls	r2, r7
 800ab9c:	4618      	mov	r0, r3
 800ab9e:	47b0      	blx	r6
 800aba0:	b005      	add	sp, #20
 800aba2:	bdf0      	pop	{r4, r5, r6, r7, pc}
 800aba4:	2208      	movs	r2, #8
 800aba6:	2000      	movs	r0, #0
 800aba8:	e9cd 2000 	strd	r2, r0, [sp]
 800abac:	463a      	mov	r2, r7
 800abae:	e7f5      	b.n	800ab9c <GetTimeOnAir+0x34>
 800abb0:	0800edf3 	.word	0x0800edf3
 800abb4:	0800edcc 	.word	0x0800edcc
 800abb8:	0800ee40 	.word	0x0800ee40

0800abbc <VerifyRfFreq>:
 800abbc:	b538      	push	{r3, r4, r5, lr}
 800abbe:	4b19      	ldr	r3, [pc, #100]	; (800ac24 <VerifyRfFreq+0x68>)
 800abc0:	6a1b      	ldr	r3, [r3, #32]
 800abc2:	4605      	mov	r5, r0
 800abc4:	460c      	mov	r4, r1
 800abc6:	4798      	blx	r3
 800abc8:	b130      	cbz	r0, 800abd8 <VerifyRfFreq+0x1c>
 800abca:	4b17      	ldr	r3, [pc, #92]	; (800ac28 <VerifyRfFreq+0x6c>)
 800abcc:	4a17      	ldr	r2, [pc, #92]	; (800ac2c <VerifyRfFreq+0x70>)
 800abce:	442b      	add	r3, r5
 800abd0:	4293      	cmp	r3, r2
 800abd2:	d802      	bhi.n	800abda <VerifyRfFreq+0x1e>
 800abd4:	2302      	movs	r3, #2
 800abd6:	7023      	strb	r3, [r4, #0]
 800abd8:	bd38      	pop	{r3, r4, r5, pc}
 800abda:	4b15      	ldr	r3, [pc, #84]	; (800ac30 <VerifyRfFreq+0x74>)
 800abdc:	4a15      	ldr	r2, [pc, #84]	; (800ac34 <VerifyRfFreq+0x78>)
 800abde:	442b      	add	r3, r5
 800abe0:	4293      	cmp	r3, r2
 800abe2:	d801      	bhi.n	800abe8 <VerifyRfFreq+0x2c>
 800abe4:	2300      	movs	r3, #0
 800abe6:	e7f6      	b.n	800abd6 <VerifyRfFreq+0x1a>
 800abe8:	4b13      	ldr	r3, [pc, #76]	; (800ac38 <VerifyRfFreq+0x7c>)
 800abea:	4a14      	ldr	r2, [pc, #80]	; (800ac3c <VerifyRfFreq+0x80>)
 800abec:	442b      	add	r3, r5
 800abee:	4293      	cmp	r3, r2
 800abf0:	d801      	bhi.n	800abf6 <VerifyRfFreq+0x3a>
 800abf2:	2301      	movs	r3, #1
 800abf4:	e7ef      	b.n	800abd6 <VerifyRfFreq+0x1a>
 800abf6:	4b12      	ldr	r3, [pc, #72]	; (800ac40 <VerifyRfFreq+0x84>)
 800abf8:	4a12      	ldr	r2, [pc, #72]	; (800ac44 <VerifyRfFreq+0x88>)
 800abfa:	442b      	add	r3, r5
 800abfc:	4293      	cmp	r3, r2
 800abfe:	d801      	bhi.n	800ac04 <VerifyRfFreq+0x48>
 800ac00:	2305      	movs	r3, #5
 800ac02:	e7e8      	b.n	800abd6 <VerifyRfFreq+0x1a>
 800ac04:	4b10      	ldr	r3, [pc, #64]	; (800ac48 <VerifyRfFreq+0x8c>)
 800ac06:	4a11      	ldr	r2, [pc, #68]	; (800ac4c <VerifyRfFreq+0x90>)
 800ac08:	442b      	add	r3, r5
 800ac0a:	4293      	cmp	r3, r2
 800ac0c:	d801      	bhi.n	800ac12 <VerifyRfFreq+0x56>
 800ac0e:	2303      	movs	r3, #3
 800ac10:	e7e1      	b.n	800abd6 <VerifyRfFreq+0x1a>
 800ac12:	4b0f      	ldr	r3, [pc, #60]	; (800ac50 <VerifyRfFreq+0x94>)
 800ac14:	4a0f      	ldr	r2, [pc, #60]	; (800ac54 <VerifyRfFreq+0x98>)
 800ac16:	442b      	add	r3, r5
 800ac18:	4293      	cmp	r3, r2
 800ac1a:	d801      	bhi.n	800ac20 <VerifyRfFreq+0x64>
 800ac1c:	2304      	movs	r3, #4
 800ac1e:	e7da      	b.n	800abd6 <VerifyRfFreq+0x1a>
 800ac20:	2000      	movs	r0, #0
 800ac22:	e7d9      	b.n	800abd8 <VerifyRfFreq+0x1c>
 800ac24:	0800ee40 	.word	0x0800ee40
 800ac28:	cc8faa40 	.word	0xcc8faa40
 800ac2c:	001e847f 	.word	0x001e847f
 800ac30:	cc7125c0 	.word	0xcc7125c0
 800ac34:	002dc6c0 	.word	0x002dc6c0
 800ac38:	cc435eff 	.word	0xcc435eff
 800ac3c:	000927bf 	.word	0x000927bf
 800ac40:	cc38b0a0 	.word	0xcc38b0a0
 800ac44:	0007a120 	.word	0x0007a120
 800ac48:	cc2e0240 	.word	0xcc2e0240
 800ac4c:	0003d090 	.word	0x0003d090
 800ac50:	cc296e60 	.word	0xcc296e60
 800ac54:	000493e0 	.word	0x000493e0

0800ac58 <RegionEU868GetPhyParam>:
 800ac58:	b51f      	push	{r0, r1, r2, r3, r4, lr}
 800ac5a:	2300      	movs	r3, #0
 800ac5c:	9300      	str	r3, [sp, #0]
 800ac5e:	7803      	ldrb	r3, [r0, #0]
 800ac60:	3b0b      	subs	r3, #11
 800ac62:	2b2e      	cmp	r3, #46	; 0x2e
 800ac64:	d86c      	bhi.n	800ad40 <RegionEU868GetPhyParam+0xe8>
 800ac66:	e8df f003 	tbb	[pc, r3]
 800ac6a:	302d      	.short	0x302d
 800ac6c:	3d3b3732 	.word	0x3d3b3732
 800ac70:	49464340 	.word	0x49464340
 800ac74:	576b4f4c 	.word	0x576b4f4c
 800ac78:	635e596b 	.word	0x635e596b
 800ac7c:	686b6b65 	.word	0x686b6b65
 800ac80:	6b6b186f 	.word	0x6b6b186f
 800ac84:	6b6b6b6b 	.word	0x6b6b6b6b
 800ac88:	6b6b6b6b 	.word	0x6b6b6b6b
 800ac8c:	576b6b6b 	.word	0x576b6b6b
 800ac90:	6b6b7671 	.word	0x6b6b7671
 800ac94:	786b7657 	.word	0x786b7657
 800ac98:	7c          	.byte	0x7c
 800ac99:	00          	.byte	0x00
 800ac9a:	7843      	ldrb	r3, [r0, #1]
 800ac9c:	f88d 3004 	strb.w	r3, [sp, #4]
 800aca0:	2307      	movs	r3, #7
 800aca2:	f88d 3005 	strb.w	r3, [sp, #5]
 800aca6:	f44f 5380 	mov.w	r3, #4096	; 0x1000
 800acaa:	f8ad 3006 	strh.w	r3, [sp, #6]
 800acae:	4b30      	ldr	r3, [pc, #192]	; (800ad70 <RegionEU868GetPhyParam+0x118>)
 800acb0:	681b      	ldr	r3, [r3, #0]
 800acb2:	a801      	add	r0, sp, #4
 800acb4:	f503 6290 	add.w	r2, r3, #1152	; 0x480
 800acb8:	e9cd 2302 	strd	r2, r3, [sp, #8]
 800acbc:	f7ff ff21 	bl	800ab02 <RegionCommonGetNextLowerTxDr>
 800acc0:	9000      	str	r0, [sp, #0]
 800acc2:	e03d      	b.n	800ad40 <RegionEU868GetPhyParam+0xe8>
 800acc4:	2340      	movs	r3, #64	; 0x40
 800acc6:	9300      	str	r3, [sp, #0]
 800acc8:	e03a      	b.n	800ad40 <RegionEU868GetPhyParam+0xe8>
 800acca:	2320      	movs	r3, #32
 800accc:	e7fb      	b.n	800acc6 <RegionEU868GetPhyParam+0x6e>
 800acce:	f990 3001 	ldrsb.w	r3, [r0, #1]
 800acd2:	4a28      	ldr	r2, [pc, #160]	; (800ad74 <RegionEU868GetPhyParam+0x11c>)
 800acd4:	5cd3      	ldrb	r3, [r2, r3]
 800acd6:	e7f6      	b.n	800acc6 <RegionEU868GetPhyParam+0x6e>
 800acd8:	f990 3001 	ldrsb.w	r3, [r0, #1]
 800acdc:	4a26      	ldr	r2, [pc, #152]	; (800ad78 <RegionEU868GetPhyParam+0x120>)
 800acde:	e7f9      	b.n	800acd4 <RegionEU868GetPhyParam+0x7c>
 800ace0:	2301      	movs	r3, #1
 800ace2:	e7f0      	b.n	800acc6 <RegionEU868GetPhyParam+0x6e>
 800ace4:	f640 33b8 	movw	r3, #3000	; 0xbb8
 800ace8:	e7ed      	b.n	800acc6 <RegionEU868GetPhyParam+0x6e>
 800acea:	f44f 737a 	mov.w	r3, #1000	; 0x3e8
 800acee:	e7ea      	b.n	800acc6 <RegionEU868GetPhyParam+0x6e>
 800acf0:	f44f 63fa 	mov.w	r3, #2000	; 0x7d0
 800acf4:	e7e7      	b.n	800acc6 <RegionEU868GetPhyParam+0x6e>
 800acf6:	f241 3388 	movw	r3, #5000	; 0x1388
 800acfa:	e7e4      	b.n	800acc6 <RegionEU868GetPhyParam+0x6e>
 800acfc:	f241 7370 	movw	r3, #6000	; 0x1770
 800ad00:	e7e1      	b.n	800acc6 <RegionEU868GetPhyParam+0x6e>
 800ad02:	f44f 4380 	mov.w	r3, #16384	; 0x4000
 800ad06:	e7de      	b.n	800acc6 <RegionEU868GetPhyParam+0x6e>
 800ad08:	481c      	ldr	r0, [pc, #112]	; (800ad7c <RegionEU868GetPhyParam+0x124>)
 800ad0a:	f44f 717a 	mov.w	r1, #1000	; 0x3e8
 800ad0e:	f000 fcc3 	bl	800b698 <randr>
 800ad12:	f500 60fa 	add.w	r0, r0, #2000	; 0x7d0
 800ad16:	e7d3      	b.n	800acc0 <RegionEU868GetPhyParam+0x68>
 800ad18:	4b19      	ldr	r3, [pc, #100]	; (800ad80 <RegionEU868GetPhyParam+0x128>)
 800ad1a:	e7d4      	b.n	800acc6 <RegionEU868GetPhyParam+0x6e>
 800ad1c:	4b14      	ldr	r3, [pc, #80]	; (800ad70 <RegionEU868GetPhyParam+0x118>)
 800ad1e:	681b      	ldr	r3, [r3, #0]
 800ad20:	f503 6390 	add.w	r3, r3, #1152	; 0x480
 800ad24:	e7cf      	b.n	800acc6 <RegionEU868GetPhyParam+0x6e>
 800ad26:	4b12      	ldr	r3, [pc, #72]	; (800ad70 <RegionEU868GetPhyParam+0x118>)
 800ad28:	681b      	ldr	r3, [r3, #0]
 800ad2a:	f203 438c 	addw	r3, r3, #1164	; 0x48c
 800ad2e:	e7ca      	b.n	800acc6 <RegionEU868GetPhyParam+0x6e>
 800ad30:	2310      	movs	r3, #16
 800ad32:	e7c8      	b.n	800acc6 <RegionEU868GetPhyParam+0x6e>
 800ad34:	4b0e      	ldr	r3, [pc, #56]	; (800ad70 <RegionEU868GetPhyParam+0x118>)
 800ad36:	681b      	ldr	r3, [r3, #0]
 800ad38:	e7c5      	b.n	800acc6 <RegionEU868GetPhyParam+0x6e>
 800ad3a:	f04f 4383 	mov.w	r3, #1098907648	; 0x41800000
 800ad3e:	9300      	str	r3, [sp, #0]
 800ad40:	9800      	ldr	r0, [sp, #0]
 800ad42:	b005      	add	sp, #20
 800ad44:	f85d fb04 	ldr.w	pc, [sp], #4
 800ad48:	4b0e      	ldr	r3, [pc, #56]	; (800ad84 <RegionEU868GetPhyParam+0x12c>)
 800ad4a:	e7f8      	b.n	800ad3e <RegionEU868GetPhyParam+0xe6>
 800ad4c:	f240 2311 	movw	r3, #529	; 0x211
 800ad50:	f8ad 3000 	strh.w	r3, [sp]
 800ad54:	e7f4      	b.n	800ad40 <RegionEU868GetPhyParam+0xe8>
 800ad56:	2303      	movs	r3, #3
 800ad58:	e7b5      	b.n	800acc6 <RegionEU868GetPhyParam+0x6e>
 800ad5a:	f990 3001 	ldrsb.w	r3, [r0, #1]
 800ad5e:	4a0a      	ldr	r2, [pc, #40]	; (800ad88 <RegionEU868GetPhyParam+0x130>)
 800ad60:	e7b8      	b.n	800acd4 <RegionEU868GetPhyParam+0x7c>
 800ad62:	490a      	ldr	r1, [pc, #40]	; (800ad8c <RegionEU868GetPhyParam+0x134>)
 800ad64:	f990 0001 	ldrsb.w	r0, [r0, #1]
 800ad68:	f7ff feea 	bl	800ab40 <RegionCommonGetBandwidth>
 800ad6c:	e7a8      	b.n	800acc0 <RegionEU868GetPhyParam+0x68>
 800ad6e:	bf00      	nop
 800ad70:	20001ab4 	.word	0x20001ab4
 800ad74:	0800edfb 	.word	0x0800edfb
 800ad78:	0800ee03 	.word	0x0800ee03
 800ad7c:	fffffc18 	.word	0xfffffc18
 800ad80:	33d3e608 	.word	0x33d3e608
 800ad84:	4009999a 	.word	0x4009999a
 800ad88:	0800edf3 	.word	0x0800edf3
 800ad8c:	0800edcc 	.word	0x0800edcc

0800ad90 <RegionEU868SetBandTxDone>:
 800ad90:	b537      	push	{r0, r1, r2, r4, r5, lr}
 800ad92:	4b0b      	ldr	r3, [pc, #44]	; (800adc0 <RegionEU868SetBandTxDone+0x30>)
 800ad94:	7802      	ldrb	r2, [r0, #0]
 800ad96:	681b      	ldr	r3, [r3, #0]
 800ad98:	210c      	movs	r1, #12
 800ad9a:	fb01 3302 	mla	r3, r1, r2, r3
 800ad9e:	7a5b      	ldrb	r3, [r3, #9]
 800ada0:	eb03 0443 	add.w	r4, r3, r3, lsl #1
 800ada4:	4b07      	ldr	r3, [pc, #28]	; (800adc4 <RegionEU868SetBandTxDone+0x34>)
 800ada6:	681d      	ldr	r5, [r3, #0]
 800ada8:	6903      	ldr	r3, [r0, #16]
 800adaa:	9300      	str	r3, [sp, #0]
 800adac:	68c3      	ldr	r3, [r0, #12]
 800adae:	7842      	ldrb	r2, [r0, #1]
 800adb0:	6881      	ldr	r1, [r0, #8]
 800adb2:	eb05 00c4 	add.w	r0, r5, r4, lsl #3
 800adb6:	f7ff fc44 	bl	800a642 <RegionCommonSetBandTxDone>
 800adba:	b003      	add	sp, #12
 800adbc:	bd30      	pop	{r4, r5, pc}
 800adbe:	bf00      	nop
 800adc0:	20001ab4 	.word	0x20001ab4
 800adc4:	20001ab0 	.word	0x20001ab0

0800adc8 <RegionEU868InitDefaults>:
 800adc8:	b530      	push	{r4, r5, lr}
 800adca:	b0a5      	sub	sp, #148	; 0x94
 800adcc:	4604      	mov	r4, r0
 800adce:	2290      	movs	r2, #144	; 0x90
 800add0:	2100      	movs	r1, #0
 800add2:	4668      	mov	r0, sp
 800add4:	f003 f872 	bl	800debc <memset>
 800add8:	f44f 727a 	mov.w	r2, #1000	; 0x3e8
 800addc:	f8ad 2030 	strh.w	r2, [sp, #48]	; 0x30
 800ade0:	f8ad 2078 	strh.w	r2, [sp, #120]	; 0x78
 800ade4:	7a22      	ldrb	r2, [r4, #8]
 800ade6:	2364      	movs	r3, #100	; 0x64
 800ade8:	210a      	movs	r1, #10
 800adea:	2a01      	cmp	r2, #1
 800adec:	f8ad 3000 	strh.w	r3, [sp]
 800adf0:	f8ad 3018 	strh.w	r3, [sp, #24]
 800adf4:	f8ad 1048 	strh.w	r1, [sp, #72]	; 0x48
 800adf8:	f8ad 3060 	strh.w	r3, [sp, #96]	; 0x60
 800adfc:	d02e      	beq.n	800ae5c <RegionEU868InitDefaults+0x94>
 800adfe:	2a02      	cmp	r2, #2
 800ae00:	d037      	beq.n	800ae72 <RegionEU868InitDefaults+0xaa>
 800ae02:	bb4a      	cbnz	r2, 800ae58 <RegionEU868InitDefaults+0x90>
 800ae04:	6820      	ldr	r0, [r4, #0]
 800ae06:	b338      	cbz	r0, 800ae58 <RegionEU868InitDefaults+0x90>
 800ae08:	6863      	ldr	r3, [r4, #4]
 800ae0a:	b32b      	cbz	r3, 800ae58 <RegionEU868InitDefaults+0x90>
 800ae0c:	4a1e      	ldr	r2, [pc, #120]	; (800ae88 <RegionEU868InitDefaults+0xc0>)
 800ae0e:	4c1f      	ldr	r4, [pc, #124]	; (800ae8c <RegionEU868InitDefaults+0xc4>)
 800ae10:	6010      	str	r0, [r2, #0]
 800ae12:	4669      	mov	r1, sp
 800ae14:	2290      	movs	r2, #144	; 0x90
 800ae16:	6023      	str	r3, [r4, #0]
 800ae18:	f000 fc5a 	bl	800b6d0 <memcpy1>
 800ae1c:	4b1c      	ldr	r3, [pc, #112]	; (800ae90 <RegionEU868InitDefaults+0xc8>)
 800ae1e:	6824      	ldr	r4, [r4, #0]
 800ae20:	e893 0007 	ldmia.w	r3, {r0, r1, r2}
 800ae24:	e884 0007 	stmia.w	r4, {r0, r1, r2}
 800ae28:	f103 020c 	add.w	r2, r3, #12
 800ae2c:	ca07      	ldmia	r2, {r0, r1, r2}
 800ae2e:	f104 050c 	add.w	r5, r4, #12
 800ae32:	3318      	adds	r3, #24
 800ae34:	e885 0007 	stmia.w	r5, {r0, r1, r2}
 800ae38:	e893 0007 	ldmia.w	r3, {r0, r1, r2}
 800ae3c:	f104 0518 	add.w	r5, r4, #24
 800ae40:	2307      	movs	r3, #7
 800ae42:	e885 0007 	stmia.w	r5, {r0, r1, r2}
 800ae46:	f8a4 348c 	strh.w	r3, [r4, #1164]	; 0x48c
 800ae4a:	2201      	movs	r2, #1
 800ae4c:	f204 418c 	addw	r1, r4, #1164	; 0x48c
 800ae50:	f504 6090 	add.w	r0, r4, #1152	; 0x480
 800ae54:	f7ff fbe6 	bl	800a624 <RegionCommonChanMaskCopy>
 800ae58:	b025      	add	sp, #148	; 0x94
 800ae5a:	bd30      	pop	{r4, r5, pc}
 800ae5c:	4b0b      	ldr	r3, [pc, #44]	; (800ae8c <RegionEU868InitDefaults+0xc4>)
 800ae5e:	6818      	ldr	r0, [r3, #0]
 800ae60:	2300      	movs	r3, #0
 800ae62:	6043      	str	r3, [r0, #4]
 800ae64:	6103      	str	r3, [r0, #16]
 800ae66:	61c3      	str	r3, [r0, #28]
 800ae68:	f200 418c 	addw	r1, r0, #1164	; 0x48c
 800ae6c:	f500 6090 	add.w	r0, r0, #1152	; 0x480
 800ae70:	e7f0      	b.n	800ae54 <RegionEU868InitDefaults+0x8c>
 800ae72:	4b06      	ldr	r3, [pc, #24]	; (800ae8c <RegionEU868InitDefaults+0xc4>)
 800ae74:	681b      	ldr	r3, [r3, #0]
 800ae76:	f8b3 2480 	ldrh.w	r2, [r3, #1152]	; 0x480
 800ae7a:	f8b3 148c 	ldrh.w	r1, [r3, #1164]	; 0x48c
 800ae7e:	430a      	orrs	r2, r1
 800ae80:	f8a3 2480 	strh.w	r2, [r3, #1152]	; 0x480
 800ae84:	e7e8      	b.n	800ae58 <RegionEU868InitDefaults+0x90>
 800ae86:	bf00      	nop
 800ae88:	20001ab0 	.word	0x20001ab0
 800ae8c:	20001ab4 	.word	0x20001ab4
 800ae90:	0800e910 	.word	0x0800e910

0800ae94 <RegionEU868Verify>:
 800ae94:	b507      	push	{r0, r1, r2, lr}
 800ae96:	290f      	cmp	r1, #15
 800ae98:	d809      	bhi.n	800aeae <RegionEU868Verify+0x1a>
 800ae9a:	e8df f001 	tbb	[pc, r1]
 800ae9e:	080c      	.short	0x080c
 800aea0:	1f080808 	.word	0x1f080808
 800aea4:	1f081f15 	.word	0x1f081f15
 800aea8:	0808081f 	.word	0x0808081f
 800aeac:	2108      	.short	0x2108
 800aeae:	2000      	movs	r0, #0
 800aeb0:	b003      	add	sp, #12
 800aeb2:	f85d fb04 	ldr.w	pc, [sp], #4
 800aeb6:	2300      	movs	r3, #0
 800aeb8:	f10d 0107 	add.w	r1, sp, #7
 800aebc:	6800      	ldr	r0, [r0, #0]
 800aebe:	f88d 3007 	strb.w	r3, [sp, #7]
 800aec2:	f7ff fe7b 	bl	800abbc <VerifyRfFreq>
 800aec6:	e7f3      	b.n	800aeb0 <RegionEU868Verify+0x1c>
 800aec8:	2205      	movs	r2, #5
 800aeca:	f990 0000 	ldrsb.w	r0, [r0]
 800aece:	2100      	movs	r1, #0
 800aed0:	f7ff fb68 	bl	800a5a4 <RegionCommonValueInRange>
 800aed4:	3800      	subs	r0, #0
 800aed6:	bf18      	it	ne
 800aed8:	2001      	movne	r0, #1
 800aeda:	e7e9      	b.n	800aeb0 <RegionEU868Verify+0x1c>
 800aedc:	2207      	movs	r2, #7
 800aede:	e7f4      	b.n	800aeca <RegionEU868Verify+0x36>
 800aee0:	2001      	movs	r0, #1
 800aee2:	e7e5      	b.n	800aeb0 <RegionEU868Verify+0x1c>

0800aee4 <RegionEU868ChanMaskSet>:
 800aee4:	b510      	push	{r4, lr}
 800aee6:	7904      	ldrb	r4, [r0, #4]
 800aee8:	b11c      	cbz	r4, 800aef2 <RegionEU868ChanMaskSet+0xe>
 800aeea:	2c01      	cmp	r4, #1
 800aeec:	d00b      	beq.n	800af06 <RegionEU868ChanMaskSet+0x22>
 800aeee:	2000      	movs	r0, #0
 800aef0:	bd10      	pop	{r4, pc}
 800aef2:	4b0a      	ldr	r3, [pc, #40]	; (800af1c <RegionEU868ChanMaskSet+0x38>)
 800aef4:	6801      	ldr	r1, [r0, #0]
 800aef6:	681b      	ldr	r3, [r3, #0]
 800aef8:	2201      	movs	r2, #1
 800aefa:	f503 6090 	add.w	r0, r3, #1152	; 0x480
 800aefe:	f7ff fb91 	bl	800a624 <RegionCommonChanMaskCopy>
 800af02:	2001      	movs	r0, #1
 800af04:	e7f4      	b.n	800aef0 <RegionEU868ChanMaskSet+0xc>
 800af06:	4b05      	ldr	r3, [pc, #20]	; (800af1c <RegionEU868ChanMaskSet+0x38>)
 800af08:	6801      	ldr	r1, [r0, #0]
 800af0a:	681b      	ldr	r3, [r3, #0]
 800af0c:	4622      	mov	r2, r4
 800af0e:	f203 408c 	addw	r0, r3, #1164	; 0x48c
 800af12:	f7ff fb87 	bl	800a624 <RegionCommonChanMaskCopy>
 800af16:	4620      	mov	r0, r4
 800af18:	e7ea      	b.n	800aef0 <RegionEU868ChanMaskSet+0xc>
 800af1a:	bf00      	nop
 800af1c:	20001ab4 	.word	0x20001ab4

0800af20 <RegionEU868ComputeRxWindowParameters>:
 800af20:	b5f7      	push	{r0, r1, r2, r4, r5, r6, r7, lr}
 800af22:	2807      	cmp	r0, #7
 800af24:	4d14      	ldr	r5, [pc, #80]	; (800af78 <RegionEU868ComputeRxWindowParameters+0x58>)
 800af26:	461c      	mov	r4, r3
 800af28:	bfa8      	it	ge
 800af2a:	2007      	movge	r0, #7
 800af2c:	7058      	strb	r0, [r3, #1]
 800af2e:	460e      	mov	r6, r1
 800af30:	4629      	mov	r1, r5
 800af32:	4617      	mov	r7, r2
 800af34:	f7ff fe04 	bl	800ab40 <RegionCommonGetBandwidth>
 800af38:	f994 3001 	ldrsb.w	r3, [r4, #1]
 800af3c:	70a0      	strb	r0, [r4, #2]
 800af3e:	2b07      	cmp	r3, #7
 800af40:	d113      	bne.n	800af6a <RegionEU868ComputeRxWindowParameters+0x4a>
 800af42:	2032      	movs	r0, #50	; 0x32
 800af44:	f7ff fcfc 	bl	800a940 <RegionCommonComputeSymbolTimeFsk>
 800af48:	4b0c      	ldr	r3, [pc, #48]	; (800af7c <RegionEU868ComputeRxWindowParameters+0x5c>)
 800af4a:	6ddb      	ldr	r3, [r3, #92]	; 0x5c
 800af4c:	4605      	mov	r5, r0
 800af4e:	4798      	blx	r3
 800af50:	f104 020c 	add.w	r2, r4, #12
 800af54:	3408      	adds	r4, #8
 800af56:	4603      	mov	r3, r0
 800af58:	9201      	str	r2, [sp, #4]
 800af5a:	9400      	str	r4, [sp, #0]
 800af5c:	463a      	mov	r2, r7
 800af5e:	4631      	mov	r1, r6
 800af60:	4628      	mov	r0, r5
 800af62:	f7ff fcf2 	bl	800a94a <RegionCommonComputeRxWindowParameters>
 800af66:	b003      	add	sp, #12
 800af68:	bdf0      	pop	{r4, r5, r6, r7, pc}
 800af6a:	4a05      	ldr	r2, [pc, #20]	; (800af80 <RegionEU868ComputeRxWindowParameters+0x60>)
 800af6c:	f855 1023 	ldr.w	r1, [r5, r3, lsl #2]
 800af70:	5cd0      	ldrb	r0, [r2, r3]
 800af72:	f7ff fcdd 	bl	800a930 <RegionCommonComputeSymbolTimeLoRa>
 800af76:	e7e7      	b.n	800af48 <RegionEU868ComputeRxWindowParameters+0x28>
 800af78:	0800edcc 	.word	0x0800edcc
 800af7c:	0800ee40 	.word	0x0800ee40
 800af80:	0800edf3 	.word	0x0800edf3

0800af84 <RegionEU868RxConfig>:
 800af84:	e92d 4ff0 	stmdb	sp!, {r4, r5, r6, r7, r8, r9, sl, fp, lr}
 800af88:	f8df 90dc 	ldr.w	r9, [pc, #220]	; 800b068 <RegionEU868RxConfig+0xe4>
 800af8c:	f990 6001 	ldrsb.w	r6, [r0, #1]
 800af90:	f8d9 3004 	ldr.w	r3, [r9, #4]
 800af94:	f8d0 8004 	ldr.w	r8, [r0, #4]
 800af98:	b08b      	sub	sp, #44	; 0x2c
 800af9a:	4604      	mov	r4, r0
 800af9c:	468a      	mov	sl, r1
 800af9e:	4798      	blx	r3
 800afa0:	4605      	mov	r5, r0
 800afa2:	2800      	cmp	r0, #0
 800afa4:	d15d      	bne.n	800b062 <RegionEU868RxConfig+0xde>
 800afa6:	7ce3      	ldrb	r3, [r4, #19]
 800afa8:	b963      	cbnz	r3, 800afc4 <RegionEU868RxConfig+0x40>
 800afaa:	4a30      	ldr	r2, [pc, #192]	; (800b06c <RegionEU868RxConfig+0xe8>)
 800afac:	7823      	ldrb	r3, [r4, #0]
 800afae:	6812      	ldr	r2, [r2, #0]
 800afb0:	eb03 0343 	add.w	r3, r3, r3, lsl #1
 800afb4:	eb02 0183 	add.w	r1, r2, r3, lsl #2
 800afb8:	f852 8023 	ldr.w	r8, [r2, r3, lsl #2]
 800afbc:	684b      	ldr	r3, [r1, #4]
 800afbe:	2b00      	cmp	r3, #0
 800afc0:	bf18      	it	ne
 800afc2:	4698      	movne	r8, r3
 800afc4:	4b2a      	ldr	r3, [pc, #168]	; (800b070 <RegionEU868RxConfig+0xec>)
 800afc6:	4640      	mov	r0, r8
 800afc8:	f913 b006 	ldrsb.w	fp, [r3, r6]
 800afcc:	f8d9 300c 	ldr.w	r3, [r9, #12]
 800afd0:	4798      	blx	r3
 800afd2:	f8d9 3018 	ldr.w	r3, [r9, #24]
 800afd6:	68a1      	ldr	r1, [r4, #8]
 800afd8:	469c      	mov	ip, r3
 800afda:	2e07      	cmp	r6, #7
 800afdc:	7ca3      	ldrb	r3, [r4, #18]
 800afde:	9309      	str	r3, [sp, #36]	; 0x24
 800afe0:	d12b      	bne.n	800b03a <RegionEU868RxConfig+0xb6>
 800afe2:	b289      	uxth	r1, r1
 800afe4:	2300      	movs	r3, #0
 800afe6:	9102      	str	r1, [sp, #8]
 800afe8:	4922      	ldr	r1, [pc, #136]	; (800b074 <RegionEU868RxConfig+0xf0>)
 800afea:	9306      	str	r3, [sp, #24]
 800afec:	2205      	movs	r2, #5
 800afee:	e9cd 3307 	strd	r3, r3, [sp, #28]
 800aff2:	e9cd 1200 	strd	r1, r2, [sp]
 800aff6:	2001      	movs	r0, #1
 800aff8:	f44f 727a 	mov.w	r2, #1000	; 0x3e8
 800affc:	e9cd 3004 	strd	r3, r0, [sp, #16]
 800b000:	9303      	str	r3, [sp, #12]
 800b002:	fb02 f20b 	mul.w	r2, r2, fp
 800b006:	f24c 3150 	movw	r1, #50000	; 0xc350
 800b00a:	4618      	mov	r0, r3
 800b00c:	4667      	mov	r7, ip
 800b00e:	47b8      	blx	r7
 800b010:	7c63      	ldrb	r3, [r4, #17]
 800b012:	b323      	cbz	r3, 800b05e <RegionEU868RxConfig+0xda>
 800b014:	4b18      	ldr	r3, [pc, #96]	; (800b078 <RegionEU868RxConfig+0xf4>)
 800b016:	5d99      	ldrb	r1, [r3, r6]
 800b018:	f8d9 3054 	ldr.w	r3, [r9, #84]	; 0x54
 800b01c:	310d      	adds	r1, #13
 800b01e:	b2c9      	uxtb	r1, r1
 800b020:	4628      	mov	r0, r5
 800b022:	4798      	blx	r3
 800b024:	7ce0      	ldrb	r0, [r4, #19]
 800b026:	4632      	mov	r2, r6
 800b028:	4641      	mov	r1, r8
 800b02a:	f7ff fd9b 	bl	800ab64 <RegionCommonRxConfigPrint>
 800b02e:	f88a 6000 	strb.w	r6, [sl]
 800b032:	2001      	movs	r0, #1
 800b034:	b00b      	add	sp, #44	; 0x2c
 800b036:	e8bd 8ff0 	ldmia.w	sp!, {r4, r5, r6, r7, r8, r9, sl, fp, pc}
 800b03a:	2700      	movs	r7, #0
 800b03c:	2501      	movs	r5, #1
 800b03e:	b289      	uxth	r1, r1
 800b040:	2308      	movs	r3, #8
 800b042:	e9cd 7300 	strd	r7, r3, [sp]
 800b046:	9102      	str	r1, [sp, #8]
 800b048:	e9cd 7507 	strd	r7, r5, [sp, #28]
 800b04c:	e9cd 7705 	strd	r7, r7, [sp, #20]
 800b050:	e9cd 7703 	strd	r7, r7, [sp, #12]
 800b054:	78a1      	ldrb	r1, [r4, #2]
 800b056:	462b      	mov	r3, r5
 800b058:	465a      	mov	r2, fp
 800b05a:	4628      	mov	r0, r5
 800b05c:	e7d6      	b.n	800b00c <RegionEU868RxConfig+0x88>
 800b05e:	4b07      	ldr	r3, [pc, #28]	; (800b07c <RegionEU868RxConfig+0xf8>)
 800b060:	e7d9      	b.n	800b016 <RegionEU868RxConfig+0x92>
 800b062:	2000      	movs	r0, #0
 800b064:	e7e6      	b.n	800b034 <RegionEU868RxConfig+0xb0>
 800b066:	bf00      	nop
 800b068:	0800ee40 	.word	0x0800ee40
 800b06c:	20001ab4 	.word	0x20001ab4
 800b070:	0800edf3 	.word	0x0800edf3
 800b074:	00014585 	.word	0x00014585
 800b078:	0800ee03 	.word	0x0800ee03
 800b07c:	0800edfb 	.word	0x0800edfb

0800b080 <RegionEU868TxConfig>:
 800b080:	e92d 4ff0 	stmdb	sp!, {r4, r5, r6, r7, r8, r9, sl, fp, lr}
 800b084:	b08d      	sub	sp, #52	; 0x34
 800b086:	f990 3001 	ldrsb.w	r3, [r0, #1]
 800b08a:	f8df a0f8 	ldr.w	sl, [pc, #248]	; 800b184 <RegionEU868TxConfig+0x104>
 800b08e:	f8df 90f8 	ldr.w	r9, [pc, #248]	; 800b188 <RegionEU868TxConfig+0x108>
 800b092:	e9cd 120a 	strd	r1, r2, [sp, #40]	; 0x28
 800b096:	4a3d      	ldr	r2, [pc, #244]	; (800b18c <RegionEU868TxConfig+0x10c>)
 800b098:	7801      	ldrb	r1, [r0, #0]
 800b09a:	f912 b003 	ldrsb.w	fp, [r2, r3]
 800b09e:	f8da 2000 	ldr.w	r2, [sl]
 800b0a2:	4b3b      	ldr	r3, [pc, #236]	; (800b190 <RegionEU868TxConfig+0x110>)
 800b0a4:	250c      	movs	r5, #12
 800b0a6:	fb05 2201 	mla	r2, r5, r1, r2
 800b0aa:	681b      	ldr	r3, [r3, #0]
 800b0ac:	7a52      	ldrb	r2, [r2, #9]
 800b0ae:	2118      	movs	r1, #24
 800b0b0:	fb01 3302 	mla	r3, r1, r2, r3
 800b0b4:	4604      	mov	r4, r0
 800b0b6:	f993 1002 	ldrsb.w	r1, [r3, #2]
 800b0ba:	f990 0002 	ldrsb.w	r0, [r0, #2]
 800b0be:	f7ff fd3b 	bl	800ab38 <RegionCommonLimitTxPower>
 800b0c2:	4934      	ldr	r1, [pc, #208]	; (800b194 <RegionEU868TxConfig+0x114>)
 800b0c4:	4606      	mov	r6, r0
 800b0c6:	f994 0001 	ldrsb.w	r0, [r4, #1]
 800b0ca:	f7ff fd39 	bl	800ab40 <RegionCommonGetBandwidth>
 800b0ce:	68a2      	ldr	r2, [r4, #8]
 800b0d0:	6861      	ldr	r1, [r4, #4]
 800b0d2:	4680      	mov	r8, r0
 800b0d4:	4630      	mov	r0, r6
 800b0d6:	f7ff fc61 	bl	800a99c <RegionCommonComputeTxPower>
 800b0da:	7823      	ldrb	r3, [r4, #0]
 800b0dc:	f8da 2000 	ldr.w	r2, [sl]
 800b0e0:	435d      	muls	r5, r3
 800b0e2:	4607      	mov	r7, r0
 800b0e4:	f8d9 300c 	ldr.w	r3, [r9, #12]
 800b0e8:	5950      	ldr	r0, [r2, r5]
 800b0ea:	4798      	blx	r3
 800b0ec:	f8d9 301c 	ldr.w	r3, [r9, #28]
 800b0f0:	469c      	mov	ip, r3
 800b0f2:	f994 3001 	ldrsb.w	r3, [r4, #1]
 800b0f6:	2500      	movs	r5, #0
 800b0f8:	2b07      	cmp	r3, #7
 800b0fa:	f44f 637a 	mov.w	r3, #4000	; 0xfa0
 800b0fe:	e9cd 5307 	strd	r5, r3, [sp, #28]
 800b102:	e9cd 5505 	strd	r5, r5, [sp, #20]
 800b106:	d12d      	bne.n	800b164 <RegionEU868TxConfig+0xe4>
 800b108:	2301      	movs	r3, #1
 800b10a:	e9cd 5303 	strd	r5, r3, [sp, #12]
 800b10e:	2305      	movs	r3, #5
 800b110:	e9cd 5301 	strd	r5, r3, [sp, #4]
 800b114:	f44f 737a 	mov.w	r3, #1000	; 0x3e8
 800b118:	fb03 f30b 	mul.w	r3, r3, fp
 800b11c:	9300      	str	r3, [sp, #0]
 800b11e:	4639      	mov	r1, r7
 800b120:	4643      	mov	r3, r8
 800b122:	f246 12a8 	movw	r2, #25000	; 0x61a8
 800b126:	4628      	mov	r0, r5
 800b128:	4667      	mov	r7, ip
 800b12a:	47b8      	blx	r7
 800b12c:	7823      	ldrb	r3, [r4, #0]
 800b12e:	f8da 2000 	ldr.w	r2, [sl]
 800b132:	210c      	movs	r1, #12
 800b134:	434b      	muls	r3, r1
 800b136:	f994 1001 	ldrsb.w	r1, [r4, #1]
 800b13a:	58d0      	ldr	r0, [r2, r3]
 800b13c:	f7ff fd13 	bl	800ab66 <RegionCommonTxConfigPrint>
 800b140:	89a1      	ldrh	r1, [r4, #12]
 800b142:	f994 0001 	ldrsb.w	r0, [r4, #1]
 800b146:	f7ff fd0f 	bl	800ab68 <GetTimeOnAir>
 800b14a:	9b0b      	ldr	r3, [sp, #44]	; 0x2c
 800b14c:	7b21      	ldrb	r1, [r4, #12]
 800b14e:	6018      	str	r0, [r3, #0]
 800b150:	f8d9 3054 	ldr.w	r3, [r9, #84]	; 0x54
 800b154:	4628      	mov	r0, r5
 800b156:	4798      	blx	r3
 800b158:	9b0a      	ldr	r3, [sp, #40]	; 0x28
 800b15a:	2001      	movs	r0, #1
 800b15c:	701e      	strb	r6, [r3, #0]
 800b15e:	b00d      	add	sp, #52	; 0x34
 800b160:	e8bd 8ff0 	ldmia.w	sp!, {r4, r5, r6, r7, r8, r9, sl, fp, pc}
 800b164:	2001      	movs	r0, #1
 800b166:	2308      	movs	r3, #8
 800b168:	e9cd 5003 	strd	r5, r0, [sp, #12]
 800b16c:	e9cd 0301 	strd	r0, r3, [sp, #4]
 800b170:	462a      	mov	r2, r5
 800b172:	f8cd b000 	str.w	fp, [sp]
 800b176:	4665      	mov	r5, ip
 800b178:	4643      	mov	r3, r8
 800b17a:	4639      	mov	r1, r7
 800b17c:	47a8      	blx	r5
 800b17e:	2001      	movs	r0, #1
 800b180:	4605      	mov	r5, r0
 800b182:	e7d3      	b.n	800b12c <RegionEU868TxConfig+0xac>
 800b184:	20001ab4 	.word	0x20001ab4
 800b188:	0800ee40 	.word	0x0800ee40
 800b18c:	0800edf3 	.word	0x0800edf3
 800b190:	20001ab0 	.word	0x20001ab0
 800b194:	0800edcc 	.word	0x0800edcc

0800b198 <RegionEU868LinkAdrReq>:
 800b198:	e92d 4ff0 	stmdb	sp!, {r4, r5, r6, r7, r8, r9, sl, fp, lr}
 800b19c:	b08d      	sub	sp, #52	; 0x34
 800b19e:	2400      	movs	r4, #0
 800b1a0:	4605      	mov	r5, r0
 800b1a2:	468a      	mov	sl, r1
 800b1a4:	4691      	mov	r9, r2
 800b1a6:	4698      	mov	r8, r3
 800b1a8:	9402      	str	r4, [sp, #8]
 800b1aa:	f8ad 400c 	strh.w	r4, [sp, #12]
 800b1ae:	f8ad 4006 	strh.w	r4, [sp, #6]
 800b1b2:	2607      	movs	r6, #7
 800b1b4:	f04f 0b01 	mov.w	fp, #1
 800b1b8:	7a2b      	ldrb	r3, [r5, #8]
 800b1ba:	42a3      	cmp	r3, r4
 800b1bc:	d906      	bls.n	800b1cc <RegionEU868LinkAdrReq+0x34>
 800b1be:	6868      	ldr	r0, [r5, #4]
 800b1c0:	a902      	add	r1, sp, #8
 800b1c2:	4420      	add	r0, r4
 800b1c4:	f7ff fb4e 	bl	800a864 <RegionCommonParseLinkAdrReq>
 800b1c8:	2800      	cmp	r0, #0
 800b1ca:	d154      	bne.n	800b276 <RegionEU868LinkAdrReq+0xde>
 800b1cc:	7aab      	ldrb	r3, [r5, #10]
 800b1ce:	f88d 3015 	strb.w	r3, [sp, #21]
 800b1d2:	f89d 3009 	ldrb.w	r3, [sp, #9]
 800b1d6:	f88d 3016 	strb.w	r3, [sp, #22]
 800b1da:	f89d 300a 	ldrb.w	r3, [sp, #10]
 800b1de:	f88d 3017 	strb.w	r3, [sp, #23]
 800b1e2:	f89d 3008 	ldrb.w	r3, [sp, #8]
 800b1e6:	f88d 3018 	strb.w	r3, [sp, #24]
 800b1ea:	7aeb      	ldrb	r3, [r5, #11]
 800b1ec:	f88d 3019 	strb.w	r3, [sp, #25]
 800b1f0:	7b2b      	ldrb	r3, [r5, #12]
 800b1f2:	f88d 301a 	strb.w	r3, [sp, #26]
 800b1f6:	7b6b      	ldrb	r3, [r5, #13]
 800b1f8:	f88d 301b 	strb.w	r3, [sp, #27]
 800b1fc:	2310      	movs	r3, #16
 800b1fe:	f88d 6014 	strb.w	r6, [sp, #20]
 800b202:	f88d 301c 	strb.w	r3, [sp, #28]
 800b206:	4e3a      	ldr	r6, [pc, #232]	; (800b2f0 <RegionEU868LinkAdrReq+0x158>)
 800b208:	f10d 0306 	add.w	r3, sp, #6
 800b20c:	9308      	str	r3, [sp, #32]
 800b20e:	f44f 63e0 	mov.w	r3, #1792	; 0x700
 800b212:	f8ad 3024 	strh.w	r3, [sp, #36]	; 0x24
 800b216:	6833      	ldr	r3, [r6, #0]
 800b218:	930a      	str	r3, [sp, #40]	; 0x28
 800b21a:	2307      	movs	r3, #7
 800b21c:	f8ad 302c 	strh.w	r3, [sp, #44]	; 0x2c
 800b220:	682b      	ldr	r3, [r5, #0]
 800b222:	9304      	str	r3, [sp, #16]
 800b224:	f10d 020a 	add.w	r2, sp, #10
 800b228:	ab02      	add	r3, sp, #8
 800b22a:	f10d 0109 	add.w	r1, sp, #9
 800b22e:	a804      	add	r0, sp, #16
 800b230:	f7ff fb32 	bl	800a898 <RegionCommonLinkAdrReqVerifyParams>
 800b234:	2807      	cmp	r0, #7
 800b236:	4605      	mov	r5, r0
 800b238:	d10b      	bne.n	800b252 <RegionEU868LinkAdrReq+0xba>
 800b23a:	6830      	ldr	r0, [r6, #0]
 800b23c:	220c      	movs	r2, #12
 800b23e:	2100      	movs	r1, #0
 800b240:	f500 6090 	add.w	r0, r0, #1152	; 0x480
 800b244:	f000 fa58 	bl	800b6f8 <memset1>
 800b248:	6833      	ldr	r3, [r6, #0]
 800b24a:	f8bd 2006 	ldrh.w	r2, [sp, #6]
 800b24e:	f8a3 2480 	strh.w	r2, [r3, #1152]	; 0x480
 800b252:	f89d 3009 	ldrb.w	r3, [sp, #9]
 800b256:	f88a 3000 	strb.w	r3, [sl]
 800b25a:	f89d 300a 	ldrb.w	r3, [sp, #10]
 800b25e:	f889 3000 	strb.w	r3, [r9]
 800b262:	f89d 3008 	ldrb.w	r3, [sp, #8]
 800b266:	f888 3000 	strb.w	r3, [r8]
 800b26a:	9b16      	ldr	r3, [sp, #88]	; 0x58
 800b26c:	4628      	mov	r0, r5
 800b26e:	701c      	strb	r4, [r3, #0]
 800b270:	b00d      	add	sp, #52	; 0x34
 800b272:	e8bd 8ff0 	ldmia.w	sp!, {r4, r5, r6, r7, r8, r9, sl, fp, pc}
 800b276:	f89d 300b 	ldrb.w	r3, [sp, #11]
 800b27a:	f8bd 700c 	ldrh.w	r7, [sp, #12]
 800b27e:	f8ad 7006 	strh.w	r7, [sp, #6]
 800b282:	4404      	add	r4, r0
 800b284:	b2e4      	uxtb	r4, r4
 800b286:	b9f3      	cbnz	r3, 800b2c6 <RegionEU868LinkAdrReq+0x12e>
 800b288:	b317      	cbz	r7, 800b2d0 <RegionEU868LinkAdrReq+0x138>
 800b28a:	4a19      	ldr	r2, [pc, #100]	; (800b2f0 <RegionEU868LinkAdrReq+0x158>)
 800b28c:	2000      	movs	r0, #0
 800b28e:	6811      	ldr	r1, [r2, #0]
 800b290:	2607      	movs	r6, #7
 800b292:	4602      	mov	r2, r0
 800b294:	f04f 0c0c 	mov.w	ip, #12
 800b298:	2b06      	cmp	r3, #6
 800b29a:	d11b      	bne.n	800b2d4 <RegionEU868LinkAdrReq+0x13c>
 800b29c:	fb0c fe00 	mul.w	lr, ip, r0
 800b2a0:	f851 e00e 	ldr.w	lr, [r1, lr]
 800b2a4:	f1be 0f00 	cmp.w	lr, #0
 800b2a8:	d004      	beq.n	800b2b4 <RegionEU868LinkAdrReq+0x11c>
 800b2aa:	fa0b f200 	lsl.w	r2, fp, r0
 800b2ae:	4317      	orrs	r7, r2
 800b2b0:	b2bf      	uxth	r7, r7
 800b2b2:	2201      	movs	r2, #1
 800b2b4:	3001      	adds	r0, #1
 800b2b6:	2810      	cmp	r0, #16
 800b2b8:	d1ee      	bne.n	800b298 <RegionEU868LinkAdrReq+0x100>
 800b2ba:	2a00      	cmp	r2, #0
 800b2bc:	f43f af7c 	beq.w	800b1b8 <RegionEU868LinkAdrReq+0x20>
 800b2c0:	f8ad 7006 	strh.w	r7, [sp, #6]
 800b2c4:	e778      	b.n	800b1b8 <RegionEU868LinkAdrReq+0x20>
 800b2c6:	1e5a      	subs	r2, r3, #1
 800b2c8:	2a04      	cmp	r2, #4
 800b2ca:	d901      	bls.n	800b2d0 <RegionEU868LinkAdrReq+0x138>
 800b2cc:	2b06      	cmp	r3, #6
 800b2ce:	d0dc      	beq.n	800b28a <RegionEU868LinkAdrReq+0xf2>
 800b2d0:	2606      	movs	r6, #6
 800b2d2:	e771      	b.n	800b1b8 <RegionEU868LinkAdrReq+0x20>
 800b2d4:	fa47 fe00 	asr.w	lr, r7, r0
 800b2d8:	f01e 0f01 	tst.w	lr, #1
 800b2dc:	d0ea      	beq.n	800b2b4 <RegionEU868LinkAdrReq+0x11c>
 800b2de:	fb0c fe00 	mul.w	lr, ip, r0
 800b2e2:	f851 e00e 	ldr.w	lr, [r1, lr]
 800b2e6:	f1be 0f00 	cmp.w	lr, #0
 800b2ea:	bf08      	it	eq
 800b2ec:	2606      	moveq	r6, #6
 800b2ee:	e7e1      	b.n	800b2b4 <RegionEU868LinkAdrReq+0x11c>
 800b2f0:	20001ab4 	.word	0x20001ab4

0800b2f4 <RegionEU868RxParamSetupReq>:
 800b2f4:	b573      	push	{r0, r1, r4, r5, r6, lr}
 800b2f6:	2600      	movs	r6, #0
 800b2f8:	4605      	mov	r5, r0
 800b2fa:	f10d 0107 	add.w	r1, sp, #7
 800b2fe:	6840      	ldr	r0, [r0, #4]
 800b300:	f88d 6007 	strb.w	r6, [sp, #7]
 800b304:	f7ff fc5a 	bl	800abbc <VerifyRfFreq>
 800b308:	2207      	movs	r2, #7
 800b30a:	42b0      	cmp	r0, r6
 800b30c:	4631      	mov	r1, r6
 800b30e:	f995 0000 	ldrsb.w	r0, [r5]
 800b312:	bf14      	ite	ne
 800b314:	2407      	movne	r4, #7
 800b316:	2406      	moveq	r4, #6
 800b318:	f7ff f944 	bl	800a5a4 <RegionCommonValueInRange>
 800b31c:	b908      	cbnz	r0, 800b322 <RegionEU868RxParamSetupReq+0x2e>
 800b31e:	f004 0405 	and.w	r4, r4, #5
 800b322:	f995 0001 	ldrsb.w	r0, [r5, #1]
 800b326:	2205      	movs	r2, #5
 800b328:	2100      	movs	r1, #0
 800b32a:	f7ff f93b 	bl	800a5a4 <RegionCommonValueInRange>
 800b32e:	b908      	cbnz	r0, 800b334 <RegionEU868RxParamSetupReq+0x40>
 800b330:	f004 04fb 	and.w	r4, r4, #251	; 0xfb
 800b334:	4620      	mov	r0, r4
 800b336:	b002      	add	sp, #8
 800b338:	bd70      	pop	{r4, r5, r6, pc}

0800b33a <RegionEU868TxParamSetupReq>:
 800b33a:	f04f 30ff 	mov.w	r0, #4294967295
 800b33e:	4770      	bx	lr

0800b340 <RegionEU868DlChannelReq>:
 800b340:	b513      	push	{r0, r1, r4, lr}
 800b342:	4604      	mov	r4, r0
 800b344:	2300      	movs	r3, #0
 800b346:	f10d 0107 	add.w	r1, sp, #7
 800b34a:	6840      	ldr	r0, [r0, #4]
 800b34c:	f88d 3007 	strb.w	r3, [sp, #7]
 800b350:	f7ff fc34 	bl	800abbc <VerifyRfFreq>
 800b354:	7823      	ldrb	r3, [r4, #0]
 800b356:	4a0b      	ldr	r2, [pc, #44]	; (800b384 <RegionEU868DlChannelReq+0x44>)
 800b358:	eb03 0343 	add.w	r3, r3, r3, lsl #1
 800b35c:	6812      	ldr	r2, [r2, #0]
 800b35e:	eb02 0183 	add.w	r1, r2, r3, lsl #2
 800b362:	f852 3023 	ldr.w	r3, [r2, r3, lsl #2]
 800b366:	2800      	cmp	r0, #0
 800b368:	bf14      	ite	ne
 800b36a:	2003      	movne	r0, #3
 800b36c:	2002      	moveq	r0, #2
 800b36e:	b91b      	cbnz	r3, 800b378 <RegionEU868DlChannelReq+0x38>
 800b370:	f000 0001 	and.w	r0, r0, #1
 800b374:	b002      	add	sp, #8
 800b376:	bd10      	pop	{r4, pc}
 800b378:	2803      	cmp	r0, #3
 800b37a:	bf06      	itte	eq
 800b37c:	6863      	ldreq	r3, [r4, #4]
 800b37e:	604b      	streq	r3, [r1, #4]
 800b380:	2002      	movne	r0, #2
 800b382:	e7f7      	b.n	800b374 <RegionEU868DlChannelReq+0x34>
 800b384:	20001ab4 	.word	0x20001ab4

0800b388 <RegionEU868AlternateDr>:
 800b388:	4770      	bx	lr
	...

0800b38c <RegionEU868NextChannel>:
 800b38c:	e92d 41f0 	stmdb	sp!, {r4, r5, r6, r7, r8, lr}
 800b390:	4d3a      	ldr	r5, [pc, #232]	; (800b47c <RegionEU868NextChannel+0xf0>)
 800b392:	4604      	mov	r4, r0
 800b394:	6828      	ldr	r0, [r5, #0]
 800b396:	b096      	sub	sp, #88	; 0x58
 800b398:	460e      	mov	r6, r1
 800b39a:	4690      	mov	r8, r2
 800b39c:	2100      	movs	r1, #0
 800b39e:	461f      	mov	r7, r3
 800b3a0:	2201      	movs	r2, #1
 800b3a2:	2307      	movs	r3, #7
 800b3a4:	f500 6090 	add.w	r0, r0, #1152	; 0x480
 800b3a8:	e9cd 1104 	strd	r1, r1, [sp, #16]
 800b3ac:	e9cd 1106 	strd	r1, r1, [sp, #24]
 800b3b0:	f88d 100c 	strb.w	r1, [sp, #12]
 800b3b4:	f88d 100d 	strb.w	r1, [sp, #13]
 800b3b8:	f8ad 300e 	strh.w	r3, [sp, #14]
 800b3bc:	f7ff f914 	bl	800a5e8 <RegionCommonCountChannels>
 800b3c0:	b930      	cbnz	r0, 800b3d0 <RegionEU868NextChannel+0x44>
 800b3c2:	682a      	ldr	r2, [r5, #0]
 800b3c4:	f8b2 3480 	ldrh.w	r3, [r2, #1152]	; 0x480
 800b3c8:	f043 0307 	orr.w	r3, r3, #7
 800b3cc:	f8a2 3480 	strh.w	r3, [r2, #1152]	; 0x480
 800b3d0:	682a      	ldr	r2, [r5, #0]
 800b3d2:	7a63      	ldrb	r3, [r4, #9]
 800b3d4:	f88d 3020 	strb.w	r3, [sp, #32]
 800b3d8:	f502 6190 	add.w	r1, r2, #1152	; 0x480
 800b3dc:	e9cd 1209 	strd	r1, r2, [sp, #36]	; 0x24
 800b3e0:	4a27      	ldr	r2, [pc, #156]	; (800b480 <RegionEU868NextChannel+0xf4>)
 800b3e2:	f994 3008 	ldrsb.w	r3, [r4, #8]
 800b3e6:	6812      	ldr	r2, [r2, #0]
 800b3e8:	920b      	str	r2, [sp, #44]	; 0x2c
 800b3ea:	2210      	movs	r2, #16
 800b3ec:	f8ad 2030 	strh.w	r2, [sp, #48]	; 0x30
 800b3f0:	f10d 020e 	add.w	r2, sp, #14
 800b3f4:	920d      	str	r2, [sp, #52]	; 0x34
 800b3f6:	6822      	ldr	r2, [r4, #0]
 800b3f8:	920e      	str	r2, [sp, #56]	; 0x38
 800b3fa:	6862      	ldr	r2, [r4, #4]
 800b3fc:	920f      	str	r2, [sp, #60]	; 0x3c
 800b3fe:	e9d4 0103 	ldrd	r0, r1, [r4, #12]
 800b402:	7aa2      	ldrb	r2, [r4, #10]
 800b404:	f88d 2040 	strb.w	r2, [sp, #64]	; 0x40
 800b408:	2206      	movs	r2, #6
 800b40a:	f88d 2041 	strb.w	r2, [sp, #65]	; 0x41
 800b40e:	aa11      	add	r2, sp, #68	; 0x44
 800b410:	e882 0003 	stmia.w	r2, {r0, r1}
 800b414:	7d22      	ldrb	r2, [r4, #20]
 800b416:	8ae1      	ldrh	r1, [r4, #22]
 800b418:	f88d 3021 	strb.w	r3, [sp, #33]	; 0x21
 800b41c:	4618      	mov	r0, r3
 800b41e:	f88d 204c 	strb.w	r2, [sp, #76]	; 0x4c
 800b422:	f7ff fba1 	bl	800ab68 <GetTimeOnAir>
 800b426:	ab08      	add	r3, sp, #32
 800b428:	9315      	str	r3, [sp, #84]	; 0x54
 800b42a:	f10d 030d 	add.w	r3, sp, #13
 800b42e:	9014      	str	r0, [sp, #80]	; 0x50
 800b430:	9300      	str	r3, [sp, #0]
 800b432:	f8cd 8004 	str.w	r8, [sp, #4]
 800b436:	ab03      	add	r3, sp, #12
 800b438:	aa04      	add	r2, sp, #16
 800b43a:	4639      	mov	r1, r7
 800b43c:	a80e      	add	r0, sp, #56	; 0x38
 800b43e:	f7ff fb1c 	bl	800aa7a <RegionCommonIdentifyChannels>
 800b442:	4604      	mov	r4, r0
 800b444:	b978      	cbnz	r0, 800b466 <RegionEU868NextChannel+0xda>
 800b446:	f89d 100c 	ldrb.w	r1, [sp, #12]
 800b44a:	3901      	subs	r1, #1
 800b44c:	f000 f924 	bl	800b698 <randr>
 800b450:	f100 0358 	add.w	r3, r0, #88	; 0x58
 800b454:	eb0d 0003 	add.w	r0, sp, r3
 800b458:	f810 3c48 	ldrb.w	r3, [r0, #-72]
 800b45c:	7033      	strb	r3, [r6, #0]
 800b45e:	4620      	mov	r0, r4
 800b460:	b016      	add	sp, #88	; 0x58
 800b462:	e8bd 81f0 	ldmia.w	sp!, {r4, r5, r6, r7, r8, pc}
 800b466:	280c      	cmp	r0, #12
 800b468:	bf01      	itttt	eq
 800b46a:	682a      	ldreq	r2, [r5, #0]
 800b46c:	f8b2 3480 	ldrheq.w	r3, [r2, #1152]	; 0x480
 800b470:	f043 0307 	orreq.w	r3, r3, #7
 800b474:	f8a2 3480 	strheq.w	r3, [r2, #1152]	; 0x480
 800b478:	e7f1      	b.n	800b45e <RegionEU868NextChannel+0xd2>
 800b47a:	bf00      	nop
 800b47c:	20001ab4 	.word	0x20001ab4
 800b480:	20001ab0 	.word	0x20001ab0

0800b484 <RegionEU868ChannelAdd>:
 800b484:	b5f7      	push	{r0, r1, r2, r4, r5, r6, r7, lr}
 800b486:	7906      	ldrb	r6, [r0, #4]
 800b488:	2700      	movs	r7, #0
 800b48a:	2e02      	cmp	r6, #2
 800b48c:	4605      	mov	r5, r0
 800b48e:	f88d 7007 	strb.w	r7, [sp, #7]
 800b492:	d802      	bhi.n	800b49a <RegionEU868ChannelAdd+0x16>
 800b494:	2006      	movs	r0, #6
 800b496:	b003      	add	sp, #12
 800b498:	bdf0      	pop	{r4, r5, r6, r7, pc}
 800b49a:	2e0f      	cmp	r6, #15
 800b49c:	d82d      	bhi.n	800b4fa <RegionEU868ChannelAdd+0x76>
 800b49e:	6803      	ldr	r3, [r0, #0]
 800b4a0:	7a18      	ldrb	r0, [r3, #8]
 800b4a2:	f340 0003 	sbfx	r0, r0, #0, #4
 800b4a6:	2207      	movs	r2, #7
 800b4a8:	4639      	mov	r1, r7
 800b4aa:	b240      	sxtb	r0, r0
 800b4ac:	f7ff f87a 	bl	800a5a4 <RegionCommonValueInRange>
 800b4b0:	682b      	ldr	r3, [r5, #0]
 800b4b2:	4604      	mov	r4, r0
 800b4b4:	7a18      	ldrb	r0, [r3, #8]
 800b4b6:	f340 1003 	sbfx	r0, r0, #4, #4
 800b4ba:	2207      	movs	r2, #7
 800b4bc:	4639      	mov	r1, r7
 800b4be:	b240      	sxtb	r0, r0
 800b4c0:	f7ff f870 	bl	800a5a4 <RegionCommonValueInRange>
 800b4c4:	b1b8      	cbz	r0, 800b4f6 <RegionEU868ChannelAdd+0x72>
 800b4c6:	fab4 f484 	clz	r4, r4
 800b4ca:	0964      	lsrs	r4, r4, #5
 800b4cc:	6828      	ldr	r0, [r5, #0]
 800b4ce:	7a03      	ldrb	r3, [r0, #8]
 800b4d0:	6800      	ldr	r0, [r0, #0]
 800b4d2:	f343 0203 	sbfx	r2, r3, #0, #4
 800b4d6:	f343 1303 	sbfx	r3, r3, #4, #4
 800b4da:	b252      	sxtb	r2, r2
 800b4dc:	b25b      	sxtb	r3, r3
 800b4de:	f10d 0107 	add.w	r1, sp, #7
 800b4e2:	429a      	cmp	r2, r3
 800b4e4:	bfc8      	it	gt
 800b4e6:	2401      	movgt	r4, #1
 800b4e8:	f7ff fb68 	bl	800abbc <VerifyRfFreq>
 800b4ec:	b948      	cbnz	r0, 800b502 <RegionEU868ChannelAdd+0x7e>
 800b4ee:	2c00      	cmp	r4, #0
 800b4f0:	d1d0      	bne.n	800b494 <RegionEU868ChannelAdd+0x10>
 800b4f2:	2004      	movs	r0, #4
 800b4f4:	e7cf      	b.n	800b496 <RegionEU868ChannelAdd+0x12>
 800b4f6:	2401      	movs	r4, #1
 800b4f8:	e7e8      	b.n	800b4cc <RegionEU868ChannelAdd+0x48>
 800b4fa:	2003      	movs	r0, #3
 800b4fc:	e7cb      	b.n	800b496 <RegionEU868ChannelAdd+0x12>
 800b4fe:	2005      	movs	r0, #5
 800b500:	e7c9      	b.n	800b496 <RegionEU868ChannelAdd+0x12>
 800b502:	2c00      	cmp	r4, #0
 800b504:	d1fb      	bne.n	800b4fe <RegionEU868ChannelAdd+0x7a>
 800b506:	4f0d      	ldr	r7, [pc, #52]	; (800b53c <RegionEU868ChannelAdd+0xb8>)
 800b508:	6829      	ldr	r1, [r5, #0]
 800b50a:	683b      	ldr	r3, [r7, #0]
 800b50c:	eb06 0046 	add.w	r0, r6, r6, lsl #1
 800b510:	eb03 0080 	add.w	r0, r3, r0, lsl #2
 800b514:	220c      	movs	r2, #12
 800b516:	f000 f8db 	bl	800b6d0 <memcpy1>
 800b51a:	683a      	ldr	r2, [r7, #0]
 800b51c:	f89d 1007 	ldrb.w	r1, [sp, #7]
 800b520:	230c      	movs	r3, #12
 800b522:	fb03 2306 	mla	r3, r3, r6, r2
 800b526:	4620      	mov	r0, r4
 800b528:	7259      	strb	r1, [r3, #9]
 800b52a:	2301      	movs	r3, #1
 800b52c:	fa03 f606 	lsl.w	r6, r3, r6
 800b530:	f8b2 3480 	ldrh.w	r3, [r2, #1152]	; 0x480
 800b534:	431e      	orrs	r6, r3
 800b536:	f8a2 6480 	strh.w	r6, [r2, #1152]	; 0x480
 800b53a:	e7ac      	b.n	800b496 <RegionEU868ChannelAdd+0x12>
 800b53c:	20001ab4 	.word	0x20001ab4

0800b540 <RegionEU868ChannelsRemove>:
 800b540:	b410      	push	{r4}
 800b542:	7801      	ldrb	r1, [r0, #0]
 800b544:	2902      	cmp	r1, #2
 800b546:	d90e      	bls.n	800b566 <RegionEU868ChannelsRemove+0x26>
 800b548:	4b08      	ldr	r3, [pc, #32]	; (800b56c <RegionEU868ChannelsRemove+0x2c>)
 800b54a:	6818      	ldr	r0, [r3, #0]
 800b54c:	230c      	movs	r3, #12
 800b54e:	434b      	muls	r3, r1
 800b550:	18c4      	adds	r4, r0, r3
 800b552:	2200      	movs	r2, #0
 800b554:	50c2      	str	r2, [r0, r3]
 800b556:	e9c4 2201 	strd	r2, r2, [r4, #4]
 800b55a:	f500 6090 	add.w	r0, r0, #1152	; 0x480
 800b55e:	bc10      	pop	{r4}
 800b560:	2210      	movs	r2, #16
 800b562:	f7ff b828 	b.w	800a5b6 <RegionCommonChanDisable>
 800b566:	2000      	movs	r0, #0
 800b568:	bc10      	pop	{r4}
 800b56a:	4770      	bx	lr
 800b56c:	20001ab4 	.word	0x20001ab4

0800b570 <RegionEU868ApplyCFList>:
 800b570:	e92d 41f0 	stmdb	sp!, {r4, r5, r6, r7, r8, lr}
 800b574:	b086      	sub	sp, #24
 800b576:	2350      	movs	r3, #80	; 0x50
 800b578:	f88d 3014 	strb.w	r3, [sp, #20]
 800b57c:	7903      	ldrb	r3, [r0, #4]
 800b57e:	2b10      	cmp	r3, #16
 800b580:	4607      	mov	r7, r0
 800b582:	d130      	bne.n	800b5e6 <RegionEU868ApplyCFList+0x76>
 800b584:	6803      	ldr	r3, [r0, #0]
 800b586:	7bdd      	ldrb	r5, [r3, #15]
 800b588:	bb6d      	cbnz	r5, 800b5e6 <RegionEU868ApplyCFList+0x76>
 800b58a:	2403      	movs	r4, #3
 800b58c:	46a8      	mov	r8, r5
 800b58e:	2664      	movs	r6, #100	; 0x64
 800b590:	2c07      	cmp	r4, #7
 800b592:	d814      	bhi.n	800b5be <RegionEU868ApplyCFList+0x4e>
 800b594:	683a      	ldr	r2, [r7, #0]
 800b596:	5d53      	ldrb	r3, [r2, r5]
 800b598:	9303      	str	r3, [sp, #12]
 800b59a:	442a      	add	r2, r5
 800b59c:	7851      	ldrb	r1, [r2, #1]
 800b59e:	ea43 2301 	orr.w	r3, r3, r1, lsl #8
 800b5a2:	9303      	str	r3, [sp, #12]
 800b5a4:	7892      	ldrb	r2, [r2, #2]
 800b5a6:	ea43 4302 	orr.w	r3, r3, r2, lsl #16
 800b5aa:	4373      	muls	r3, r6
 800b5ac:	e9cd 3803 	strd	r3, r8, [sp, #12]
 800b5b0:	b963      	cbnz	r3, 800b5cc <RegionEU868ApplyCFList+0x5c>
 800b5b2:	4668      	mov	r0, sp
 800b5b4:	f88d 4000 	strb.w	r4, [sp]
 800b5b8:	f7ff ffc2 	bl	800b540 <RegionEU868ChannelsRemove>
 800b5bc:	e00d      	b.n	800b5da <RegionEU868ApplyCFList+0x6a>
 800b5be:	f8cd 800c 	str.w	r8, [sp, #12]
 800b5c2:	f88d 8014 	strb.w	r8, [sp, #20]
 800b5c6:	f8cd 8010 	str.w	r8, [sp, #16]
 800b5ca:	e7f2      	b.n	800b5b2 <RegionEU868ApplyCFList+0x42>
 800b5cc:	ab03      	add	r3, sp, #12
 800b5ce:	a801      	add	r0, sp, #4
 800b5d0:	9301      	str	r3, [sp, #4]
 800b5d2:	f88d 4008 	strb.w	r4, [sp, #8]
 800b5d6:	f7ff ff55 	bl	800b484 <RegionEU868ChannelAdd>
 800b5da:	3401      	adds	r4, #1
 800b5dc:	b2e4      	uxtb	r4, r4
 800b5de:	2c10      	cmp	r4, #16
 800b5e0:	f105 0503 	add.w	r5, r5, #3
 800b5e4:	d1d4      	bne.n	800b590 <RegionEU868ApplyCFList+0x20>
 800b5e6:	b006      	add	sp, #24
 800b5e8:	e8bd 81f0 	ldmia.w	sp!, {r4, r5, r6, r7, r8, pc}

0800b5ec <RegionEU868NewChannelReq>:
 800b5ec:	b51f      	push	{r0, r1, r2, r3, r4, lr}
 800b5ee:	6802      	ldr	r2, [r0, #0]
 800b5f0:	7903      	ldrb	r3, [r0, #4]
 800b5f2:	6811      	ldr	r1, [r2, #0]
 800b5f4:	b951      	cbnz	r1, 800b60c <RegionEU868NewChannelReq+0x20>
 800b5f6:	a801      	add	r0, sp, #4
 800b5f8:	f88d 3004 	strb.w	r3, [sp, #4]
 800b5fc:	f7ff ffa0 	bl	800b540 <RegionEU868ChannelsRemove>
 800b600:	b978      	cbnz	r0, 800b622 <RegionEU868NewChannelReq+0x36>
 800b602:	2000      	movs	r0, #0
 800b604:	b240      	sxtb	r0, r0
 800b606:	b005      	add	sp, #20
 800b608:	f85d fb04 	ldr.w	pc, [sp], #4
 800b60c:	a802      	add	r0, sp, #8
 800b60e:	9202      	str	r2, [sp, #8]
 800b610:	f88d 300c 	strb.w	r3, [sp, #12]
 800b614:	f7ff ff36 	bl	800b484 <RegionEU868ChannelAdd>
 800b618:	2806      	cmp	r0, #6
 800b61a:	d8f2      	bhi.n	800b602 <RegionEU868NewChannelReq+0x16>
 800b61c:	4b02      	ldr	r3, [pc, #8]	; (800b628 <RegionEU868NewChannelReq+0x3c>)
 800b61e:	5c18      	ldrb	r0, [r3, r0]
 800b620:	e7f0      	b.n	800b604 <RegionEU868NewChannelReq+0x18>
 800b622:	2003      	movs	r0, #3
 800b624:	e7ee      	b.n	800b604 <RegionEU868NewChannelReq+0x18>
 800b626:	bf00      	nop
 800b628:	0800edec 	.word	0x0800edec

0800b62c <RegionEU868SetContinuousWave>:
 800b62c:	b570      	push	{r4, r5, r6, lr}
 800b62e:	4b11      	ldr	r3, [pc, #68]	; (800b674 <RegionEU868SetContinuousWave+0x48>)
 800b630:	4e11      	ldr	r6, [pc, #68]	; (800b678 <RegionEU868SetContinuousWave+0x4c>)
 800b632:	681a      	ldr	r2, [r3, #0]
 800b634:	6831      	ldr	r1, [r6, #0]
 800b636:	7803      	ldrb	r3, [r0, #0]
 800b638:	250c      	movs	r5, #12
 800b63a:	fb05 1103 	mla	r1, r5, r3, r1
 800b63e:	4604      	mov	r4, r0
 800b640:	7a4b      	ldrb	r3, [r1, #9]
 800b642:	f990 0002 	ldrsb.w	r0, [r0, #2]
 800b646:	2118      	movs	r1, #24
 800b648:	fb01 2203 	mla	r2, r1, r3, r2
 800b64c:	f992 1002 	ldrsb.w	r1, [r2, #2]
 800b650:	f7ff fa72 	bl	800ab38 <RegionCommonLimitTxPower>
 800b654:	7823      	ldrb	r3, [r4, #0]
 800b656:	6832      	ldr	r2, [r6, #0]
 800b658:	6861      	ldr	r1, [r4, #4]
 800b65a:	436b      	muls	r3, r5
 800b65c:	58d5      	ldr	r5, [r2, r3]
 800b65e:	68a2      	ldr	r2, [r4, #8]
 800b660:	f7ff f99c 	bl	800a99c <RegionCommonComputeTxPower>
 800b664:	4b05      	ldr	r3, [pc, #20]	; (800b67c <RegionEU868SetContinuousWave+0x50>)
 800b666:	89a2      	ldrh	r2, [r4, #12]
 800b668:	6bdb      	ldr	r3, [r3, #60]	; 0x3c
 800b66a:	4601      	mov	r1, r0
 800b66c:	4628      	mov	r0, r5
 800b66e:	e8bd 4070 	ldmia.w	sp!, {r4, r5, r6, lr}
 800b672:	4718      	bx	r3
 800b674:	20001ab0 	.word	0x20001ab0
 800b678:	20001ab4 	.word	0x20001ab4
 800b67c:	0800ee40 	.word	0x0800ee40

0800b680 <RegionEU868ApplyDrOffset>:
 800b680:	1a88      	subs	r0, r1, r2
 800b682:	b240      	sxtb	r0, r0
 800b684:	ea20 70e0 	bic.w	r0, r0, r0, asr #31
 800b688:	b2c0      	uxtb	r0, r0
 800b68a:	4770      	bx	lr

0800b68c <srand1>:
 800b68c:	4b01      	ldr	r3, [pc, #4]	; (800b694 <srand1+0x8>)
 800b68e:	6018      	str	r0, [r3, #0]
 800b690:	4770      	bx	lr
 800b692:	bf00      	nop
 800b694:	20000114 	.word	0x20000114

0800b698 <randr>:
 800b698:	4a0b      	ldr	r2, [pc, #44]	; (800b6c8 <randr+0x30>)
 800b69a:	b530      	push	{r4, r5, lr}
 800b69c:	6814      	ldr	r4, [r2, #0]
 800b69e:	4d0b      	ldr	r5, [pc, #44]	; (800b6cc <randr+0x34>)
 800b6a0:	f243 0339 	movw	r3, #12345	; 0x3039
 800b6a4:	fb05 3304 	mla	r3, r5, r4, r3
 800b6a8:	6013      	str	r3, [r2, #0]
 800b6aa:	1a09      	subs	r1, r1, r0
 800b6ac:	f06f 4200 	mvn.w	r2, #2147483648	; 0x80000000
 800b6b0:	fbb3 f2f2 	udiv	r2, r3, r2
 800b6b4:	ebc2 72c2 	rsb	r2, r2, r2, lsl #31
 800b6b8:	3101      	adds	r1, #1
 800b6ba:	1a9b      	subs	r3, r3, r2
 800b6bc:	fb93 f2f1 	sdiv	r2, r3, r1
 800b6c0:	fb01 3312 	mls	r3, r1, r2, r3
 800b6c4:	4418      	add	r0, r3
 800b6c6:	bd30      	pop	{r4, r5, pc}
 800b6c8:	20000114 	.word	0x20000114
 800b6cc:	41c64e6d 	.word	0x41c64e6d

0800b6d0 <memcpy1>:
 800b6d0:	3801      	subs	r0, #1
 800b6d2:	440a      	add	r2, r1
 800b6d4:	4291      	cmp	r1, r2
 800b6d6:	d100      	bne.n	800b6da <memcpy1+0xa>
 800b6d8:	4770      	bx	lr
 800b6da:	f811 3b01 	ldrb.w	r3, [r1], #1
 800b6de:	f800 3f01 	strb.w	r3, [r0, #1]!
 800b6e2:	e7f7      	b.n	800b6d4 <memcpy1+0x4>

0800b6e4 <memcpyr>:
 800b6e4:	4410      	add	r0, r2
 800b6e6:	440a      	add	r2, r1
 800b6e8:	4291      	cmp	r1, r2
 800b6ea:	d100      	bne.n	800b6ee <memcpyr+0xa>
 800b6ec:	4770      	bx	lr
 800b6ee:	f811 3b01 	ldrb.w	r3, [r1], #1
 800b6f2:	f800 3d01 	strb.w	r3, [r0, #-1]!
 800b6f6:	e7f7      	b.n	800b6e8 <memcpyr+0x4>

0800b6f8 <memset1>:
 800b6f8:	f002 bbe0 	b.w	800debc <memset>

0800b6fc <Crc32>:
 800b6fc:	b530      	push	{r4, r5, lr}
 800b6fe:	b130      	cbz	r0, 800b70e <Crc32+0x12>
 800b700:	4d0a      	ldr	r5, [pc, #40]	; (800b72c <Crc32+0x30>)
 800b702:	4401      	add	r1, r0
 800b704:	f04f 33ff 	mov.w	r3, #4294967295
 800b708:	4281      	cmp	r1, r0
 800b70a:	d101      	bne.n	800b710 <Crc32+0x14>
 800b70c:	43d8      	mvns	r0, r3
 800b70e:	bd30      	pop	{r4, r5, pc}
 800b710:	f810 2b01 	ldrb.w	r2, [r0], #1
 800b714:	4053      	eors	r3, r2
 800b716:	2208      	movs	r2, #8
 800b718:	f343 0400 	sbfx	r4, r3, #0, #1
 800b71c:	3a01      	subs	r2, #1
 800b71e:	402c      	ands	r4, r5
 800b720:	b292      	uxth	r2, r2
 800b722:	ea84 0353 	eor.w	r3, r4, r3, lsr #1
 800b726:	2a00      	cmp	r2, #0
 800b728:	d1f6      	bne.n	800b718 <Crc32+0x1c>
 800b72a:	e7ed      	b.n	800b708 <Crc32+0xc>
 800b72c:	edb88320 	.word	0xedb88320

0800b730 <RadioCheckRfFrequency>:
 800b730:	2001      	movs	r0, #1
 800b732:	4770      	bx	lr

0800b734 <RadioOnTxTimeoutIrq>:
 800b734:	4b03      	ldr	r3, [pc, #12]	; (800b744 <RadioOnTxTimeoutIrq+0x10>)
 800b736:	681b      	ldr	r3, [r3, #0]
 800b738:	b113      	cbz	r3, 800b740 <RadioOnTxTimeoutIrq+0xc>
 800b73a:	685b      	ldr	r3, [r3, #4]
 800b73c:	b103      	cbz	r3, 800b740 <RadioOnTxTimeoutIrq+0xc>
 800b73e:	4718      	bx	r3
 800b740:	4770      	bx	lr
 800b742:	bf00      	nop
 800b744:	20001bb8 	.word	0x20001bb8

0800b748 <RadioOnRxTimeoutIrq>:
 800b748:	4b03      	ldr	r3, [pc, #12]	; (800b758 <RadioOnRxTimeoutIrq+0x10>)
 800b74a:	681b      	ldr	r3, [r3, #0]
 800b74c:	b113      	cbz	r3, 800b754 <RadioOnRxTimeoutIrq+0xc>
 800b74e:	68db      	ldr	r3, [r3, #12]
 800b750:	b103      	cbz	r3, 800b754 <RadioOnRxTimeoutIrq+0xc>
 800b752:	4718      	bx	r3
 800b754:	4770      	bx	lr
 800b756:	bf00      	nop
 800b758:	20001bb8 	.word	0x20001bb8

0800b75c <RadioRead>:
 800b75c:	f001 bb4a 	b.w	800cdf4 <SUBGRF_ReadRegister>

0800b760 <RadioWrite>:
 800b760:	f001 ba78 	b.w	800cc54 <SUBGRF_WriteRegister>

0800b764 <RadioTxCw>:
 800b764:	b508      	push	{r3, lr}
 800b766:	f001 fdc6 	bl	800d2f6 <SUBGRF_SetRfTxPower>
 800b76a:	2101      	movs	r1, #1
 800b76c:	f001 fdad 	bl	800d2ca <SUBGRF_SetSwitch>
 800b770:	e8bd 4008 	ldmia.w	sp!, {r3, lr}
 800b774:	f001 b93c 	b.w	800c9f0 <SUBGRF_SetTxContinuousWave>

0800b778 <RadioSetRxDutyCycle>:
 800b778:	b570      	push	{r4, r5, r6, lr}
 800b77a:	4e0c      	ldr	r6, [pc, #48]	; (800b7ac <RadioSetRxDutyCycle+0x34>)
 800b77c:	eb01 0340 	add.w	r3, r1, r0, lsl #1
 800b780:	460d      	mov	r5, r1
 800b782:	65b3      	str	r3, [r6, #88]	; 0x58
 800b784:	f64f 71ff 	movw	r1, #65535	; 0xffff
 800b788:	2300      	movs	r3, #0
 800b78a:	4604      	mov	r4, r0
 800b78c:	461a      	mov	r2, r3
 800b78e:	4608      	mov	r0, r1
 800b790:	f001 f9b2 	bl	800caf8 <SUBGRF_SetDioIrqParams>
 800b794:	f896 0056 	ldrb.w	r0, [r6, #86]	; 0x56
 800b798:	2100      	movs	r1, #0
 800b79a:	f001 fd96 	bl	800d2ca <SUBGRF_SetSwitch>
 800b79e:	4629      	mov	r1, r5
 800b7a0:	4620      	mov	r0, r4
 800b7a2:	e8bd 4070 	ldmia.w	sp!, {r4, r5, r6, lr}
 800b7a6:	f001 b8f9 	b.w	800c99c <SUBGRF_SetRxDutyCycle>
 800b7aa:	bf00      	nop
 800b7ac:	20001bd4 	.word	0x20001bd4

0800b7b0 <RadioRxBoosted>:
 800b7b0:	b510      	push	{r4, lr}
 800b7b2:	4604      	mov	r4, r0
 800b7b4:	f001 fe56 	bl	800d464 <RFW_Is_Init>
 800b7b8:	2801      	cmp	r0, #1
 800b7ba:	d118      	bne.n	800b7ee <RadioRxBoosted+0x3e>
 800b7bc:	f001 fe5a 	bl	800d474 <RFW_ReceiveInit>
 800b7c0:	b134      	cbz	r4, 800b7d0 <RadioRxBoosted+0x20>
 800b7c2:	4810      	ldr	r0, [pc, #64]	; (800b804 <RadioRxBoosted+0x54>)
 800b7c4:	4621      	mov	r1, r4
 800b7c6:	f002 fa79 	bl	800dcbc <UTIL_TIMER_SetPeriod>
 800b7ca:	480e      	ldr	r0, [pc, #56]	; (800b804 <RadioRxBoosted+0x54>)
 800b7cc:	f002 fa3c 	bl	800dc48 <UTIL_TIMER_Start>
 800b7d0:	4c0d      	ldr	r4, [pc, #52]	; (800b808 <RadioRxBoosted+0x58>)
 800b7d2:	2100      	movs	r1, #0
 800b7d4:	f894 0056 	ldrb.w	r0, [r4, #86]	; 0x56
 800b7d8:	65a1      	str	r1, [r4, #88]	; 0x58
 800b7da:	f001 fd76 	bl	800d2ca <SUBGRF_SetSwitch>
 800b7de:	7863      	ldrb	r3, [r4, #1]
 800b7e0:	b16b      	cbz	r3, 800b7fe <RadioRxBoosted+0x4e>
 800b7e2:	f06f 407f 	mvn.w	r0, #4278190080	; 0xff000000
 800b7e6:	e8bd 4010 	ldmia.w	sp!, {r4, lr}
 800b7ea:	f001 ba43 	b.w	800cc74 <SUBGRF_SetRxBoosted>
 800b7ee:	2300      	movs	r3, #0
 800b7f0:	f240 2162 	movw	r1, #610	; 0x262
 800b7f4:	461a      	mov	r2, r3
 800b7f6:	4608      	mov	r0, r1
 800b7f8:	f001 f97e 	bl	800caf8 <SUBGRF_SetDioIrqParams>
 800b7fc:	e7e0      	b.n	800b7c0 <RadioRxBoosted+0x10>
 800b7fe:	68a0      	ldr	r0, [r4, #8]
 800b800:	0180      	lsls	r0, r0, #6
 800b802:	e7f0      	b.n	800b7e6 <RadioRxBoosted+0x36>
 800b804:	20001bbc 	.word	0x20001bbc
 800b808:	20001bd4 	.word	0x20001bd4

0800b80c <RadioStandby>:
 800b80c:	2000      	movs	r0, #0
 800b80e:	f001 b883 	b.w	800c918 <SUBGRF_SetStandby>
	...

0800b814 <RadioGetStatus>:
 800b814:	b508      	push	{r3, lr}
 800b816:	f001 f879 	bl	800c90c <SUBGRF_GetOperatingMode>
 800b81a:	3804      	subs	r0, #4
 800b81c:	b2c0      	uxtb	r0, r0
 800b81e:	2803      	cmp	r0, #3
 800b820:	bf96      	itet	ls
 800b822:	4b02      	ldrls	r3, [pc, #8]	; (800b82c <RadioGetStatus+0x18>)
 800b824:	2000      	movhi	r0, #0
 800b826:	5c18      	ldrbls	r0, [r3, r0]
 800b828:	bd08      	pop	{r3, pc}
 800b82a:	bf00      	nop
 800b82c:	0800ee3c 	.word	0x0800ee3c

0800b830 <RadioGetWakeupTime>:
 800b830:	b508      	push	{r3, lr}
 800b832:	f001 fd75 	bl	800d320 <SUBGRF_GetRadioWakeUpTime>
 800b836:	3003      	adds	r0, #3
 800b838:	bd08      	pop	{r3, pc}

0800b83a <RadioReadRegisters>:
 800b83a:	f001 bcbb 	b.w	800d1b4 <SUBGRF_ReadRegisters>

0800b83e <RadioWriteRegisters>:
 800b83e:	f001 bc05 	b.w	800d04c <SUBGRF_WriteRegisters>

0800b842 <RadioRssi>:
 800b842:	b508      	push	{r3, lr}
 800b844:	f001 f9bd 	bl	800cbc2 <SUBGRF_GetRssiInst>
 800b848:	b200      	sxth	r0, r0
 800b84a:	bd08      	pop	{r3, pc}

0800b84c <RadioSetTxContinuousWave>:
 800b84c:	b538      	push	{r3, r4, r5, lr}
 800b84e:	460d      	mov	r5, r1
 800b850:	4614      	mov	r4, r2
 800b852:	f001 f983 	bl	800cb5c <SUBGRF_SetRfFrequency>
 800b856:	4628      	mov	r0, r5
 800b858:	f001 fd4d 	bl	800d2f6 <SUBGRF_SetRfTxPower>
 800b85c:	4d08      	ldr	r5, [pc, #32]	; (800b880 <RadioSetTxContinuousWave+0x34>)
 800b85e:	2101      	movs	r1, #1
 800b860:	f001 fd33 	bl	800d2ca <SUBGRF_SetSwitch>
 800b864:	f001 f8c4 	bl	800c9f0 <SUBGRF_SetTxContinuousWave>
 800b868:	f44f 717a 	mov.w	r1, #1000	; 0x3e8
 800b86c:	4361      	muls	r1, r4
 800b86e:	4628      	mov	r0, r5
 800b870:	f002 fa24 	bl	800dcbc <UTIL_TIMER_SetPeriod>
 800b874:	4628      	mov	r0, r5
 800b876:	e8bd 4038 	ldmia.w	sp!, {r3, r4, r5, lr}
 800b87a:	f002 b9e5 	b.w	800dc48 <UTIL_TIMER_Start>
 800b87e:	bf00      	nop
 800b880:	20001c30 	.word	0x20001c30

0800b884 <RadioSetChannel>:
 800b884:	f001 b96a 	b.w	800cb5c <SUBGRF_SetRfFrequency>

0800b888 <RadioStartCad>:
 800b888:	b508      	push	{r3, lr}
 800b88a:	4b08      	ldr	r3, [pc, #32]	; (800b8ac <RadioStartCad+0x24>)
 800b88c:	2100      	movs	r1, #0
 800b88e:	f893 0056 	ldrb.w	r0, [r3, #86]	; 0x56
 800b892:	f001 fd1a 	bl	800d2ca <SUBGRF_SetSwitch>
 800b896:	2300      	movs	r3, #0
 800b898:	f44f 71c0 	mov.w	r1, #384	; 0x180
 800b89c:	461a      	mov	r2, r3
 800b89e:	4608      	mov	r0, r1
 800b8a0:	f001 f92a 	bl	800caf8 <SUBGRF_SetDioIrqParams>
 800b8a4:	e8bd 4008 	ldmia.w	sp!, {r3, lr}
 800b8a8:	f001 b896 	b.w	800c9d8 <SUBGRF_SetCad>
 800b8ac:	20001bd4 	.word	0x20001bd4

0800b8b0 <RadioRx>:
 800b8b0:	b510      	push	{r4, lr}
 800b8b2:	4604      	mov	r4, r0
 800b8b4:	f001 fdd6 	bl	800d464 <RFW_Is_Init>
 800b8b8:	2801      	cmp	r0, #1
 800b8ba:	d118      	bne.n	800b8ee <RadioRx+0x3e>
 800b8bc:	f001 fdda 	bl	800d474 <RFW_ReceiveInit>
 800b8c0:	b134      	cbz	r4, 800b8d0 <RadioRx+0x20>
 800b8c2:	4810      	ldr	r0, [pc, #64]	; (800b904 <RadioRx+0x54>)
 800b8c4:	4621      	mov	r1, r4
 800b8c6:	f002 f9f9 	bl	800dcbc <UTIL_TIMER_SetPeriod>
 800b8ca:	480e      	ldr	r0, [pc, #56]	; (800b904 <RadioRx+0x54>)
 800b8cc:	f002 f9bc 	bl	800dc48 <UTIL_TIMER_Start>
 800b8d0:	4c0d      	ldr	r4, [pc, #52]	; (800b908 <RadioRx+0x58>)
 800b8d2:	2100      	movs	r1, #0
 800b8d4:	f894 0056 	ldrb.w	r0, [r4, #86]	; 0x56
 800b8d8:	65a1      	str	r1, [r4, #88]	; 0x58
 800b8da:	f001 fcf6 	bl	800d2ca <SUBGRF_SetSwitch>
 800b8de:	7863      	ldrb	r3, [r4, #1]
 800b8e0:	b16b      	cbz	r3, 800b8fe <RadioRx+0x4e>
 800b8e2:	f06f 407f 	mvn.w	r0, #4278190080	; 0xff000000
 800b8e6:	e8bd 4010 	ldmia.w	sp!, {r4, lr}
 800b8ea:	f001 b841 	b.w	800c970 <SUBGRF_SetRx>
 800b8ee:	2300      	movs	r3, #0
 800b8f0:	f240 2162 	movw	r1, #610	; 0x262
 800b8f4:	461a      	mov	r2, r3
 800b8f6:	4608      	mov	r0, r1
 800b8f8:	f001 f8fe 	bl	800caf8 <SUBGRF_SetDioIrqParams>
 800b8fc:	e7e0      	b.n	800b8c0 <RadioRx+0x10>
 800b8fe:	68a0      	ldr	r0, [r4, #8]
 800b900:	0180      	lsls	r0, r0, #6
 800b902:	e7f0      	b.n	800b8e6 <RadioRx+0x36>
 800b904:	20001bbc 	.word	0x20001bbc
 800b908:	20001bd4 	.word	0x20001bd4

0800b90c <RadioSleep>:
 800b90c:	b508      	push	{r3, lr}
 800b90e:	f04f 0004 	mov.w	r0, #4
 800b912:	f001 fac9 	bl	800cea8 <SUBGRF_SetSleep>
 800b916:	e8bd 4008 	ldmia.w	sp!, {r3, lr}
 800b91a:	2002      	movs	r0, #2
 800b91c:	f7f5 be20 	b.w	8001560 <HAL_Delay>

0800b920 <RadioRandom>:
 800b920:	b508      	push	{r3, lr}
 800b922:	2300      	movs	r3, #0
 800b924:	461a      	mov	r2, r3
 800b926:	4619      	mov	r1, r3
 800b928:	4618      	mov	r0, r3
 800b92a:	f001 f8e5 	bl	800caf8 <SUBGRF_SetDioIrqParams>
 800b92e:	e8bd 4008 	ldmia.w	sp!, {r3, lr}
 800b932:	f001 bc4f 	b.w	800d1d4 <SUBGRF_GetRandom>
	...

0800b938 <RadioInit>:
 800b938:	4b1d      	ldr	r3, [pc, #116]	; (800b9b0 <RadioInit+0x78>)
 800b93a:	b573      	push	{r0, r1, r4, r5, r6, lr}
 800b93c:	4d1d      	ldr	r5, [pc, #116]	; (800b9b4 <RadioInit+0x7c>)
 800b93e:	6018      	str	r0, [r3, #0]
 800b940:	2400      	movs	r4, #0
 800b942:	481d      	ldr	r0, [pc, #116]	; (800b9b8 <RadioInit+0x80>)
 800b944:	706c      	strb	r4, [r5, #1]
 800b946:	e9c5 4401 	strd	r4, r4, [r5, #4]
 800b94a:	65ac      	str	r4, [r5, #88]	; 0x58
 800b94c:	f001 fa76 	bl	800ce3c <SUBGRF_Init>
 800b950:	81ac      	strh	r4, [r5, #12]
 800b952:	f001 f863 	bl	800ca1c <SUBGRF_SetRegulatorMode>
 800b956:	4621      	mov	r1, r4
 800b958:	4620      	mov	r0, r4
 800b95a:	f001 f925 	bl	800cba8 <SUBGRF_SetBufferBaseAddress>
 800b95e:	4621      	mov	r1, r4
 800b960:	2204      	movs	r2, #4
 800b962:	2001      	movs	r0, #1
 800b964:	f001 fad6 	bl	800cf14 <SUBGRF_SetTxParams>
 800b968:	4e14      	ldr	r6, [pc, #80]	; (800b9bc <RadioInit+0x84>)
 800b96a:	4d15      	ldr	r5, [pc, #84]	; (800b9c0 <RadioInit+0x88>)
 800b96c:	f64f 71ff 	movw	r1, #65535	; 0xffff
 800b970:	4623      	mov	r3, r4
 800b972:	4622      	mov	r2, r4
 800b974:	4608      	mov	r0, r1
 800b976:	f001 f8bf 	bl	800caf8 <SUBGRF_SetDioIrqParams>
 800b97a:	f7ff ffc7 	bl	800b90c <RadioSleep>
 800b97e:	4622      	mov	r2, r4
 800b980:	4b10      	ldr	r3, [pc, #64]	; (800b9c4 <RadioInit+0x8c>)
 800b982:	9400      	str	r4, [sp, #0]
 800b984:	f04f 31ff 	mov.w	r1, #4294967295
 800b988:	4630      	mov	r0, r6
 800b98a:	f002 f8af 	bl	800daec <UTIL_TIMER_Create>
 800b98e:	4b0e      	ldr	r3, [pc, #56]	; (800b9c8 <RadioInit+0x90>)
 800b990:	9400      	str	r4, [sp, #0]
 800b992:	4622      	mov	r2, r4
 800b994:	f04f 31ff 	mov.w	r1, #4294967295
 800b998:	4628      	mov	r0, r5
 800b99a:	f002 f8a7 	bl	800daec <UTIL_TIMER_Create>
 800b99e:	4630      	mov	r0, r6
 800b9a0:	f002 f902 	bl	800dba8 <UTIL_TIMER_Stop>
 800b9a4:	4628      	mov	r0, r5
 800b9a6:	b002      	add	sp, #8
 800b9a8:	e8bd 4070 	ldmia.w	sp!, {r4, r5, r6, lr}
 800b9ac:	f002 b8fc 	b.w	800dba8 <UTIL_TIMER_Stop>
 800b9b0:	20001bb8 	.word	0x20001bb8
 800b9b4:	20001bd4 	.word	0x20001bd4
 800b9b8:	0800c8bd 	.word	0x0800c8bd
 800b9bc:	20001c30 	.word	0x20001c30
 800b9c0:	20001bbc 	.word	0x20001bbc
 800b9c4:	0800b735 	.word	0x0800b735
 800b9c8:	0800b749 	.word	0x0800b749

0800b9cc <RadioSetMaxPayloadLength>:
 800b9cc:	2801      	cmp	r0, #1
 800b9ce:	4808      	ldr	r0, [pc, #32]	; (800b9f0 <RadioSetMaxPayloadLength+0x24>)
 800b9d0:	d105      	bne.n	800b9de <RadioSetMaxPayloadLength+0x12>
 800b9d2:	4b08      	ldr	r3, [pc, #32]	; (800b9f4 <RadioSetMaxPayloadLength+0x28>)
 800b9d4:	77c1      	strb	r1, [r0, #31]
 800b9d6:	7019      	strb	r1, [r3, #0]
 800b9d8:	300e      	adds	r0, #14
 800b9da:	f001 bb79 	b.w	800d0d0 <SUBGRF_SetPacketParams>
 800b9de:	7d43      	ldrb	r3, [r0, #21]
 800b9e0:	2b01      	cmp	r3, #1
 800b9e2:	d103      	bne.n	800b9ec <RadioSetMaxPayloadLength+0x20>
 800b9e4:	4b03      	ldr	r3, [pc, #12]	; (800b9f4 <RadioSetMaxPayloadLength+0x28>)
 800b9e6:	7581      	strb	r1, [r0, #22]
 800b9e8:	7019      	strb	r1, [r3, #0]
 800b9ea:	e7f5      	b.n	800b9d8 <RadioSetMaxPayloadLength+0xc>
 800b9ec:	4770      	bx	lr
 800b9ee:	bf00      	nop
 800b9f0:	20001bd4 	.word	0x20001bd4
 800b9f4:	20000118 	.word	0x20000118

0800b9f8 <RadioSetPublicNetwork>:
 800b9f8:	4b0d      	ldr	r3, [pc, #52]	; (800ba30 <RadioSetPublicNetwork+0x38>)
 800b9fa:	b510      	push	{r4, lr}
 800b9fc:	4604      	mov	r4, r0
 800b9fe:	7318      	strb	r0, [r3, #12]
 800ba00:	7358      	strb	r0, [r3, #13]
 800ba02:	2001      	movs	r0, #1
 800ba04:	f000 f816 	bl	800ba34 <RadioSetModem>
 800ba08:	b15c      	cbz	r4, 800ba22 <RadioSetPublicNetwork+0x2a>
 800ba0a:	2134      	movs	r1, #52	; 0x34
 800ba0c:	f44f 60e8 	mov.w	r0, #1856	; 0x740
 800ba10:	f001 f920 	bl	800cc54 <SUBGRF_WriteRegister>
 800ba14:	2144      	movs	r1, #68	; 0x44
 800ba16:	e8bd 4010 	ldmia.w	sp!, {r4, lr}
 800ba1a:	f240 7041 	movw	r0, #1857	; 0x741
 800ba1e:	f001 b919 	b.w	800cc54 <SUBGRF_WriteRegister>
 800ba22:	2114      	movs	r1, #20
 800ba24:	f44f 60e8 	mov.w	r0, #1856	; 0x740
 800ba28:	f001 f914 	bl	800cc54 <SUBGRF_WriteRegister>
 800ba2c:	2124      	movs	r1, #36	; 0x24
 800ba2e:	e7f2      	b.n	800ba16 <RadioSetPublicNetwork+0x1e>
 800ba30:	20001bd4 	.word	0x20001bd4

0800ba34 <RadioSetModem>:
 800ba34:	b538      	push	{r3, r4, r5, lr}
 800ba36:	4c11      	ldr	r4, [pc, #68]	; (800ba7c <RadioSetModem+0x48>)
 800ba38:	4605      	mov	r5, r0
 800ba3a:	7020      	strb	r0, [r4, #0]
 800ba3c:	f001 fd1f 	bl	800d47e <RFW_SetRadioModem>
 800ba40:	2d05      	cmp	r5, #5
 800ba42:	d804      	bhi.n	800ba4e <RadioSetModem+0x1a>
 800ba44:	e8df f005 	tbb	[pc, r5]
 800ba48:	17030b09 	.word	0x17030b09
 800ba4c:	0917      	.short	0x0917
 800ba4e:	2003      	movs	r0, #3
 800ba50:	f001 f944 	bl	800ccdc <SUBGRF_SetPacketType>
 800ba54:	2300      	movs	r3, #0
 800ba56:	7363      	strb	r3, [r4, #13]
 800ba58:	bd38      	pop	{r3, r4, r5, pc}
 800ba5a:	2000      	movs	r0, #0
 800ba5c:	e7f8      	b.n	800ba50 <RadioSetModem+0x1c>
 800ba5e:	2001      	movs	r0, #1
 800ba60:	f001 f93c 	bl	800ccdc <SUBGRF_SetPacketType>
 800ba64:	7b20      	ldrb	r0, [r4, #12]
 800ba66:	7b63      	ldrb	r3, [r4, #13]
 800ba68:	4283      	cmp	r3, r0
 800ba6a:	d0f5      	beq.n	800ba58 <RadioSetModem+0x24>
 800ba6c:	7360      	strb	r0, [r4, #13]
 800ba6e:	e8bd 4038 	ldmia.w	sp!, {r3, r4, r5, lr}
 800ba72:	f7ff bfc1 	b.w	800b9f8 <RadioSetPublicNetwork>
 800ba76:	2002      	movs	r0, #2
 800ba78:	e7ea      	b.n	800ba50 <RadioSetModem+0x1c>
 800ba7a:	bf00      	nop
 800ba7c:	20001bd4 	.word	0x20001bd4

0800ba80 <RadioSetTxGenericConfig>:
 800ba80:	e92d 43f0 	stmdb	sp!, {r4, r5, r6, r7, r8, r9, lr}
 800ba84:	461e      	mov	r6, r3
 800ba86:	b087      	sub	sp, #28
 800ba88:	2300      	movs	r3, #0
 800ba8a:	4605      	mov	r5, r0
 800ba8c:	e9cd 3301 	strd	r3, r3, [sp, #4]
 800ba90:	460c      	mov	r4, r1
 800ba92:	4617      	mov	r7, r2
 800ba94:	f001 fce5 	bl	800d462 <RFW_DeInit>
 800ba98:	2d03      	cmp	r5, #3
 800ba9a:	d861      	bhi.n	800bb60 <RadioSetTxGenericConfig+0xe0>
 800ba9c:	e8df f015 	tbh	[pc, r5, lsl #1]
 800baa0:	00c3007b 	.word	0x00c3007b
 800baa4:	0004010e 	.word	0x0004010e
 800baa8:	7ca2      	ldrb	r2, [r4, #18]
 800baaa:	2a08      	cmp	r2, #8
 800baac:	d904      	bls.n	800bab8 <RadioSetTxGenericConfig+0x38>
 800baae:	f04f 30ff 	mov.w	r0, #4294967295
 800bab2:	b007      	add	sp, #28
 800bab4:	e8bd 83f0 	ldmia.w	sp!, {r4, r5, r6, r7, r8, r9, pc}
 800bab8:	68a1      	ldr	r1, [r4, #8]
 800baba:	a801      	add	r0, sp, #4
 800babc:	f001 fd36 	bl	800d52c <UTIL_MEM_cpy_8>
 800bac0:	6821      	ldr	r1, [r4, #0]
 800bac2:	2900      	cmp	r1, #0
 800bac4:	d0f3      	beq.n	800baae <RadioSetTxGenericConfig+0x2e>
 800bac6:	f242 7210 	movw	r2, #10000	; 0x2710
 800baca:	4291      	cmp	r1, r2
 800bacc:	7ce3      	ldrb	r3, [r4, #19]
 800bace:	4d86      	ldr	r5, [pc, #536]	; (800bce8 <RadioSetTxGenericConfig+0x268>)
 800bad0:	d851      	bhi.n	800bb76 <RadioSetTxGenericConfig+0xf6>
 800bad2:	2203      	movs	r2, #3
 800bad4:	73aa      	strb	r2, [r5, #14]
 800bad6:	f885 2038 	strb.w	r2, [r5, #56]	; 0x38
 800bada:	63e9      	str	r1, [r5, #60]	; 0x3c
 800badc:	f885 3044 	strb.w	r3, [r5, #68]	; 0x44
 800bae0:	f04f 0802 	mov.w	r8, #2
 800bae4:	6863      	ldr	r3, [r4, #4]
 800bae6:	7da1      	ldrb	r1, [r4, #22]
 800bae8:	00db      	lsls	r3, r3, #3
 800baea:	822b      	strh	r3, [r5, #16]
 800baec:	2304      	movs	r3, #4
 800baee:	74ab      	strb	r3, [r5, #18]
 800baf0:	7ca3      	ldrb	r3, [r4, #18]
 800baf2:	00db      	lsls	r3, r3, #3
 800baf4:	74eb      	strb	r3, [r5, #19]
 800baf6:	2902      	cmp	r1, #2
 800baf8:	f04f 0300 	mov.w	r3, #0
 800bafc:	752b      	strb	r3, [r5, #20]
 800bafe:	7d63      	ldrb	r3, [r4, #21]
 800bb00:	d002      	beq.n	800bb08 <RadioSetTxGenericConfig+0x88>
 800bb02:	7d22      	ldrb	r2, [r4, #20]
 800bb04:	2a02      	cmp	r2, #2
 800bb06:	d142      	bne.n	800bb8e <RadioSetTxGenericConfig+0x10e>
 800bb08:	f103 020f 	add.w	r2, r3, #15
 800bb0c:	b2d2      	uxtb	r2, r2
 800bb0e:	2a01      	cmp	r2, #1
 800bb10:	d901      	bls.n	800bb16 <RadioSetTxGenericConfig+0x96>
 800bb12:	2b01      	cmp	r3, #1
 800bb14:	d1cb      	bne.n	800baae <RadioSetTxGenericConfig+0x2e>
 800bb16:	4b75      	ldr	r3, [pc, #468]	; (800bcec <RadioSetTxGenericConfig+0x26c>)
 800bb18:	4a75      	ldr	r2, [pc, #468]	; (800bcf0 <RadioSetTxGenericConfig+0x270>)
 800bb1a:	6819      	ldr	r1, [r3, #0]
 800bb1c:	9403      	str	r4, [sp, #12]
 800bb1e:	f04f 0901 	mov.w	r9, #1
 800bb22:	a803      	add	r0, sp, #12
 800bb24:	f88d 9014 	strb.w	r9, [sp, #20]
 800bb28:	f001 fc98 	bl	800d45c <RFW_Init>
 800bb2c:	2800      	cmp	r0, #0
 800bb2e:	d1be      	bne.n	800baae <RadioSetTxGenericConfig+0x2e>
 800bb30:	7628      	strb	r0, [r5, #24]
 800bb32:	f885 9017 	strb.w	r9, [r5, #23]
 800bb36:	7568      	strb	r0, [r5, #21]
 800bb38:	f7ff fe68 	bl	800b80c <RadioStandby>
 800bb3c:	4640      	mov	r0, r8
 800bb3e:	f7ff ff79 	bl	800ba34 <RadioSetModem>
 800bb42:	486c      	ldr	r0, [pc, #432]	; (800bcf4 <RadioSetTxGenericConfig+0x274>)
 800bb44:	f001 f8e0 	bl	800cd08 <SUBGRF_SetModulationParams>
 800bb48:	486b      	ldr	r0, [pc, #428]	; (800bcf8 <RadioSetTxGenericConfig+0x278>)
 800bb4a:	f001 fac1 	bl	800d0d0 <SUBGRF_SetPacketParams>
 800bb4e:	a801      	add	r0, sp, #4
 800bb50:	f001 fa8c 	bl	800d06c <SUBGRF_SetSyncWord>
 800bb54:	8a20      	ldrh	r0, [r4, #16]
 800bb56:	f001 f9c1 	bl	800cedc <SUBGRF_SetWhiteningSeed>
 800bb5a:	89a0      	ldrh	r0, [r4, #12]
 800bb5c:	f001 faa4 	bl	800d0a8 <SUBGRF_SetCrcPolynomial>
 800bb60:	4638      	mov	r0, r7
 800bb62:	f001 fbc8 	bl	800d2f6 <SUBGRF_SetRfTxPower>
 800bb66:	4c60      	ldr	r4, [pc, #384]	; (800bce8 <RadioSetTxGenericConfig+0x268>)
 800bb68:	f884 0056 	strb.w	r0, [r4, #86]	; 0x56
 800bb6c:	f001 fc7e 	bl	800d46c <RFW_SetAntSwitch>
 800bb70:	6066      	str	r6, [r4, #4]
 800bb72:	2000      	movs	r0, #0
 800bb74:	e79d      	b.n	800bab2 <RadioSetTxGenericConfig+0x32>
 800bb76:	f04f 0800 	mov.w	r8, #0
 800bb7a:	63e9      	str	r1, [r5, #60]	; 0x3c
 800bb7c:	0889      	lsrs	r1, r1, #2
 800bb7e:	f885 800e 	strb.w	r8, [r5, #14]
 800bb82:	f885 8038 	strb.w	r8, [r5, #56]	; 0x38
 800bb86:	f885 3044 	strb.w	r3, [r5, #68]	; 0x44
 800bb8a:	6429      	str	r1, [r5, #64]	; 0x40
 800bb8c:	e7aa      	b.n	800bae4 <RadioSetTxGenericConfig+0x64>
 800bb8e:	75eb      	strb	r3, [r5, #23]
 800bb90:	7629      	strb	r1, [r5, #24]
 800bb92:	756a      	strb	r2, [r5, #21]
 800bb94:	e7d0      	b.n	800bb38 <RadioSetTxGenericConfig+0xb8>
 800bb96:	6823      	ldr	r3, [r4, #0]
 800bb98:	2b00      	cmp	r3, #0
 800bb9a:	d088      	beq.n	800baae <RadioSetTxGenericConfig+0x2e>
 800bb9c:	7ca2      	ldrb	r2, [r4, #18]
 800bb9e:	2a08      	cmp	r2, #8
 800bba0:	d885      	bhi.n	800baae <RadioSetTxGenericConfig+0x2e>
 800bba2:	4d51      	ldr	r5, [pc, #324]	; (800bce8 <RadioSetTxGenericConfig+0x268>)
 800bba4:	68a1      	ldr	r1, [r4, #8]
 800bba6:	a801      	add	r0, sp, #4
 800bba8:	f001 fcc0 	bl	800d52c <UTIL_MEM_cpy_8>
 800bbac:	2300      	movs	r3, #0
 800bbae:	f885 3038 	strb.w	r3, [r5, #56]	; 0x38
 800bbb2:	6822      	ldr	r2, [r4, #0]
 800bbb4:	63ea      	str	r2, [r5, #60]	; 0x3c
 800bbb6:	7ce2      	ldrb	r2, [r4, #19]
 800bbb8:	f885 2044 	strb.w	r2, [r5, #68]	; 0x44
 800bbbc:	69a2      	ldr	r2, [r4, #24]
 800bbbe:	73ab      	strb	r3, [r5, #14]
 800bbc0:	642a      	str	r2, [r5, #64]	; 0x40
 800bbc2:	6862      	ldr	r2, [r4, #4]
 800bbc4:	7da1      	ldrb	r1, [r4, #22]
 800bbc6:	00d2      	lsls	r2, r2, #3
 800bbc8:	822a      	strh	r2, [r5, #16]
 800bbca:	2204      	movs	r2, #4
 800bbcc:	74aa      	strb	r2, [r5, #18]
 800bbce:	7ca2      	ldrb	r2, [r4, #18]
 800bbd0:	752b      	strb	r3, [r5, #20]
 800bbd2:	00d2      	lsls	r2, r2, #3
 800bbd4:	2902      	cmp	r1, #2
 800bbd6:	7d63      	ldrb	r3, [r4, #21]
 800bbd8:	74ea      	strb	r2, [r5, #19]
 800bbda:	d002      	beq.n	800bbe2 <RadioSetTxGenericConfig+0x162>
 800bbdc:	7d22      	ldrb	r2, [r4, #20]
 800bbde:	2a02      	cmp	r2, #2
 800bbe0:	d11d      	bne.n	800bc1e <RadioSetTxGenericConfig+0x19e>
 800bbe2:	f103 020f 	add.w	r2, r3, #15
 800bbe6:	b2d2      	uxtb	r2, r2
 800bbe8:	2a01      	cmp	r2, #1
 800bbea:	d902      	bls.n	800bbf2 <RadioSetTxGenericConfig+0x172>
 800bbec:	2b01      	cmp	r3, #1
 800bbee:	f47f af5e 	bne.w	800baae <RadioSetTxGenericConfig+0x2e>
 800bbf2:	4b3e      	ldr	r3, [pc, #248]	; (800bcec <RadioSetTxGenericConfig+0x26c>)
 800bbf4:	4a3e      	ldr	r2, [pc, #248]	; (800bcf0 <RadioSetTxGenericConfig+0x270>)
 800bbf6:	6819      	ldr	r1, [r3, #0]
 800bbf8:	9403      	str	r4, [sp, #12]
 800bbfa:	f04f 0801 	mov.w	r8, #1
 800bbfe:	a803      	add	r0, sp, #12
 800bc00:	f88d 8014 	strb.w	r8, [sp, #20]
 800bc04:	f001 fc2a 	bl	800d45c <RFW_Init>
 800bc08:	2800      	cmp	r0, #0
 800bc0a:	f47f af50 	bne.w	800baae <RadioSetTxGenericConfig+0x2e>
 800bc0e:	7628      	strb	r0, [r5, #24]
 800bc10:	f885 8017 	strb.w	r8, [r5, #23]
 800bc14:	7568      	strb	r0, [r5, #21]
 800bc16:	f7ff fdf9 	bl	800b80c <RadioStandby>
 800bc1a:	2000      	movs	r0, #0
 800bc1c:	e78f      	b.n	800bb3e <RadioSetTxGenericConfig+0xbe>
 800bc1e:	75eb      	strb	r3, [r5, #23]
 800bc20:	7629      	strb	r1, [r5, #24]
 800bc22:	756a      	strb	r2, [r5, #21]
 800bc24:	e7f7      	b.n	800bc16 <RadioSetTxGenericConfig+0x196>
 800bc26:	4d30      	ldr	r5, [pc, #192]	; (800bce8 <RadioSetTxGenericConfig+0x268>)
 800bc28:	2101      	movs	r1, #1
 800bc2a:	f885 1038 	strb.w	r1, [r5, #56]	; 0x38
 800bc2e:	7822      	ldrb	r2, [r4, #0]
 800bc30:	f885 2050 	strb.w	r2, [r5, #80]	; 0x50
 800bc34:	7863      	ldrb	r3, [r4, #1]
 800bc36:	f885 3051 	strb.w	r3, [r5, #81]	; 0x51
 800bc3a:	78a3      	ldrb	r3, [r4, #2]
 800bc3c:	f885 3052 	strb.w	r3, [r5, #82]	; 0x52
 800bc40:	78e3      	ldrb	r3, [r4, #3]
 800bc42:	428b      	cmp	r3, r1
 800bc44:	d002      	beq.n	800bc4c <RadioSetTxGenericConfig+0x1cc>
 800bc46:	2b02      	cmp	r3, #2
 800bc48:	d003      	beq.n	800bc52 <RadioSetTxGenericConfig+0x1d2>
 800bc4a:	b93b      	cbnz	r3, 800bc5c <RadioSetTxGenericConfig+0x1dc>
 800bc4c:	f885 3053 	strb.w	r3, [r5, #83]	; 0x53
 800bc50:	e004      	b.n	800bc5c <RadioSetTxGenericConfig+0x1dc>
 800bc52:	3a0b      	subs	r2, #11
 800bc54:	2a01      	cmp	r2, #1
 800bc56:	d829      	bhi.n	800bcac <RadioSetTxGenericConfig+0x22c>
 800bc58:	f885 1053 	strb.w	r1, [r5, #83]	; 0x53
 800bc5c:	f04f 0801 	mov.w	r8, #1
 800bc60:	f885 800e 	strb.w	r8, [r5, #14]
 800bc64:	88a3      	ldrh	r3, [r4, #4]
 800bc66:	83ab      	strh	r3, [r5, #28]
 800bc68:	79a3      	ldrb	r3, [r4, #6]
 800bc6a:	77ab      	strb	r3, [r5, #30]
 800bc6c:	79e3      	ldrb	r3, [r4, #7]
 800bc6e:	f885 3020 	strb.w	r3, [r5, #32]
 800bc72:	7a23      	ldrb	r3, [r4, #8]
 800bc74:	f885 3021 	strb.w	r3, [r5, #33]	; 0x21
 800bc78:	f7ff fdc8 	bl	800b80c <RadioStandby>
 800bc7c:	4640      	mov	r0, r8
 800bc7e:	f7ff fed9 	bl	800ba34 <RadioSetModem>
 800bc82:	481c      	ldr	r0, [pc, #112]	; (800bcf4 <RadioSetTxGenericConfig+0x274>)
 800bc84:	f001 f840 	bl	800cd08 <SUBGRF_SetModulationParams>
 800bc88:	481b      	ldr	r0, [pc, #108]	; (800bcf8 <RadioSetTxGenericConfig+0x278>)
 800bc8a:	f001 fa21 	bl	800d0d0 <SUBGRF_SetPacketParams>
 800bc8e:	f895 3051 	ldrb.w	r3, [r5, #81]	; 0x51
 800bc92:	2b06      	cmp	r3, #6
 800bc94:	f640 0089 	movw	r0, #2185	; 0x889
 800bc98:	d10a      	bne.n	800bcb0 <RadioSetTxGenericConfig+0x230>
 800bc9a:	f001 f8ab 	bl	800cdf4 <SUBGRF_ReadRegister>
 800bc9e:	f000 01fb 	and.w	r1, r0, #251	; 0xfb
 800bca2:	f640 0089 	movw	r0, #2185	; 0x889
 800bca6:	f000 ffd5 	bl	800cc54 <SUBGRF_WriteRegister>
 800bcaa:	e759      	b.n	800bb60 <RadioSetTxGenericConfig+0xe0>
 800bcac:	2300      	movs	r3, #0
 800bcae:	e7cd      	b.n	800bc4c <RadioSetTxGenericConfig+0x1cc>
 800bcb0:	f001 f8a0 	bl	800cdf4 <SUBGRF_ReadRegister>
 800bcb4:	f040 0104 	orr.w	r1, r0, #4
 800bcb8:	b2c9      	uxtb	r1, r1
 800bcba:	e7f2      	b.n	800bca2 <RadioSetTxGenericConfig+0x222>
 800bcbc:	6823      	ldr	r3, [r4, #0]
 800bcbe:	3b01      	subs	r3, #1
 800bcc0:	f5b3 7f7a 	cmp.w	r3, #1000	; 0x3e8
 800bcc4:	f4bf aef3 	bcs.w	800baae <RadioSetTxGenericConfig+0x2e>
 800bcc8:	2003      	movs	r0, #3
 800bcca:	f7ff feb3 	bl	800ba34 <RadioSetModem>
 800bcce:	4806      	ldr	r0, [pc, #24]	; (800bce8 <RadioSetTxGenericConfig+0x268>)
 800bcd0:	2302      	movs	r3, #2
 800bcd2:	f880 3038 	strb.w	r3, [r0, #56]	; 0x38
 800bcd6:	6823      	ldr	r3, [r4, #0]
 800bcd8:	6483      	str	r3, [r0, #72]	; 0x48
 800bcda:	2316      	movs	r3, #22
 800bcdc:	f880 304c 	strb.w	r3, [r0, #76]	; 0x4c
 800bce0:	3038      	adds	r0, #56	; 0x38
 800bce2:	f001 f811 	bl	800cd08 <SUBGRF_SetModulationParams>
 800bce6:	e73b      	b.n	800bb60 <RadioSetTxGenericConfig+0xe0>
 800bce8:	20001bd4 	.word	0x20001bd4
 800bcec:	20001bb8 	.word	0x20001bb8
 800bcf0:	20001c30 	.word	0x20001c30
 800bcf4:	20001c0c 	.word	0x20001c0c
 800bcf8:	20001be2 	.word	0x20001be2

0800bcfc <RadioSetRxGenericConfig>:
 800bcfc:	e92d 41f0 	stmdb	sp!, {r4, r5, r6, r7, r8, lr}
 800bd00:	2600      	movs	r6, #0
 800bd02:	b086      	sub	sp, #24
 800bd04:	461f      	mov	r7, r3
 800bd06:	4614      	mov	r4, r2
 800bd08:	e9cd 6601 	strd	r6, r6, [sp, #4]
 800bd0c:	4680      	mov	r8, r0
 800bd0e:	460d      	mov	r5, r1
 800bd10:	f001 fba7 	bl	800d462 <RFW_DeInit>
 800bd14:	42b4      	cmp	r4, r6
 800bd16:	4c77      	ldr	r4, [pc, #476]	; (800bef4 <RadioSetRxGenericConfig+0x1f8>)
 800bd18:	bf16      	itet	ne
 800bd1a:	2301      	movne	r3, #1
 800bd1c:	4633      	moveq	r3, r6
 800bd1e:	4637      	movne	r7, r6
 800bd20:	7063      	strb	r3, [r4, #1]
 800bd22:	f1b8 0f00 	cmp.w	r8, #0
 800bd26:	d006      	beq.n	800bd36 <RadioSetRxGenericConfig+0x3a>
 800bd28:	f1b8 0f01 	cmp.w	r8, #1
 800bd2c:	d07c      	beq.n	800be28 <RadioSetRxGenericConfig+0x12c>
 800bd2e:	2000      	movs	r0, #0
 800bd30:	b006      	add	sp, #24
 800bd32:	e8bd 81f0 	ldmia.w	sp!, {r4, r5, r6, r7, r8, pc}
 800bd36:	68ab      	ldr	r3, [r5, #8]
 800bd38:	2b00      	cmp	r3, #0
 800bd3a:	f000 80d7 	beq.w	800beec <RadioSetRxGenericConfig+0x1f0>
 800bd3e:	68eb      	ldr	r3, [r5, #12]
 800bd40:	2b00      	cmp	r3, #0
 800bd42:	f000 80d3 	beq.w	800beec <RadioSetRxGenericConfig+0x1f0>
 800bd46:	7faa      	ldrb	r2, [r5, #30]
 800bd48:	2a08      	cmp	r2, #8
 800bd4a:	f200 80cf 	bhi.w	800beec <RadioSetRxGenericConfig+0x1f0>
 800bd4e:	6929      	ldr	r1, [r5, #16]
 800bd50:	a801      	add	r0, sp, #4
 800bd52:	f001 fbeb 	bl	800d52c <UTIL_MEM_cpy_8>
 800bd56:	6828      	ldr	r0, [r5, #0]
 800bd58:	3800      	subs	r0, #0
 800bd5a:	bf18      	it	ne
 800bd5c:	2001      	movne	r0, #1
 800bd5e:	f000 fe51 	bl	800ca04 <SUBGRF_SetStopRxTimerOnPreambleDetect>
 800bd62:	f884 8038 	strb.w	r8, [r4, #56]	; 0x38
 800bd66:	68ab      	ldr	r3, [r5, #8]
 800bd68:	63e3      	str	r3, [r4, #60]	; 0x3c
 800bd6a:	f895 3020 	ldrb.w	r3, [r5, #32]
 800bd6e:	f884 3044 	strb.w	r3, [r4, #68]	; 0x44
 800bd72:	6868      	ldr	r0, [r5, #4]
 800bd74:	f001 fb18 	bl	800d3a8 <SUBGRF_GetFskBandwidthRegValue>
 800bd78:	f884 800e 	strb.w	r8, [r4, #14]
 800bd7c:	f884 0045 	strb.w	r0, [r4, #69]	; 0x45
 800bd80:	68eb      	ldr	r3, [r5, #12]
 800bd82:	00db      	lsls	r3, r3, #3
 800bd84:	8223      	strh	r3, [r4, #16]
 800bd86:	7feb      	ldrb	r3, [r5, #31]
 800bd88:	74a3      	strb	r3, [r4, #18]
 800bd8a:	7fab      	ldrb	r3, [r5, #30]
 800bd8c:	00db      	lsls	r3, r3, #3
 800bd8e:	74e3      	strb	r3, [r4, #19]
 800bd90:	f895 3021 	ldrb.w	r3, [r5, #33]	; 0x21
 800bd94:	7523      	strb	r3, [r4, #20]
 800bd96:	f895 3022 	ldrb.w	r3, [r5, #34]	; 0x22
 800bd9a:	2b00      	cmp	r3, #0
 800bd9c:	d13e      	bne.n	800be1c <RadioSetRxGenericConfig+0x120>
 800bd9e:	696a      	ldr	r2, [r5, #20]
 800bda0:	f895 1024 	ldrb.w	r1, [r5, #36]	; 0x24
 800bda4:	75a2      	strb	r2, [r4, #22]
 800bda6:	2902      	cmp	r1, #2
 800bda8:	f895 2023 	ldrb.w	r2, [r5, #35]	; 0x23
 800bdac:	d001      	beq.n	800bdb2 <RadioSetRxGenericConfig+0xb6>
 800bdae:	2b02      	cmp	r3, #2
 800bdb0:	d136      	bne.n	800be20 <RadioSetRxGenericConfig+0x124>
 800bdb2:	f102 030f 	add.w	r3, r2, #15
 800bdb6:	b2db      	uxtb	r3, r3
 800bdb8:	2b01      	cmp	r3, #1
 800bdba:	d902      	bls.n	800bdc2 <RadioSetRxGenericConfig+0xc6>
 800bdbc:	2a01      	cmp	r2, #1
 800bdbe:	f040 8095 	bne.w	800beec <RadioSetRxGenericConfig+0x1f0>
 800bdc2:	2300      	movs	r3, #0
 800bdc4:	f88d 3014 	strb.w	r3, [sp, #20]
 800bdc8:	4b4b      	ldr	r3, [pc, #300]	; (800bef8 <RadioSetRxGenericConfig+0x1fc>)
 800bdca:	4a4c      	ldr	r2, [pc, #304]	; (800befc <RadioSetRxGenericConfig+0x200>)
 800bdcc:	6819      	ldr	r1, [r3, #0]
 800bdce:	9504      	str	r5, [sp, #16]
 800bdd0:	a803      	add	r0, sp, #12
 800bdd2:	f001 fb43 	bl	800d45c <RFW_Init>
 800bdd6:	2800      	cmp	r0, #0
 800bdd8:	f040 8088 	bne.w	800beec <RadioSetRxGenericConfig+0x1f0>
 800bddc:	2301      	movs	r3, #1
 800bdde:	7620      	strb	r0, [r4, #24]
 800bde0:	75e3      	strb	r3, [r4, #23]
 800bde2:	7560      	strb	r0, [r4, #21]
 800bde4:	f7ff fd12 	bl	800b80c <RadioStandby>
 800bde8:	2000      	movs	r0, #0
 800bdea:	f7ff fe23 	bl	800ba34 <RadioSetModem>
 800bdee:	4844      	ldr	r0, [pc, #272]	; (800bf00 <RadioSetRxGenericConfig+0x204>)
 800bdf0:	f000 ff8a 	bl	800cd08 <SUBGRF_SetModulationParams>
 800bdf4:	4843      	ldr	r0, [pc, #268]	; (800bf04 <RadioSetRxGenericConfig+0x208>)
 800bdf6:	f001 f96b 	bl	800d0d0 <SUBGRF_SetPacketParams>
 800bdfa:	a801      	add	r0, sp, #4
 800bdfc:	f001 f936 	bl	800d06c <SUBGRF_SetSyncWord>
 800be00:	8ba8      	ldrh	r0, [r5, #28]
 800be02:	f001 f86b 	bl	800cedc <SUBGRF_SetWhiteningSeed>
 800be06:	8b28      	ldrh	r0, [r5, #24]
 800be08:	f001 f94e 	bl	800d0a8 <SUBGRF_SetCrcPolynomial>
 800be0c:	f44f 53fa 	mov.w	r3, #8000	; 0x1f40
 800be10:	435f      	muls	r7, r3
 800be12:	68ab      	ldr	r3, [r5, #8]
 800be14:	fbb7 f7f3 	udiv	r7, r7, r3
 800be18:	60a7      	str	r7, [r4, #8]
 800be1a:	e788      	b.n	800bd2e <RadioSetRxGenericConfig+0x32>
 800be1c:	22ff      	movs	r2, #255	; 0xff
 800be1e:	e7bf      	b.n	800bda0 <RadioSetRxGenericConfig+0xa4>
 800be20:	75e2      	strb	r2, [r4, #23]
 800be22:	7621      	strb	r1, [r4, #24]
 800be24:	7563      	strb	r3, [r4, #21]
 800be26:	e7dd      	b.n	800bde4 <RadioSetRxGenericConfig+0xe8>
 800be28:	8e2b      	ldrh	r3, [r5, #48]	; 0x30
 800be2a:	2b00      	cmp	r3, #0
 800be2c:	d05e      	beq.n	800beec <RadioSetRxGenericConfig+0x1f0>
 800be2e:	f895 3032 	ldrb.w	r3, [r5, #50]	; 0x32
 800be32:	6aa8      	ldr	r0, [r5, #40]	; 0x28
 800be34:	2b01      	cmp	r3, #1
 800be36:	bf0c      	ite	eq
 800be38:	f895 8014 	ldrbeq.w	r8, [r5, #20]
 800be3c:	f04f 08ff 	movne.w	r8, #255	; 0xff
 800be40:	3800      	subs	r0, #0
 800be42:	bf18      	it	ne
 800be44:	2001      	movne	r0, #1
 800be46:	f000 fddd 	bl	800ca04 <SUBGRF_SetStopRxTimerOnPreambleDetect>
 800be4a:	b2f8      	uxtb	r0, r7
 800be4c:	f000 ff2e 	bl	800ccac <SUBGRF_SetLoRaSymbNumTimeout>
 800be50:	2101      	movs	r1, #1
 800be52:	f884 1038 	strb.w	r1, [r4, #56]	; 0x38
 800be56:	f895 202c 	ldrb.w	r2, [r5, #44]	; 0x2c
 800be5a:	f884 2050 	strb.w	r2, [r4, #80]	; 0x50
 800be5e:	f895 302d 	ldrb.w	r3, [r5, #45]	; 0x2d
 800be62:	f884 3051 	strb.w	r3, [r4, #81]	; 0x51
 800be66:	f895 302e 	ldrb.w	r3, [r5, #46]	; 0x2e
 800be6a:	f884 3052 	strb.w	r3, [r4, #82]	; 0x52
 800be6e:	f895 302f 	ldrb.w	r3, [r5, #47]	; 0x2f
 800be72:	428b      	cmp	r3, r1
 800be74:	d002      	beq.n	800be7c <RadioSetRxGenericConfig+0x180>
 800be76:	2b02      	cmp	r3, #2
 800be78:	d003      	beq.n	800be82 <RadioSetRxGenericConfig+0x186>
 800be7a:	b93b      	cbnz	r3, 800be8c <RadioSetRxGenericConfig+0x190>
 800be7c:	f884 3053 	strb.w	r3, [r4, #83]	; 0x53
 800be80:	e004      	b.n	800be8c <RadioSetRxGenericConfig+0x190>
 800be82:	3a0b      	subs	r2, #11
 800be84:	2a01      	cmp	r2, #1
 800be86:	d829      	bhi.n	800bedc <RadioSetRxGenericConfig+0x1e0>
 800be88:	f884 1053 	strb.w	r1, [r4, #83]	; 0x53
 800be8c:	8e2b      	ldrh	r3, [r5, #48]	; 0x30
 800be8e:	83a3      	strh	r3, [r4, #28]
 800be90:	f895 3032 	ldrb.w	r3, [r5, #50]	; 0x32
 800be94:	77a3      	strb	r3, [r4, #30]
 800be96:	8eab      	ldrh	r3, [r5, #52]	; 0x34
 800be98:	8423      	strh	r3, [r4, #32]
 800be9a:	2601      	movs	r6, #1
 800be9c:	73a6      	strb	r6, [r4, #14]
 800be9e:	f884 801f 	strb.w	r8, [r4, #31]
 800bea2:	f7ff fcb3 	bl	800b80c <RadioStandby>
 800bea6:	4630      	mov	r0, r6
 800bea8:	f7ff fdc4 	bl	800ba34 <RadioSetModem>
 800beac:	4814      	ldr	r0, [pc, #80]	; (800bf00 <RadioSetRxGenericConfig+0x204>)
 800beae:	f000 ff2b 	bl	800cd08 <SUBGRF_SetModulationParams>
 800beb2:	4814      	ldr	r0, [pc, #80]	; (800bf04 <RadioSetRxGenericConfig+0x208>)
 800beb4:	f001 f90c 	bl	800d0d0 <SUBGRF_SetPacketParams>
 800beb8:	f894 3021 	ldrb.w	r3, [r4, #33]	; 0x21
 800bebc:	42b3      	cmp	r3, r6
 800bebe:	f240 7036 	movw	r0, #1846	; 0x736
 800bec2:	d10d      	bne.n	800bee0 <RadioSetRxGenericConfig+0x1e4>
 800bec4:	f000 ff96 	bl	800cdf4 <SUBGRF_ReadRegister>
 800bec8:	f000 01fb 	and.w	r1, r0, #251	; 0xfb
 800becc:	f240 7036 	movw	r0, #1846	; 0x736
 800bed0:	f000 fec0 	bl	800cc54 <SUBGRF_WriteRegister>
 800bed4:	f64f 73ff 	movw	r3, #65535	; 0xffff
 800bed8:	60a3      	str	r3, [r4, #8]
 800beda:	e728      	b.n	800bd2e <RadioSetRxGenericConfig+0x32>
 800bedc:	2300      	movs	r3, #0
 800bede:	e7cd      	b.n	800be7c <RadioSetRxGenericConfig+0x180>
 800bee0:	f000 ff88 	bl	800cdf4 <SUBGRF_ReadRegister>
 800bee4:	f040 0104 	orr.w	r1, r0, #4
 800bee8:	b2c9      	uxtb	r1, r1
 800beea:	e7ef      	b.n	800becc <RadioSetRxGenericConfig+0x1d0>
 800beec:	f04f 30ff 	mov.w	r0, #4294967295
 800bef0:	e71e      	b.n	800bd30 <RadioSetRxGenericConfig+0x34>
 800bef2:	bf00      	nop
 800bef4:	20001bd4 	.word	0x20001bd4
 800bef8:	20001bb8 	.word	0x20001bb8
 800befc:	20001bbc 	.word	0x20001bbc
 800bf00:	20001c0c 	.word	0x20001c0c
 800bf04:	20001be2 	.word	0x20001be2

0800bf08 <RadioSetTxConfig>:
 800bf08:	e92d 4ff0 	stmdb	sp!, {r4, r5, r6, r7, r8, r9, sl, fp, lr}
 800bf0c:	b085      	sub	sp, #20
 800bf0e:	4682      	mov	sl, r0
 800bf10:	9d0e      	ldr	r5, [sp, #56]	; 0x38
 800bf12:	f8bd b040 	ldrh.w	fp, [sp, #64]	; 0x40
 800bf16:	f89d 7044 	ldrb.w	r7, [sp, #68]	; 0x44
 800bf1a:	f89d 9048 	ldrb.w	r9, [sp, #72]	; 0x48
 800bf1e:	9201      	str	r2, [sp, #4]
 800bf20:	4688      	mov	r8, r1
 800bf22:	461e      	mov	r6, r3
 800bf24:	f001 fa9d 	bl	800d462 <RFW_DeInit>
 800bf28:	f1ba 0f01 	cmp.w	sl, #1
 800bf2c:	4c4f      	ldr	r4, [pc, #316]	; (800c06c <RadioSetTxConfig+0x164>)
 800bf2e:	d04d      	beq.n	800bfcc <RadioSetTxConfig+0xc4>
 800bf30:	f1ba 0f04 	cmp.w	sl, #4
 800bf34:	f000 808b 	beq.w	800c04e <RadioSetTxConfig+0x146>
 800bf38:	f1ba 0f00 	cmp.w	sl, #0
 800bf3c:	d13a      	bne.n	800bfb4 <RadioSetTxConfig+0xac>
 800bf3e:	220b      	movs	r2, #11
 800bf40:	4630      	mov	r0, r6
 800bf42:	f884 2044 	strb.w	r2, [r4, #68]	; 0x44
 800bf46:	f884 a038 	strb.w	sl, [r4, #56]	; 0x38
 800bf4a:	63e5      	str	r5, [r4, #60]	; 0x3c
 800bf4c:	f001 fa2c 	bl	800d3a8 <SUBGRF_GetFskBandwidthRegValue>
 800bf50:	9b01      	ldr	r3, [sp, #4]
 800bf52:	6423      	str	r3, [r4, #64]	; 0x40
 800bf54:	ea4f 03cb 	mov.w	r3, fp, lsl #3
 800bf58:	f1b9 0f00 	cmp.w	r9, #0
 800bf5c:	8223      	strh	r3, [r4, #16]
 800bf5e:	f641 0304 	movw	r3, #6148	; 0x1804
 800bf62:	8263      	strh	r3, [r4, #18]
 800bf64:	bf14      	ite	ne
 800bf66:	23f2      	movne	r3, #242	; 0xf2
 800bf68:	2301      	moveq	r3, #1
 800bf6a:	75e3      	strb	r3, [r4, #23]
 800bf6c:	f087 0701 	eor.w	r7, r7, #1
 800bf70:	2301      	movs	r3, #1
 800bf72:	7623      	strb	r3, [r4, #24]
 800bf74:	f884 0045 	strb.w	r0, [r4, #69]	; 0x45
 800bf78:	f884 a00e 	strb.w	sl, [r4, #14]
 800bf7c:	f884 a014 	strb.w	sl, [r4, #20]
 800bf80:	7567      	strb	r7, [r4, #21]
 800bf82:	f7ff fc43 	bl	800b80c <RadioStandby>
 800bf86:	4650      	mov	r0, sl
 800bf88:	f7ff fd54 	bl	800ba34 <RadioSetModem>
 800bf8c:	f104 0038 	add.w	r0, r4, #56	; 0x38
 800bf90:	f000 feba 	bl	800cd08 <SUBGRF_SetModulationParams>
 800bf94:	f104 000e 	add.w	r0, r4, #14
 800bf98:	f001 f89a 	bl	800d0d0 <SUBGRF_SetPacketParams>
 800bf9c:	4a34      	ldr	r2, [pc, #208]	; (800c070 <RadioSetTxConfig+0x168>)
 800bf9e:	6810      	ldr	r0, [r2, #0]
 800bfa0:	6851      	ldr	r1, [r2, #4]
 800bfa2:	ab02      	add	r3, sp, #8
 800bfa4:	c303      	stmia	r3!, {r0, r1}
 800bfa6:	a802      	add	r0, sp, #8
 800bfa8:	f001 f860 	bl	800d06c <SUBGRF_SetSyncWord>
 800bfac:	f240 10ff 	movw	r0, #511	; 0x1ff
 800bfb0:	f000 ff94 	bl	800cedc <SUBGRF_SetWhiteningSeed>
 800bfb4:	4640      	mov	r0, r8
 800bfb6:	f001 f99e 	bl	800d2f6 <SUBGRF_SetRfTxPower>
 800bfba:	f884 0056 	strb.w	r0, [r4, #86]	; 0x56
 800bfbe:	f001 fa55 	bl	800d46c <RFW_SetAntSwitch>
 800bfc2:	9b16      	ldr	r3, [sp, #88]	; 0x58
 800bfc4:	6063      	str	r3, [r4, #4]
 800bfc6:	b005      	add	sp, #20
 800bfc8:	e8bd 8ff0 	ldmia.w	sp!, {r4, r5, r6, r7, r8, r9, sl, fp, pc}
 800bfcc:	4929      	ldr	r1, [pc, #164]	; (800c074 <RadioSetTxConfig+0x16c>)
 800bfce:	f884 a038 	strb.w	sl, [r4, #56]	; 0x38
 800bfd2:	5d89      	ldrb	r1, [r1, r6]
 800bfd4:	f884 1051 	strb.w	r1, [r4, #81]	; 0x51
 800bfd8:	b2ea      	uxtb	r2, r5
 800bfda:	f89d 103c 	ldrb.w	r1, [sp, #60]	; 0x3c
 800bfde:	f884 2050 	strb.w	r2, [r4, #80]	; 0x50
 800bfe2:	f884 1052 	strb.w	r1, [r4, #82]	; 0x52
 800bfe6:	bb36      	cbnz	r6, 800c036 <RadioSetTxConfig+0x12e>
 800bfe8:	3d0b      	subs	r5, #11
 800bfea:	2d01      	cmp	r5, #1
 800bfec:	bf8c      	ite	hi
 800bfee:	2500      	movhi	r5, #0
 800bff0:	2501      	movls	r5, #1
 800bff2:	2101      	movs	r1, #1
 800bff4:	3a05      	subs	r2, #5
 800bff6:	428a      	cmp	r2, r1
 800bff8:	f884 5053 	strb.w	r5, [r4, #83]	; 0x53
 800bffc:	73a1      	strb	r1, [r4, #14]
 800bffe:	d823      	bhi.n	800c048 <RadioSetTxConfig+0x140>
 800c000:	f1bb 0f0b 	cmp.w	fp, #11
 800c004:	d820      	bhi.n	800c048 <RadioSetTxConfig+0x140>
 800c006:	230c      	movs	r3, #12
 800c008:	83a3      	strh	r3, [r4, #28]
 800c00a:	4b1b      	ldr	r3, [pc, #108]	; (800c078 <RadioSetTxConfig+0x170>)
 800c00c:	77a7      	strb	r7, [r4, #30]
 800c00e:	781b      	ldrb	r3, [r3, #0]
 800c010:	77e3      	strb	r3, [r4, #31]
 800c012:	f89d 3054 	ldrb.w	r3, [sp, #84]	; 0x54
 800c016:	f884 3021 	strb.w	r3, [r4, #33]	; 0x21
 800c01a:	f884 9020 	strb.w	r9, [r4, #32]
 800c01e:	f7ff fbf5 	bl	800b80c <RadioStandby>
 800c022:	2001      	movs	r0, #1
 800c024:	f7ff fd06 	bl	800ba34 <RadioSetModem>
 800c028:	4814      	ldr	r0, [pc, #80]	; (800c07c <RadioSetTxConfig+0x174>)
 800c02a:	f000 fe6d 	bl	800cd08 <SUBGRF_SetModulationParams>
 800c02e:	4814      	ldr	r0, [pc, #80]	; (800c080 <RadioSetTxConfig+0x178>)
 800c030:	f001 f84e 	bl	800d0d0 <SUBGRF_SetPacketParams>
 800c034:	e7be      	b.n	800bfb4 <RadioSetTxConfig+0xac>
 800c036:	2e01      	cmp	r6, #1
 800c038:	d104      	bne.n	800c044 <RadioSetTxConfig+0x13c>
 800c03a:	f1a5 030c 	sub.w	r3, r5, #12
 800c03e:	425d      	negs	r5, r3
 800c040:	415d      	adcs	r5, r3
 800c042:	e7d6      	b.n	800bff2 <RadioSetTxConfig+0xea>
 800c044:	2500      	movs	r5, #0
 800c046:	e7d4      	b.n	800bff2 <RadioSetTxConfig+0xea>
 800c048:	f8a4 b01c 	strh.w	fp, [r4, #28]
 800c04c:	e7dd      	b.n	800c00a <RadioSetTxConfig+0x102>
 800c04e:	4650      	mov	r0, sl
 800c050:	f7ff fcf0 	bl	800ba34 <RadioSetModem>
 800c054:	2302      	movs	r3, #2
 800c056:	f884 3038 	strb.w	r3, [r4, #56]	; 0x38
 800c05a:	f104 0038 	add.w	r0, r4, #56	; 0x38
 800c05e:	2316      	movs	r3, #22
 800c060:	64a5      	str	r5, [r4, #72]	; 0x48
 800c062:	f884 304c 	strb.w	r3, [r4, #76]	; 0x4c
 800c066:	f000 fe4f 	bl	800cd08 <SUBGRF_SetModulationParams>
 800c06a:	e7a3      	b.n	800bfb4 <RadioSetTxConfig+0xac>
 800c06c:	20001bd4 	.word	0x20001bd4
 800c070:	0800e934 	.word	0x0800e934
 800c074:	0800ee0b 	.word	0x0800ee0b
 800c078:	20000118 	.word	0x20000118
 800c07c:	20001c0c 	.word	0x20001c0c
 800c080:	20001be2 	.word	0x20001be2

0800c084 <RadioSetRxConfig>:
 800c084:	e92d 4ff0 	stmdb	sp!, {r4, r5, r6, r7, r8, r9, sl, fp, lr}
 800c088:	b087      	sub	sp, #28
 800c08a:	f8df b2a8 	ldr.w	fp, [pc, #680]	; 800c334 <RadioSetRxConfig+0x2b0>
 800c08e:	f89d a064 	ldrb.w	sl, [sp, #100]	; 0x64
 800c092:	f89d 904c 	ldrb.w	r9, [sp, #76]	; 0x4c
 800c096:	9302      	str	r3, [sp, #8]
 800c098:	4614      	mov	r4, r2
 800c09a:	f89d 3054 	ldrb.w	r3, [sp, #84]	; 0x54
 800c09e:	f89d 2050 	ldrb.w	r2, [sp, #80]	; 0x50
 800c0a2:	f8bd 8048 	ldrh.w	r8, [sp, #72]	; 0x48
 800c0a6:	9203      	str	r2, [sp, #12]
 800c0a8:	4605      	mov	r5, r0
 800c0aa:	f88b a001 	strb.w	sl, [fp, #1]
 800c0ae:	f8bd 6044 	ldrh.w	r6, [sp, #68]	; 0x44
 800c0b2:	9301      	str	r3, [sp, #4]
 800c0b4:	460f      	mov	r7, r1
 800c0b6:	f001 f9d4 	bl	800d462 <RFW_DeInit>
 800c0ba:	f1ba 0f00 	cmp.w	sl, #0
 800c0be:	bf18      	it	ne
 800c0c0:	f04f 0800 	movne.w	r8, #0
 800c0c4:	f8df a270 	ldr.w	sl, [pc, #624]	; 800c338 <RadioSetRxConfig+0x2b4>
 800c0c8:	9a03      	ldr	r2, [sp, #12]
 800c0ca:	f1b9 0f00 	cmp.w	r9, #0
 800c0ce:	bf08      	it	eq
 800c0d0:	22ff      	moveq	r2, #255	; 0xff
 800c0d2:	2d01      	cmp	r5, #1
 800c0d4:	f88a 2000 	strb.w	r2, [sl]
 800c0d8:	f000 80c8 	beq.w	800c26c <RadioSetRxConfig+0x1e8>
 800c0dc:	2d05      	cmp	r5, #5
 800c0de:	d048      	beq.n	800c172 <RadioSetRxConfig+0xee>
 800c0e0:	2d00      	cmp	r5, #0
 800c0e2:	f040 80c0 	bne.w	800c266 <RadioSetRxConfig+0x1e2>
 800c0e6:	4628      	mov	r0, r5
 800c0e8:	f000 fc8c 	bl	800ca04 <SUBGRF_SetStopRxTimerOnPreambleDetect>
 800c0ec:	220b      	movs	r2, #11
 800c0ee:	4638      	mov	r0, r7
 800c0f0:	f88b 2044 	strb.w	r2, [fp, #68]	; 0x44
 800c0f4:	f88b 5038 	strb.w	r5, [fp, #56]	; 0x38
 800c0f8:	f8cb 403c 	str.w	r4, [fp, #60]	; 0x3c
 800c0fc:	f001 f954 	bl	800d3a8 <SUBGRF_GetFskBandwidthRegValue>
 800c100:	9b01      	ldr	r3, [sp, #4]
 800c102:	f88b 0045 	strb.w	r0, [fp, #69]	; 0x45
 800c106:	f641 0204 	movw	r2, #6148	; 0x1804
 800c10a:	2b00      	cmp	r3, #0
 800c10c:	f8ab 2012 	strh.w	r2, [fp, #18]
 800c110:	f89a 2000 	ldrb.w	r2, [sl]
 800c114:	f88b 2016 	strb.w	r2, [fp, #22]
 800c118:	bf14      	ite	ne
 800c11a:	22f2      	movne	r2, #242	; 0xf2
 800c11c:	2201      	moveq	r2, #1
 800c11e:	f88b 2017 	strb.w	r2, [fp, #23]
 800c122:	00f6      	lsls	r6, r6, #3
 800c124:	2201      	movs	r2, #1
 800c126:	f089 0901 	eor.w	r9, r9, #1
 800c12a:	f88b 2018 	strb.w	r2, [fp, #24]
 800c12e:	f88b 500e 	strb.w	r5, [fp, #14]
 800c132:	f8ab 6010 	strh.w	r6, [fp, #16]
 800c136:	f88b 5014 	strb.w	r5, [fp, #20]
 800c13a:	f88b 9015 	strb.w	r9, [fp, #21]
 800c13e:	f7ff fb65 	bl	800b80c <RadioStandby>
 800c142:	4628      	mov	r0, r5
 800c144:	f7ff fc76 	bl	800ba34 <RadioSetModem>
 800c148:	f10b 0038 	add.w	r0, fp, #56	; 0x38
 800c14c:	f000 fddc 	bl	800cd08 <SUBGRF_SetModulationParams>
 800c150:	f10b 000e 	add.w	r0, fp, #14
 800c154:	f000 ffbc 	bl	800d0d0 <SUBGRF_SetPacketParams>
 800c158:	4978      	ldr	r1, [pc, #480]	; (800c33c <RadioSetRxConfig+0x2b8>)
 800c15a:	6808      	ldr	r0, [r1, #0]
 800c15c:	6849      	ldr	r1, [r1, #4]
 800c15e:	aa04      	add	r2, sp, #16
 800c160:	c203      	stmia	r2!, {r0, r1}
 800c162:	a804      	add	r0, sp, #16
 800c164:	f000 ff82 	bl	800d06c <SUBGRF_SetSyncWord>
 800c168:	f240 10ff 	movw	r0, #511	; 0x1ff
 800c16c:	f000 feb6 	bl	800cedc <SUBGRF_SetWhiteningSeed>
 800c170:	e071      	b.n	800c256 <RadioSetRxConfig+0x1d2>
 800c172:	2001      	movs	r0, #1
 800c174:	f000 fc46 	bl	800ca04 <SUBGRF_SetStopRxTimerOnPreambleDetect>
 800c178:	2209      	movs	r2, #9
 800c17a:	f04f 0900 	mov.w	r9, #0
 800c17e:	f88b 2044 	strb.w	r2, [fp, #68]	; 0x44
 800c182:	4638      	mov	r0, r7
 800c184:	f44f 7248 	mov.w	r2, #800	; 0x320
 800c188:	f8cb 2040 	str.w	r2, [fp, #64]	; 0x40
 800c18c:	f88b 9038 	strb.w	r9, [fp, #56]	; 0x38
 800c190:	f8cb 403c 	str.w	r4, [fp, #60]	; 0x3c
 800c194:	f001 f908 	bl	800d3a8 <SUBGRF_GetFskBandwidthRegValue>
 800c198:	f44f 5280 	mov.w	r2, #4096	; 0x1000
 800c19c:	f8ab 2012 	strh.w	r2, [fp, #18]
 800c1a0:	f89a 2000 	ldrb.w	r2, [sl]
 800c1a4:	f88b 0045 	strb.w	r0, [fp, #69]	; 0x45
 800c1a8:	f88b 2016 	strb.w	r2, [fp, #22]
 800c1ac:	4628      	mov	r0, r5
 800c1ae:	2201      	movs	r2, #1
 800c1b0:	00f6      	lsls	r6, r6, #3
 800c1b2:	f88b 2017 	strb.w	r2, [fp, #23]
 800c1b6:	f88b 900e 	strb.w	r9, [fp, #14]
 800c1ba:	f8ab 6010 	strh.w	r6, [fp, #16]
 800c1be:	f8ab 9014 	strh.w	r9, [fp, #20]
 800c1c2:	f88b 9018 	strb.w	r9, [fp, #24]
 800c1c6:	f7ff fc35 	bl	800ba34 <RadioSetModem>
 800c1ca:	f10b 0038 	add.w	r0, fp, #56	; 0x38
 800c1ce:	f000 fd9b 	bl	800cd08 <SUBGRF_SetModulationParams>
 800c1d2:	f10b 000e 	add.w	r0, fp, #14
 800c1d6:	f000 ff7b 	bl	800d0d0 <SUBGRF_SetPacketParams>
 800c1da:	4958      	ldr	r1, [pc, #352]	; (800c33c <RadioSetRxConfig+0x2b8>)
 800c1dc:	6888      	ldr	r0, [r1, #8]
 800c1de:	68c9      	ldr	r1, [r1, #12]
 800c1e0:	aa04      	add	r2, sp, #16
 800c1e2:	c203      	stmia	r2!, {r0, r1}
 800c1e4:	a804      	add	r0, sp, #16
 800c1e6:	f000 ff41 	bl	800d06c <SUBGRF_SetSyncWord>
 800c1ea:	f240 10ff 	movw	r0, #511	; 0x1ff
 800c1ee:	f000 fe75 	bl	800cedc <SUBGRF_SetWhiteningSeed>
 800c1f2:	f640 00b8 	movw	r0, #2232	; 0x8b8
 800c1f6:	f000 fdfd 	bl	800cdf4 <SUBGRF_ReadRegister>
 800c1fa:	f000 01ef 	and.w	r1, r0, #239	; 0xef
 800c1fe:	f640 00b8 	movw	r0, #2232	; 0x8b8
 800c202:	f000 fd27 	bl	800cc54 <SUBGRF_WriteRegister>
 800c206:	2104      	movs	r1, #4
 800c208:	f640 00b9 	movw	r0, #2233	; 0x8b9
 800c20c:	f000 fd22 	bl	800cc54 <SUBGRF_WriteRegister>
 800c210:	f640 009b 	movw	r0, #2203	; 0x89b
 800c214:	f000 fdee 	bl	800cdf4 <SUBGRF_ReadRegister>
 800c218:	f000 01e3 	and.w	r1, r0, #227	; 0xe3
 800c21c:	f041 0108 	orr.w	r1, r1, #8
 800c220:	f640 009b 	movw	r0, #2203	; 0x89b
 800c224:	f000 fd16 	bl	800cc54 <SUBGRF_WriteRegister>
 800c228:	f240 60d1 	movw	r0, #1745	; 0x6d1
 800c22c:	f000 fde2 	bl	800cdf4 <SUBGRF_ReadRegister>
 800c230:	f040 0118 	orr.w	r1, r0, #24
 800c234:	b2c9      	uxtb	r1, r1
 800c236:	f240 60d1 	movw	r0, #1745	; 0x6d1
 800c23a:	f000 fd0b 	bl	800cc54 <SUBGRF_WriteRegister>
 800c23e:	f240 60ac 	movw	r0, #1708	; 0x6ac
 800c242:	f000 fdd7 	bl	800cdf4 <SUBGRF_ReadRegister>
 800c246:	f000 018f 	and.w	r1, r0, #143	; 0x8f
 800c24a:	f041 0150 	orr.w	r1, r1, #80	; 0x50
 800c24e:	f240 60ac 	movw	r0, #1708	; 0x6ac
 800c252:	f000 fcff 	bl	800cc54 <SUBGRF_WriteRegister>
 800c256:	f44f 52fa 	mov.w	r2, #8000	; 0x1f40
 800c25a:	fb02 f808 	mul.w	r8, r2, r8
 800c25e:	fbb8 f4f4 	udiv	r4, r8, r4
 800c262:	f8cb 4008 	str.w	r4, [fp, #8]
 800c266:	b007      	add	sp, #28
 800c268:	e8bd 8ff0 	ldmia.w	sp!, {r4, r5, r6, r7, r8, r9, sl, fp, pc}
 800c26c:	2000      	movs	r0, #0
 800c26e:	f000 fbc9 	bl	800ca04 <SUBGRF_SetStopRxTimerOnPreambleDetect>
 800c272:	4933      	ldr	r1, [pc, #204]	; (800c340 <RadioSetRxConfig+0x2bc>)
 800c274:	9b02      	ldr	r3, [sp, #8]
 800c276:	5dc9      	ldrb	r1, [r1, r7]
 800c278:	f88b 5038 	strb.w	r5, [fp, #56]	; 0x38
 800c27c:	b2e2      	uxtb	r2, r4
 800c27e:	f88b 2050 	strb.w	r2, [fp, #80]	; 0x50
 800c282:	f88b 1051 	strb.w	r1, [fp, #81]	; 0x51
 800c286:	f88b 3052 	strb.w	r3, [fp, #82]	; 0x52
 800c28a:	2f00      	cmp	r7, #0
 800c28c:	d140      	bne.n	800c310 <RadioSetRxConfig+0x28c>
 800c28e:	3c0b      	subs	r4, #11
 800c290:	2c01      	cmp	r4, #1
 800c292:	bf8c      	ite	hi
 800c294:	2400      	movhi	r4, #0
 800c296:	2401      	movls	r4, #1
 800c298:	2101      	movs	r1, #1
 800c29a:	3a05      	subs	r2, #5
 800c29c:	428a      	cmp	r2, r1
 800c29e:	f88b 4053 	strb.w	r4, [fp, #83]	; 0x53
 800c2a2:	f88b 100e 	strb.w	r1, [fp, #14]
 800c2a6:	d83c      	bhi.n	800c322 <RadioSetRxConfig+0x29e>
 800c2a8:	2e0b      	cmp	r6, #11
 800c2aa:	d83a      	bhi.n	800c322 <RadioSetRxConfig+0x29e>
 800c2ac:	220c      	movs	r2, #12
 800c2ae:	f8ab 201c 	strh.w	r2, [fp, #28]
 800c2b2:	f89a 2000 	ldrb.w	r2, [sl]
 800c2b6:	9b01      	ldr	r3, [sp, #4]
 800c2b8:	f88b 201f 	strb.w	r2, [fp, #31]
 800c2bc:	f89d 2060 	ldrb.w	r2, [sp, #96]	; 0x60
 800c2c0:	f88b 2021 	strb.w	r2, [fp, #33]	; 0x21
 800c2c4:	f88b 3020 	strb.w	r3, [fp, #32]
 800c2c8:	f88b 901e 	strb.w	r9, [fp, #30]
 800c2cc:	f7ff fa9e 	bl	800b80c <RadioStandby>
 800c2d0:	2001      	movs	r0, #1
 800c2d2:	f7ff fbaf 	bl	800ba34 <RadioSetModem>
 800c2d6:	481b      	ldr	r0, [pc, #108]	; (800c344 <RadioSetRxConfig+0x2c0>)
 800c2d8:	f000 fd16 	bl	800cd08 <SUBGRF_SetModulationParams>
 800c2dc:	481a      	ldr	r0, [pc, #104]	; (800c348 <RadioSetRxConfig+0x2c4>)
 800c2de:	f000 fef7 	bl	800d0d0 <SUBGRF_SetPacketParams>
 800c2e2:	fa5f f088 	uxtb.w	r0, r8
 800c2e6:	f000 fce1 	bl	800ccac <SUBGRF_SetLoRaSymbNumTimeout>
 800c2ea:	f89b 2021 	ldrb.w	r2, [fp, #33]	; 0x21
 800c2ee:	2a01      	cmp	r2, #1
 800c2f0:	f240 7036 	movw	r0, #1846	; 0x736
 800c2f4:	d118      	bne.n	800c328 <RadioSetRxConfig+0x2a4>
 800c2f6:	f000 fd7d 	bl	800cdf4 <SUBGRF_ReadRegister>
 800c2fa:	f000 01fb 	and.w	r1, r0, #251	; 0xfb
 800c2fe:	f240 7036 	movw	r0, #1846	; 0x736
 800c302:	f000 fca7 	bl	800cc54 <SUBGRF_WriteRegister>
 800c306:	f64f 72ff 	movw	r2, #65535	; 0xffff
 800c30a:	f8cb 2008 	str.w	r2, [fp, #8]
 800c30e:	e7aa      	b.n	800c266 <RadioSetRxConfig+0x1e2>
 800c310:	2f01      	cmp	r7, #1
 800c312:	d104      	bne.n	800c31e <RadioSetRxConfig+0x29a>
 800c314:	f1a4 030c 	sub.w	r3, r4, #12
 800c318:	425c      	negs	r4, r3
 800c31a:	415c      	adcs	r4, r3
 800c31c:	e7bc      	b.n	800c298 <RadioSetRxConfig+0x214>
 800c31e:	2400      	movs	r4, #0
 800c320:	e7ba      	b.n	800c298 <RadioSetRxConfig+0x214>
 800c322:	f8ab 601c 	strh.w	r6, [fp, #28]
 800c326:	e7c4      	b.n	800c2b2 <RadioSetRxConfig+0x22e>
 800c328:	f000 fd64 	bl	800cdf4 <SUBGRF_ReadRegister>
 800c32c:	f040 0104 	orr.w	r1, r0, #4
 800c330:	b2c9      	uxtb	r1, r1
 800c332:	e7e4      	b.n	800c2fe <RadioSetRxConfig+0x27a>
 800c334:	20001bd4 	.word	0x20001bd4
 800c338:	20000118 	.word	0x20000118
 800c33c:	0800e934 	.word	0x0800e934
 800c340:	0800ee0b 	.word	0x0800ee0b
 800c344:	20001c0c 	.word	0x20001c0c
 800c348:	20001be2 	.word	0x20001be2

0800c34c <RadioIsChannelFree>:
 800c34c:	b5f0      	push	{r4, r5, r6, r7, lr}
 800c34e:	b08b      	sub	sp, #44	; 0x2c
 800c350:	460d      	mov	r5, r1
 800c352:	4604      	mov	r4, r0
 800c354:	4617      	mov	r7, r2
 800c356:	461e      	mov	r6, r3
 800c358:	f7ff fa58 	bl	800b80c <RadioStandby>
 800c35c:	2000      	movs	r0, #0
 800c35e:	f7ff fb69 	bl	800ba34 <RadioSetModem>
 800c362:	4620      	mov	r0, r4
 800c364:	f000 fbfa 	bl	800cb5c <SUBGRF_SetRfFrequency>
 800c368:	2400      	movs	r4, #0
 800c36a:	2301      	movs	r3, #1
 800c36c:	e9cd 4308 	strd	r4, r3, [sp, #32]
 800c370:	2303      	movs	r3, #3
 800c372:	f44f 7216 	mov.w	r2, #600	; 0x258
 800c376:	4629      	mov	r1, r5
 800c378:	4620      	mov	r0, r4
 800c37a:	e9cd 4406 	strd	r4, r4, [sp, #24]
 800c37e:	e9cd 4404 	strd	r4, r4, [sp, #16]
 800c382:	e9cd 4402 	strd	r4, r4, [sp, #8]
 800c386:	e9cd 5300 	strd	r5, r3, [sp]
 800c38a:	4623      	mov	r3, r4
 800c38c:	f7ff fe7a 	bl	800c084 <RadioSetRxConfig>
 800c390:	4620      	mov	r0, r4
 800c392:	f7ff fa8d 	bl	800b8b0 <RadioRx>
 800c396:	f7ff fa4b 	bl	800b830 <RadioGetWakeupTime>
 800c39a:	f7f5 f8e1 	bl	8001560 <HAL_Delay>
 800c39e:	f001 fbbf 	bl	800db20 <UTIL_TIMER_GetCurrentTime>
 800c3a2:	4604      	mov	r4, r0
 800c3a4:	4620      	mov	r0, r4
 800c3a6:	f001 fbc5 	bl	800db34 <UTIL_TIMER_GetElapsedTime>
 800c3aa:	42b0      	cmp	r0, r6
 800c3ac:	d305      	bcc.n	800c3ba <RadioIsChannelFree+0x6e>
 800c3ae:	2401      	movs	r4, #1
 800c3b0:	f7ff fa2c 	bl	800b80c <RadioStandby>
 800c3b4:	4620      	mov	r0, r4
 800c3b6:	b00b      	add	sp, #44	; 0x2c
 800c3b8:	bdf0      	pop	{r4, r5, r6, r7, pc}
 800c3ba:	f000 fc02 	bl	800cbc2 <SUBGRF_GetRssiInst>
 800c3be:	b200      	sxth	r0, r0
 800c3c0:	4287      	cmp	r7, r0
 800c3c2:	daef      	bge.n	800c3a4 <RadioIsChannelFree+0x58>
 800c3c4:	2400      	movs	r4, #0
 800c3c6:	e7f3      	b.n	800c3b0 <RadioIsChannelFree+0x64>

0800c3c8 <RadioSend>:
 800c3c8:	b5f7      	push	{r0, r1, r2, r4, r5, r6, r7, lr}
 800c3ca:	2300      	movs	r3, #0
 800c3cc:	4d64      	ldr	r5, [pc, #400]	; (800c560 <RadioSend+0x198>)
 800c3ce:	460c      	mov	r4, r1
 800c3d0:	f240 2101 	movw	r1, #513	; 0x201
 800c3d4:	461a      	mov	r2, r3
 800c3d6:	4606      	mov	r6, r0
 800c3d8:	4608      	mov	r0, r1
 800c3da:	f000 fb8d 	bl	800caf8 <SUBGRF_SetDioIrqParams>
 800c3de:	f895 0056 	ldrb.w	r0, [r5, #86]	; 0x56
 800c3e2:	2101      	movs	r1, #1
 800c3e4:	f000 ff71 	bl	800d2ca <SUBGRF_SetSwitch>
 800c3e8:	782b      	ldrb	r3, [r5, #0]
 800c3ea:	2b01      	cmp	r3, #1
 800c3ec:	f640 0089 	movw	r0, #2185	; 0x889
 800c3f0:	d113      	bne.n	800c41a <RadioSend+0x52>
 800c3f2:	f895 3051 	ldrb.w	r3, [r5, #81]	; 0x51
 800c3f6:	2b06      	cmp	r3, #6
 800c3f8:	d10f      	bne.n	800c41a <RadioSend+0x52>
 800c3fa:	f000 fcfb 	bl	800cdf4 <SUBGRF_ReadRegister>
 800c3fe:	f000 01fb 	and.w	r1, r0, #251	; 0xfb
 800c402:	f640 0089 	movw	r0, #2185	; 0x889
 800c406:	f000 fc25 	bl	800cc54 <SUBGRF_WriteRegister>
 800c40a:	782b      	ldrb	r3, [r5, #0]
 800c40c:	2b04      	cmp	r3, #4
 800c40e:	d86e      	bhi.n	800c4ee <RadioSend+0x126>
 800c410:	e8df f003 	tbb	[pc, r3]
 800c414:	79544d54 	.word	0x79544d54
 800c418:	09          	.byte	0x09
 800c419:	00          	.byte	0x00
 800c41a:	f000 fceb 	bl	800cdf4 <SUBGRF_ReadRegister>
 800c41e:	f040 0104 	orr.w	r1, r0, #4
 800c422:	b2c9      	uxtb	r1, r1
 800c424:	e7ed      	b.n	800c402 <RadioSend+0x3a>
 800c426:	4a4f      	ldr	r2, [pc, #316]	; (800c564 <RadioSend+0x19c>)
 800c428:	1e73      	subs	r3, r6, #1
 800c42a:	4610      	mov	r0, r2
 800c42c:	f1c6 0701 	rsb	r7, r6, #1
 800c430:	f04f 0c00 	mov.w	ip, #0
 800c434:	18f9      	adds	r1, r7, r3
 800c436:	428c      	cmp	r4, r1
 800c438:	dc69      	bgt.n	800c50e <RadioSend+0x146>
 800c43a:	2300      	movs	r3, #0
 800c43c:	00e7      	lsls	r7, r4, #3
 800c43e:	4619      	mov	r1, r3
 800c440:	42bb      	cmp	r3, r7
 800c442:	d16b      	bne.n	800c51c <RadioSend+0x154>
 800c444:	2900      	cmp	r1, #0
 800c446:	ea4f 1381 	mov.w	r3, r1, lsl #6
 800c44a:	bf0c      	ite	eq
 800c44c:	2220      	moveq	r2, #32
 800c44e:	2200      	movne	r2, #0
 800c450:	ea43 13c1 	orr.w	r3, r3, r1, lsl #7
 800c454:	4313      	orrs	r3, r2
 800c456:	1c66      	adds	r6, r4, #1
 800c458:	5503      	strb	r3, [r0, r4]
 800c45a:	b2f6      	uxtb	r6, r6
 800c45c:	2302      	movs	r3, #2
 800c45e:	4842      	ldr	r0, [pc, #264]	; (800c568 <RadioSend+0x1a0>)
 800c460:	73ab      	strb	r3, [r5, #14]
 800c462:	76ae      	strb	r6, [r5, #26]
 800c464:	f000 fe34 	bl	800d0d0 <SUBGRF_SetPacketParams>
 800c468:	2100      	movs	r1, #0
 800c46a:	20f1      	movs	r0, #241	; 0xf1
 800c46c:	f000 fbf2 	bl	800cc54 <SUBGRF_WriteRegister>
 800c470:	2100      	movs	r1, #0
 800c472:	20f0      	movs	r0, #240	; 0xf0
 800c474:	f000 fbee 	bl	800cc54 <SUBGRF_WriteRegister>
 800c478:	6cab      	ldr	r3, [r5, #72]	; 0x48
 800c47a:	2b64      	cmp	r3, #100	; 0x64
 800c47c:	d167      	bne.n	800c54e <RadioSend+0x186>
 800c47e:	2170      	movs	r1, #112	; 0x70
 800c480:	20f3      	movs	r0, #243	; 0xf3
 800c482:	f000 fbe7 	bl	800cc54 <SUBGRF_WriteRegister>
 800c486:	211d      	movs	r1, #29
 800c488:	20f2      	movs	r0, #242	; 0xf2
 800c48a:	f000 fbe3 	bl	800cc54 <SUBGRF_WriteRegister>
 800c48e:	00e1      	lsls	r1, r4, #3
 800c490:	1c8c      	adds	r4, r1, #2
 800c492:	20f4      	movs	r0, #244	; 0xf4
 800c494:	0a09      	lsrs	r1, r1, #8
 800c496:	f000 fbdd 	bl	800cc54 <SUBGRF_WriteRegister>
 800c49a:	f004 01fe 	and.w	r1, r4, #254	; 0xfe
 800c49e:	20f5      	movs	r0, #245	; 0xf5
 800c4a0:	f000 fbd8 	bl	800cc54 <SUBGRF_WriteRegister>
 800c4a4:	482f      	ldr	r0, [pc, #188]	; (800c564 <RadioSend+0x19c>)
 800c4a6:	f06f 427f 	mvn.w	r2, #4278190080	; 0xff000000
 800c4aa:	4631      	mov	r1, r6
 800c4ac:	e01d      	b.n	800c4ea <RadioSend+0x122>
 800c4ae:	77ec      	strb	r4, [r5, #31]
 800c4b0:	482d      	ldr	r0, [pc, #180]	; (800c568 <RadioSend+0x1a0>)
 800c4b2:	f000 fe0d 	bl	800d0d0 <SUBGRF_SetPacketParams>
 800c4b6:	2200      	movs	r2, #0
 800c4b8:	4621      	mov	r1, r4
 800c4ba:	e015      	b.n	800c4e8 <RadioSend+0x120>
 800c4bc:	f000 ffd2 	bl	800d464 <RFW_Is_Init>
 800c4c0:	2801      	cmp	r0, #1
 800c4c2:	d11e      	bne.n	800c502 <RadioSend+0x13a>
 800c4c4:	4621      	mov	r1, r4
 800c4c6:	f10d 0207 	add.w	r2, sp, #7
 800c4ca:	4630      	mov	r0, r6
 800c4cc:	f000 ffcf 	bl	800d46e <RFW_TransmitInit>
 800c4d0:	4604      	mov	r4, r0
 800c4d2:	2800      	cmp	r0, #0
 800c4d4:	d141      	bne.n	800c55a <RadioSend+0x192>
 800c4d6:	f89d 3007 	ldrb.w	r3, [sp, #7]
 800c4da:	4823      	ldr	r0, [pc, #140]	; (800c568 <RadioSend+0x1a0>)
 800c4dc:	75ab      	strb	r3, [r5, #22]
 800c4de:	f000 fdf7 	bl	800d0d0 <SUBGRF_SetPacketParams>
 800c4e2:	f89d 1007 	ldrb.w	r1, [sp, #7]
 800c4e6:	4622      	mov	r2, r4
 800c4e8:	4630      	mov	r0, r6
 800c4ea:	f000 febc 	bl	800d266 <SUBGRF_SendPayload>
 800c4ee:	6869      	ldr	r1, [r5, #4]
 800c4f0:	481e      	ldr	r0, [pc, #120]	; (800c56c <RadioSend+0x1a4>)
 800c4f2:	f001 fbe3 	bl	800dcbc <UTIL_TIMER_SetPeriod>
 800c4f6:	481d      	ldr	r0, [pc, #116]	; (800c56c <RadioSend+0x1a4>)
 800c4f8:	b003      	add	sp, #12
 800c4fa:	e8bd 40f0 	ldmia.w	sp!, {r4, r5, r6, r7, lr}
 800c4fe:	f001 bba3 	b.w	800dc48 <UTIL_TIMER_Start>
 800c502:	75ac      	strb	r4, [r5, #22]
 800c504:	e7d4      	b.n	800c4b0 <RadioSend+0xe8>
 800c506:	2302      	movs	r3, #2
 800c508:	73ab      	strb	r3, [r5, #14]
 800c50a:	76ac      	strb	r4, [r5, #26]
 800c50c:	e7d0      	b.n	800c4b0 <RadioSend+0xe8>
 800c50e:	f813 1f01 	ldrb.w	r1, [r3, #1]!
 800c512:	43c9      	mvns	r1, r1
 800c514:	7019      	strb	r1, [r3, #0]
 800c516:	f802 cb01 	strb.w	ip, [r2], #1
 800c51a:	e78b      	b.n	800c434 <RadioSend+0x6c>
 800c51c:	43da      	mvns	r2, r3
 800c51e:	f002 0c07 	and.w	ip, r2, #7
 800c522:	10da      	asrs	r2, r3, #3
 800c524:	3301      	adds	r3, #1
 800c526:	5cb2      	ldrb	r2, [r6, r2]
 800c528:	fa42 f20c 	asr.w	r2, r2, ip
 800c52c:	f002 0201 	and.w	r2, r2, #1
 800c530:	ea4f 0ce3 	mov.w	ip, r3, asr #3
 800c534:	4051      	eors	r1, r2
 800c536:	43da      	mvns	r2, r3
 800c538:	f810 e00c 	ldrb.w	lr, [r0, ip]
 800c53c:	f002 0207 	and.w	r2, r2, #7
 800c540:	fa01 f202 	lsl.w	r2, r1, r2
 800c544:	ea42 020e 	orr.w	r2, r2, lr
 800c548:	f800 200c 	strb.w	r2, [r0, ip]
 800c54c:	e778      	b.n	800c440 <RadioSend+0x78>
 800c54e:	21e1      	movs	r1, #225	; 0xe1
 800c550:	20f3      	movs	r0, #243	; 0xf3
 800c552:	f000 fb7f 	bl	800cc54 <SUBGRF_WriteRegister>
 800c556:	2104      	movs	r1, #4
 800c558:	e796      	b.n	800c488 <RadioSend+0xc0>
 800c55a:	b003      	add	sp, #12
 800c55c:	bdf0      	pop	{r4, r5, r6, r7, pc}
 800c55e:	bf00      	nop
 800c560:	20001bd4 	.word	0x20001bd4
 800c564:	20001ab8 	.word	0x20001ab8
 800c568:	20001be2 	.word	0x20001be2
 800c56c:	20001c30 	.word	0x20001c30

0800c570 <RadioTimeOnAir>:
 800c570:	b5f0      	push	{r4, r5, r6, r7, lr}
 800c572:	f8bd 4014 	ldrh.w	r4, [sp, #20]
 800c576:	f89d c018 	ldrb.w	ip, [sp, #24]
 800c57a:	f89d 701c 	ldrb.w	r7, [sp, #28]
 800c57e:	f89d 5020 	ldrb.w	r5, [sp, #32]
 800c582:	b140      	cbz	r0, 800c596 <RadioTimeOnAir+0x26>
 800c584:	2801      	cmp	r0, #1
 800c586:	d019      	beq.n	800c5bc <RadioTimeOnAir+0x4c>
 800c588:	2201      	movs	r2, #1
 800c58a:	2400      	movs	r4, #0
 800c58c:	18a0      	adds	r0, r4, r2
 800c58e:	3801      	subs	r0, #1
 800c590:	fbb0 f0f2 	udiv	r0, r0, r2
 800c594:	bdf0      	pop	{r4, r5, r6, r7, pc}
 800c596:	f1bc 0f00 	cmp.w	ip, #0
 800c59a:	bf0c      	ite	eq
 800c59c:	2308      	moveq	r3, #8
 800c59e:	2300      	movne	r3, #0
 800c5a0:	2d00      	cmp	r5, #0
 800c5a2:	eb03 04c4 	add.w	r4, r3, r4, lsl #3
 800c5a6:	bf14      	ite	ne
 800c5a8:	2002      	movne	r0, #2
 800c5aa:	2000      	moveq	r0, #0
 800c5ac:	3418      	adds	r4, #24
 800c5ae:	4438      	add	r0, r7
 800c5b0:	eb04 00c0 	add.w	r0, r4, r0, lsl #3
 800c5b4:	f44f 747a 	mov.w	r4, #1000	; 0x3e8
 800c5b8:	4344      	muls	r4, r0
 800c5ba:	e7e7      	b.n	800c58c <RadioTimeOnAir+0x1c>
 800c5bc:	1f50      	subs	r0, r2, #5
 800c5be:	2801      	cmp	r0, #1
 800c5c0:	f103 0304 	add.w	r3, r3, #4
 800c5c4:	d802      	bhi.n	800c5cc <RadioTimeOnAir+0x5c>
 800c5c6:	2c0c      	cmp	r4, #12
 800c5c8:	bf38      	it	cc
 800c5ca:	240c      	movcc	r4, #12
 800c5cc:	2900      	cmp	r1, #0
 800c5ce:	d137      	bne.n	800c640 <RadioTimeOnAir+0xd0>
 800c5d0:	f1a2 060b 	sub.w	r6, r2, #11
 800c5d4:	2e01      	cmp	r6, #1
 800c5d6:	bf8c      	ite	hi
 800c5d8:	2600      	movhi	r6, #0
 800c5da:	2601      	movls	r6, #1
 800c5dc:	2d00      	cmp	r5, #0
 800c5de:	bf14      	ite	ne
 800c5e0:	2010      	movne	r0, #16
 800c5e2:	2000      	moveq	r0, #0
 800c5e4:	eb00 00c7 	add.w	r0, r0, r7, lsl #3
 800c5e8:	f1bc 0f00 	cmp.w	ip, #0
 800c5ec:	bf14      	ite	ne
 800c5ee:	2700      	movne	r7, #0
 800c5f0:	2714      	moveq	r7, #20
 800c5f2:	eba0 0082 	sub.w	r0, r0, r2, lsl #2
 800c5f6:	2a06      	cmp	r2, #6
 800c5f8:	4438      	add	r0, r7
 800c5fa:	ea4f 0582 	mov.w	r5, r2, lsl #2
 800c5fe:	f1a2 0702 	sub.w	r7, r2, #2
 800c602:	d902      	bls.n	800c60a <RadioTimeOnAir+0x9a>
 800c604:	3008      	adds	r0, #8
 800c606:	b106      	cbz	r6, 800c60a <RadioTimeOnAir+0x9a>
 800c608:	00bd      	lsls	r5, r7, #2
 800c60a:	2800      	cmp	r0, #0
 800c60c:	bfac      	ite	ge
 800c60e:	182e      	addge	r6, r5, r0
 800c610:	1c2e      	addlt	r6, r5, #0
 800c612:	1e70      	subs	r0, r6, #1
 800c614:	fb90 f5f5 	sdiv	r5, r0, r5
 800c618:	fb03 4405 	mla	r4, r3, r5, r4
 800c61c:	4b0d      	ldr	r3, [pc, #52]	; (800c654 <RadioTimeOnAir+0xe4>)
 800c61e:	5c5b      	ldrb	r3, [r3, r1]
 800c620:	2a06      	cmp	r2, #6
 800c622:	bf8c      	ite	hi
 800c624:	340c      	addhi	r4, #12
 800c626:	340e      	addls	r4, #14
 800c628:	2b0a      	cmp	r3, #10
 800c62a:	d812      	bhi.n	800c652 <RadioTimeOnAir+0xe2>
 800c62c:	00a4      	lsls	r4, r4, #2
 800c62e:	4a0a      	ldr	r2, [pc, #40]	; (800c658 <RadioTimeOnAir+0xe8>)
 800c630:	3401      	adds	r4, #1
 800c632:	40bc      	lsls	r4, r7
 800c634:	f44f 707a 	mov.w	r0, #1000	; 0x3e8
 800c638:	f852 2023 	ldr.w	r2, [r2, r3, lsl #2]
 800c63c:	4344      	muls	r4, r0
 800c63e:	e7a5      	b.n	800c58c <RadioTimeOnAir+0x1c>
 800c640:	2901      	cmp	r1, #1
 800c642:	d104      	bne.n	800c64e <RadioTimeOnAir+0xde>
 800c644:	2a0c      	cmp	r2, #12
 800c646:	bf14      	ite	ne
 800c648:	2600      	movne	r6, #0
 800c64a:	2601      	moveq	r6, #1
 800c64c:	e7c6      	b.n	800c5dc <RadioTimeOnAir+0x6c>
 800c64e:	2600      	movs	r6, #0
 800c650:	e7c4      	b.n	800c5dc <RadioTimeOnAir+0x6c>
 800c652:	deff      	udf	#255	; 0xff
 800c654:	0800ee0b 	.word	0x0800ee0b
 800c658:	0800ee10 	.word	0x0800ee10

0800c65c <RadioTxPrbs>:
 800c65c:	b508      	push	{r3, lr}
 800c65e:	4b09      	ldr	r3, [pc, #36]	; (800c684 <RadioTxPrbs+0x28>)
 800c660:	2101      	movs	r1, #1
 800c662:	f893 0056 	ldrb.w	r0, [r3, #86]	; 0x56
 800c666:	f000 fe30 	bl	800d2ca <SUBGRF_SetSwitch>
 800c66a:	f44f 60d7 	mov.w	r0, #1720	; 0x6b8
 800c66e:	212d      	movs	r1, #45	; 0x2d
 800c670:	f000 faf0 	bl	800cc54 <SUBGRF_WriteRegister>
 800c674:	f000 f9c1 	bl	800c9fa <SUBGRF_SetTxInfinitePreamble>
 800c678:	e8bd 4008 	ldmia.w	sp!, {r3, lr}
 800c67c:	4802      	ldr	r0, [pc, #8]	; (800c688 <RadioTxPrbs+0x2c>)
 800c67e:	f000 b961 	b.w	800c944 <SUBGRF_SetTx>
 800c682:	bf00      	nop
 800c684:	20001bd4 	.word	0x20001bd4
 800c688:	000fffff 	.word	0x000fffff

0800c68c <RadioIrqProcess>:
 800c68c:	b573      	push	{r0, r1, r4, r5, r6, lr}
 800c68e:	4c85      	ldr	r4, [pc, #532]	; (800c8a4 <RadioIrqProcess+0x218>)
 800c690:	f8b4 3054 	ldrh.w	r3, [r4, #84]	; 0x54
 800c694:	2500      	movs	r5, #0
 800c696:	2b20      	cmp	r3, #32
 800c698:	f88d 5003 	strb.w	r5, [sp, #3]
 800c69c:	9501      	str	r5, [sp, #4]
 800c69e:	f000 80e9 	beq.w	800c874 <RadioIrqProcess+0x1e8>
 800c6a2:	d80f      	bhi.n	800c6c4 <RadioIrqProcess+0x38>
 800c6a4:	3b01      	subs	r3, #1
 800c6a6:	b29a      	uxth	r2, r3
 800c6a8:	2a07      	cmp	r2, #7
 800c6aa:	d815      	bhi.n	800c6d8 <RadioIrqProcess+0x4c>
 800c6ac:	2b07      	cmp	r3, #7
 800c6ae:	d813      	bhi.n	800c6d8 <RadioIrqProcess+0x4c>
 800c6b0:	e8df f013 	tbh	[pc, r3, lsl #1]
 800c6b4:	003d0028 	.word	0x003d0028
 800c6b8:	00ae0012 	.word	0x00ae0012
 800c6bc:	00120012 	.word	0x00120012
 800c6c0:	00d80012 	.word	0x00d80012
 800c6c4:	f5b3 7f80 	cmp.w	r3, #256	; 0x100
 800c6c8:	f000 8088 	beq.w	800c7dc <RadioIrqProcess+0x150>
 800c6cc:	d806      	bhi.n	800c6dc <RadioIrqProcess+0x50>
 800c6ce:	2b40      	cmp	r3, #64	; 0x40
 800c6d0:	f000 80dd 	beq.w	800c88e <RadioIrqProcess+0x202>
 800c6d4:	2b80      	cmp	r3, #128	; 0x80
 800c6d6:	d074      	beq.n	800c7c2 <RadioIrqProcess+0x136>
 800c6d8:	b002      	add	sp, #8
 800c6da:	bd70      	pop	{r4, r5, r6, pc}
 800c6dc:	f5b3 7f00 	cmp.w	r3, #512	; 0x200
 800c6e0:	d1fa      	bne.n	800c6d8 <RadioIrqProcess+0x4c>
 800c6e2:	f000 f913 	bl	800c90c <SUBGRF_GetOperatingMode>
 800c6e6:	2804      	cmp	r0, #4
 800c6e8:	f040 8086 	bne.w	800c7f8 <RadioIrqProcess+0x16c>
 800c6ec:	486e      	ldr	r0, [pc, #440]	; (800c8a8 <RadioIrqProcess+0x21c>)
 800c6ee:	f001 fa5b 	bl	800dba8 <UTIL_TIMER_Stop>
 800c6f2:	4628      	mov	r0, r5
 800c6f4:	f000 f910 	bl	800c918 <SUBGRF_SetStandby>
 800c6f8:	4b6c      	ldr	r3, [pc, #432]	; (800c8ac <RadioIrqProcess+0x220>)
 800c6fa:	681b      	ldr	r3, [r3, #0]
 800c6fc:	2b00      	cmp	r3, #0
 800c6fe:	d0eb      	beq.n	800c6d8 <RadioIrqProcess+0x4c>
 800c700:	685b      	ldr	r3, [r3, #4]
 800c702:	e010      	b.n	800c726 <RadioIrqProcess+0x9a>
 800c704:	4868      	ldr	r0, [pc, #416]	; (800c8a8 <RadioIrqProcess+0x21c>)
 800c706:	f001 fa4f 	bl	800dba8 <UTIL_TIMER_Stop>
 800c70a:	2000      	movs	r0, #0
 800c70c:	f000 f904 	bl	800c918 <SUBGRF_SetStandby>
 800c710:	f000 feaa 	bl	800d468 <RFW_Is_LongPacketModeEnabled>
 800c714:	2801      	cmp	r0, #1
 800c716:	d101      	bne.n	800c71c <RadioIrqProcess+0x90>
 800c718:	f000 feaf 	bl	800d47a <RFW_DeInit_TxLongPacket>
 800c71c:	4b63      	ldr	r3, [pc, #396]	; (800c8ac <RadioIrqProcess+0x220>)
 800c71e:	681b      	ldr	r3, [r3, #0]
 800c720:	2b00      	cmp	r3, #0
 800c722:	d0d9      	beq.n	800c6d8 <RadioIrqProcess+0x4c>
 800c724:	681b      	ldr	r3, [r3, #0]
 800c726:	2b00      	cmp	r3, #0
 800c728:	d0d6      	beq.n	800c6d8 <RadioIrqProcess+0x4c>
 800c72a:	4798      	blx	r3
 800c72c:	e7d4      	b.n	800c6d8 <RadioIrqProcess+0x4c>
 800c72e:	4860      	ldr	r0, [pc, #384]	; (800c8b0 <RadioIrqProcess+0x224>)
 800c730:	f001 fa3a 	bl	800dba8 <UTIL_TIMER_Stop>
 800c734:	7865      	ldrb	r5, [r4, #1]
 800c736:	b995      	cbnz	r5, 800c75e <RadioIrqProcess+0xd2>
 800c738:	4628      	mov	r0, r5
 800c73a:	f000 f8ed 	bl	800c918 <SUBGRF_SetStandby>
 800c73e:	4629      	mov	r1, r5
 800c740:	f640 1002 	movw	r0, #2306	; 0x902
 800c744:	f000 fa86 	bl	800cc54 <SUBGRF_WriteRegister>
 800c748:	f640 1044 	movw	r0, #2372	; 0x944
 800c74c:	f000 fb52 	bl	800cdf4 <SUBGRF_ReadRegister>
 800c750:	f040 0102 	orr.w	r1, r0, #2
 800c754:	b2c9      	uxtb	r1, r1
 800c756:	f640 1044 	movw	r0, #2372	; 0x944
 800c75a:	f000 fa7b 	bl	800cc54 <SUBGRF_WriteRegister>
 800c75e:	22ff      	movs	r2, #255	; 0xff
 800c760:	f10d 0103 	add.w	r1, sp, #3
 800c764:	4853      	ldr	r0, [pc, #332]	; (800c8b4 <RadioIrqProcess+0x228>)
 800c766:	4d51      	ldr	r5, [pc, #324]	; (800c8ac <RadioIrqProcess+0x220>)
 800c768:	f000 fd96 	bl	800d298 <SUBGRF_GetPayload>
 800c76c:	4852      	ldr	r0, [pc, #328]	; (800c8b8 <RadioIrqProcess+0x22c>)
 800c76e:	f000 fa35 	bl	800cbdc <SUBGRF_GetPacketStatus>
 800c772:	682b      	ldr	r3, [r5, #0]
 800c774:	2b00      	cmp	r3, #0
 800c776:	d0af      	beq.n	800c6d8 <RadioIrqProcess+0x4c>
 800c778:	689e      	ldr	r6, [r3, #8]
 800c77a:	2e00      	cmp	r6, #0
 800c77c:	d0ac      	beq.n	800c6d8 <RadioIrqProcess+0x4c>
 800c77e:	f894 3024 	ldrb.w	r3, [r4, #36]	; 0x24
 800c782:	2b01      	cmp	r3, #1
 800c784:	d108      	bne.n	800c798 <RadioIrqProcess+0x10c>
 800c786:	f994 3031 	ldrsb.w	r3, [r4, #49]	; 0x31
 800c78a:	f994 2030 	ldrsb.w	r2, [r4, #48]	; 0x30
 800c78e:	f89d 1003 	ldrb.w	r1, [sp, #3]
 800c792:	4848      	ldr	r0, [pc, #288]	; (800c8b4 <RadioIrqProcess+0x228>)
 800c794:	47b0      	blx	r6
 800c796:	e79f      	b.n	800c6d8 <RadioIrqProcess+0x4c>
 800c798:	6be0      	ldr	r0, [r4, #60]	; 0x3c
 800c79a:	a901      	add	r1, sp, #4
 800c79c:	f000 fe18 	bl	800d3d0 <SUBGRF_GetCFO>
 800c7a0:	9b01      	ldr	r3, [sp, #4]
 800c7a2:	f89d 1003 	ldrb.w	r1, [sp, #3]
 800c7a6:	4843      	ldr	r0, [pc, #268]	; (800c8b4 <RadioIrqProcess+0x228>)
 800c7a8:	f44f 727a 	mov.w	r2, #1000	; 0x3e8
 800c7ac:	f503 73fa 	add.w	r3, r3, #500	; 0x1f4
 800c7b0:	fb93 f3f2 	sdiv	r3, r3, r2
 800c7b4:	682a      	ldr	r2, [r5, #0]
 800c7b6:	b25b      	sxtb	r3, r3
 800c7b8:	6895      	ldr	r5, [r2, #8]
 800c7ba:	f994 2029 	ldrsb.w	r2, [r4, #41]	; 0x29
 800c7be:	47a8      	blx	r5
 800c7c0:	e78a      	b.n	800c6d8 <RadioIrqProcess+0x4c>
 800c7c2:	4628      	mov	r0, r5
 800c7c4:	f000 f8a8 	bl	800c918 <SUBGRF_SetStandby>
 800c7c8:	4b38      	ldr	r3, [pc, #224]	; (800c8ac <RadioIrqProcess+0x220>)
 800c7ca:	681b      	ldr	r3, [r3, #0]
 800c7cc:	2b00      	cmp	r3, #0
 800c7ce:	d083      	beq.n	800c6d8 <RadioIrqProcess+0x4c>
 800c7d0:	699b      	ldr	r3, [r3, #24]
 800c7d2:	2b00      	cmp	r3, #0
 800c7d4:	d080      	beq.n	800c6d8 <RadioIrqProcess+0x4c>
 800c7d6:	4628      	mov	r0, r5
 800c7d8:	4798      	blx	r3
 800c7da:	e77d      	b.n	800c6d8 <RadioIrqProcess+0x4c>
 800c7dc:	4628      	mov	r0, r5
 800c7de:	f000 f89b 	bl	800c918 <SUBGRF_SetStandby>
 800c7e2:	4b32      	ldr	r3, [pc, #200]	; (800c8ac <RadioIrqProcess+0x220>)
 800c7e4:	681b      	ldr	r3, [r3, #0]
 800c7e6:	2b00      	cmp	r3, #0
 800c7e8:	f43f af76 	beq.w	800c6d8 <RadioIrqProcess+0x4c>
 800c7ec:	699b      	ldr	r3, [r3, #24]
 800c7ee:	2b00      	cmp	r3, #0
 800c7f0:	f43f af72 	beq.w	800c6d8 <RadioIrqProcess+0x4c>
 800c7f4:	2001      	movs	r0, #1
 800c7f6:	e7ef      	b.n	800c7d8 <RadioIrqProcess+0x14c>
 800c7f8:	f000 f888 	bl	800c90c <SUBGRF_GetOperatingMode>
 800c7fc:	2805      	cmp	r0, #5
 800c7fe:	f47f af6b 	bne.w	800c6d8 <RadioIrqProcess+0x4c>
 800c802:	482b      	ldr	r0, [pc, #172]	; (800c8b0 <RadioIrqProcess+0x224>)
 800c804:	f001 f9d0 	bl	800dba8 <UTIL_TIMER_Stop>
 800c808:	4628      	mov	r0, r5
 800c80a:	f000 f885 	bl	800c918 <SUBGRF_SetStandby>
 800c80e:	e037      	b.n	800c880 <RadioIrqProcess+0x1f4>
 800c810:	6da1      	ldr	r1, [r4, #88]	; 0x58
 800c812:	2900      	cmp	r1, #0
 800c814:	f43f af60 	beq.w	800c6d8 <RadioIrqProcess+0x4c>
 800c818:	f3c1 4107 	ubfx	r1, r1, #16, #8
 800c81c:	f640 1003 	movw	r0, #2307	; 0x903
 800c820:	f000 fa18 	bl	800cc54 <SUBGRF_WriteRegister>
 800c824:	f894 1059 	ldrb.w	r1, [r4, #89]	; 0x59
 800c828:	f640 1004 	movw	r0, #2308	; 0x904
 800c82c:	f000 fa12 	bl	800cc54 <SUBGRF_WriteRegister>
 800c830:	f894 1058 	ldrb.w	r1, [r4, #88]	; 0x58
 800c834:	f640 1005 	movw	r0, #2309	; 0x905
 800c838:	f000 fa0c 	bl	800cc54 <SUBGRF_WriteRegister>
 800c83c:	f640 1002 	movw	r0, #2306	; 0x902
 800c840:	f000 fad8 	bl	800cdf4 <SUBGRF_ReadRegister>
 800c844:	f040 0101 	orr.w	r1, r0, #1
 800c848:	b2c9      	uxtb	r1, r1
 800c84a:	f640 1002 	movw	r0, #2306	; 0x902
 800c84e:	f000 fa01 	bl	800cc54 <SUBGRF_WriteRegister>
 800c852:	2300      	movs	r3, #0
 800c854:	f240 2162 	movw	r1, #610	; 0x262
 800c858:	461a      	mov	r2, r3
 800c85a:	4608      	mov	r0, r1
 800c85c:	65a3      	str	r3, [r4, #88]	; 0x58
 800c85e:	f000 f94b 	bl	800caf8 <SUBGRF_SetDioIrqParams>
 800c862:	e739      	b.n	800c6d8 <RadioIrqProcess+0x4c>
 800c864:	f000 fdfe 	bl	800d464 <RFW_Is_Init>
 800c868:	2801      	cmp	r0, #1
 800c86a:	f47f af35 	bne.w	800c6d8 <RadioIrqProcess+0x4c>
 800c86e:	f000 fe05 	bl	800d47c <RFW_ReceivePayload>
 800c872:	e731      	b.n	800c6d8 <RadioIrqProcess+0x4c>
 800c874:	480e      	ldr	r0, [pc, #56]	; (800c8b0 <RadioIrqProcess+0x224>)
 800c876:	f001 f997 	bl	800dba8 <UTIL_TIMER_Stop>
 800c87a:	7860      	ldrb	r0, [r4, #1]
 800c87c:	2800      	cmp	r0, #0
 800c87e:	d0c4      	beq.n	800c80a <RadioIrqProcess+0x17e>
 800c880:	4b0a      	ldr	r3, [pc, #40]	; (800c8ac <RadioIrqProcess+0x220>)
 800c882:	681b      	ldr	r3, [r3, #0]
 800c884:	2b00      	cmp	r3, #0
 800c886:	f43f af27 	beq.w	800c6d8 <RadioIrqProcess+0x4c>
 800c88a:	68db      	ldr	r3, [r3, #12]
 800c88c:	e74b      	b.n	800c726 <RadioIrqProcess+0x9a>
 800c88e:	7860      	ldrb	r0, [r4, #1]
 800c890:	b908      	cbnz	r0, 800c896 <RadioIrqProcess+0x20a>
 800c892:	f000 f841 	bl	800c918 <SUBGRF_SetStandby>
 800c896:	4b05      	ldr	r3, [pc, #20]	; (800c8ac <RadioIrqProcess+0x220>)
 800c898:	681b      	ldr	r3, [r3, #0]
 800c89a:	2b00      	cmp	r3, #0
 800c89c:	f43f af1c 	beq.w	800c6d8 <RadioIrqProcess+0x4c>
 800c8a0:	691b      	ldr	r3, [r3, #16]
 800c8a2:	e740      	b.n	800c726 <RadioIrqProcess+0x9a>
 800c8a4:	20001bd4 	.word	0x20001bd4
 800c8a8:	20001c30 	.word	0x20001c30
 800c8ac:	20001bb8 	.word	0x20001bb8
 800c8b0:	20001bbc 	.word	0x20001bbc
 800c8b4:	20001ab8 	.word	0x20001ab8
 800c8b8:	20001bf8 	.word	0x20001bf8

0800c8bc <RadioOnDioIrq>:
 800c8bc:	4b02      	ldr	r3, [pc, #8]	; (800c8c8 <RadioOnDioIrq+0xc>)
 800c8be:	f8a3 0054 	strh.w	r0, [r3, #84]	; 0x54
 800c8c2:	f7ff bee3 	b.w	800c68c <RadioIrqProcess>
 800c8c6:	bf00      	nop
 800c8c8:	20001bd4 	.word	0x20001bd4

0800c8cc <SUBGRF_WriteCommand>:
 800c8cc:	b510      	push	{r4, lr}
 800c8ce:	4613      	mov	r3, r2
 800c8d0:	f3ef 8410 	mrs	r4, PRIMASK
 800c8d4:	b672      	cpsid	i
 800c8d6:	460a      	mov	r2, r1
 800c8d8:	4601      	mov	r1, r0
 800c8da:	4803      	ldr	r0, [pc, #12]	; (800c8e8 <SUBGRF_WriteCommand+0x1c>)
 800c8dc:	f7f7 fc00 	bl	80040e0 <HAL_SUBGHZ_ExecSetCmd>
 800c8e0:	f384 8810 	msr	PRIMASK, r4
 800c8e4:	bd10      	pop	{r4, pc}
 800c8e6:	bf00      	nop
 800c8e8:	20000240 	.word	0x20000240

0800c8ec <SUBGRF_ReadCommand>:
 800c8ec:	b510      	push	{r4, lr}
 800c8ee:	4613      	mov	r3, r2
 800c8f0:	f3ef 8410 	mrs	r4, PRIMASK
 800c8f4:	b672      	cpsid	i
 800c8f6:	460a      	mov	r2, r1
 800c8f8:	4601      	mov	r1, r0
 800c8fa:	4803      	ldr	r0, [pc, #12]	; (800c908 <SUBGRF_ReadCommand+0x1c>)
 800c8fc:	f7f7 fc28 	bl	8004150 <HAL_SUBGHZ_ExecGetCmd>
 800c900:	f384 8810 	msr	PRIMASK, r4
 800c904:	bd10      	pop	{r4, pc}
 800c906:	bf00      	nop
 800c908:	20000240 	.word	0x20000240

0800c90c <SUBGRF_GetOperatingMode>:
 800c90c:	4b01      	ldr	r3, [pc, #4]	; (800c914 <SUBGRF_GetOperatingMode+0x8>)
 800c90e:	7818      	ldrb	r0, [r3, #0]
 800c910:	4770      	bx	lr
 800c912:	bf00      	nop
 800c914:	20001c4e 	.word	0x20001c4e

0800c918 <SUBGRF_SetStandby>:
 800c918:	b507      	push	{r0, r1, r2, lr}
 800c91a:	2201      	movs	r2, #1
 800c91c:	f88d 0007 	strb.w	r0, [sp, #7]
 800c920:	f10d 0107 	add.w	r1, sp, #7
 800c924:	2080      	movs	r0, #128	; 0x80
 800c926:	f7ff ffd1 	bl	800c8cc <SUBGRF_WriteCommand>
 800c92a:	f89d 3007 	ldrb.w	r3, [sp, #7]
 800c92e:	2b00      	cmp	r3, #0
 800c930:	4b03      	ldr	r3, [pc, #12]	; (800c940 <SUBGRF_SetStandby+0x28>)
 800c932:	bf0c      	ite	eq
 800c934:	2201      	moveq	r2, #1
 800c936:	2202      	movne	r2, #2
 800c938:	701a      	strb	r2, [r3, #0]
 800c93a:	b003      	add	sp, #12
 800c93c:	f85d fb04 	ldr.w	pc, [sp], #4
 800c940:	20001c4e 	.word	0x20001c4e

0800c944 <SUBGRF_SetTx>:
 800c944:	b507      	push	{r0, r1, r2, lr}
 800c946:	4b09      	ldr	r3, [pc, #36]	; (800c96c <SUBGRF_SetTx+0x28>)
 800c948:	f88d 0006 	strb.w	r0, [sp, #6]
 800c94c:	2204      	movs	r2, #4
 800c94e:	701a      	strb	r2, [r3, #0]
 800c950:	0c03      	lsrs	r3, r0, #16
 800c952:	f88d 3004 	strb.w	r3, [sp, #4]
 800c956:	2203      	movs	r2, #3
 800c958:	0a03      	lsrs	r3, r0, #8
 800c95a:	a901      	add	r1, sp, #4
 800c95c:	2083      	movs	r0, #131	; 0x83
 800c95e:	f88d 3005 	strb.w	r3, [sp, #5]
 800c962:	f7ff ffb3 	bl	800c8cc <SUBGRF_WriteCommand>
 800c966:	b003      	add	sp, #12
 800c968:	f85d fb04 	ldr.w	pc, [sp], #4
 800c96c:	20001c4e 	.word	0x20001c4e

0800c970 <SUBGRF_SetRx>:
 800c970:	b507      	push	{r0, r1, r2, lr}
 800c972:	4b09      	ldr	r3, [pc, #36]	; (800c998 <SUBGRF_SetRx+0x28>)
 800c974:	f88d 0006 	strb.w	r0, [sp, #6]
 800c978:	2205      	movs	r2, #5
 800c97a:	701a      	strb	r2, [r3, #0]
 800c97c:	0c03      	lsrs	r3, r0, #16
 800c97e:	f88d 3004 	strb.w	r3, [sp, #4]
 800c982:	2203      	movs	r2, #3
 800c984:	0a03      	lsrs	r3, r0, #8
 800c986:	a901      	add	r1, sp, #4
 800c988:	2082      	movs	r0, #130	; 0x82
 800c98a:	f88d 3005 	strb.w	r3, [sp, #5]
 800c98e:	f7ff ff9d 	bl	800c8cc <SUBGRF_WriteCommand>
 800c992:	b003      	add	sp, #12
 800c994:	f85d fb04 	ldr.w	pc, [sp], #4
 800c998:	20001c4e 	.word	0x20001c4e

0800c99c <SUBGRF_SetRxDutyCycle>:
 800c99c:	b507      	push	{r0, r1, r2, lr}
 800c99e:	0c03      	lsrs	r3, r0, #16
 800c9a0:	f88d 3000 	strb.w	r3, [sp]
 800c9a4:	0a03      	lsrs	r3, r0, #8
 800c9a6:	f88d 3001 	strb.w	r3, [sp, #1]
 800c9aa:	0c0b      	lsrs	r3, r1, #16
 800c9ac:	f88d 0002 	strb.w	r0, [sp, #2]
 800c9b0:	f88d 3003 	strb.w	r3, [sp, #3]
 800c9b4:	f88d 1005 	strb.w	r1, [sp, #5]
 800c9b8:	0a0b      	lsrs	r3, r1, #8
 800c9ba:	2206      	movs	r2, #6
 800c9bc:	4669      	mov	r1, sp
 800c9be:	2094      	movs	r0, #148	; 0x94
 800c9c0:	f88d 3004 	strb.w	r3, [sp, #4]
 800c9c4:	f7ff ff82 	bl	800c8cc <SUBGRF_WriteCommand>
 800c9c8:	4b02      	ldr	r3, [pc, #8]	; (800c9d4 <SUBGRF_SetRxDutyCycle+0x38>)
 800c9ca:	2206      	movs	r2, #6
 800c9cc:	701a      	strb	r2, [r3, #0]
 800c9ce:	b003      	add	sp, #12
 800c9d0:	f85d fb04 	ldr.w	pc, [sp], #4
 800c9d4:	20001c4e 	.word	0x20001c4e

0800c9d8 <SUBGRF_SetCad>:
 800c9d8:	2200      	movs	r2, #0
 800c9da:	b508      	push	{r3, lr}
 800c9dc:	4611      	mov	r1, r2
 800c9de:	20c5      	movs	r0, #197	; 0xc5
 800c9e0:	f7ff ff74 	bl	800c8cc <SUBGRF_WriteCommand>
 800c9e4:	4b01      	ldr	r3, [pc, #4]	; (800c9ec <SUBGRF_SetCad+0x14>)
 800c9e6:	2207      	movs	r2, #7
 800c9e8:	701a      	strb	r2, [r3, #0]
 800c9ea:	bd08      	pop	{r3, pc}
 800c9ec:	20001c4e 	.word	0x20001c4e

0800c9f0 <SUBGRF_SetTxContinuousWave>:
 800c9f0:	2200      	movs	r2, #0
 800c9f2:	4611      	mov	r1, r2
 800c9f4:	20d1      	movs	r0, #209	; 0xd1
 800c9f6:	f7ff bf69 	b.w	800c8cc <SUBGRF_WriteCommand>

0800c9fa <SUBGRF_SetTxInfinitePreamble>:
 800c9fa:	2200      	movs	r2, #0
 800c9fc:	4611      	mov	r1, r2
 800c9fe:	20d2      	movs	r0, #210	; 0xd2
 800ca00:	f7ff bf64 	b.w	800c8cc <SUBGRF_WriteCommand>

0800ca04 <SUBGRF_SetStopRxTimerOnPreambleDetect>:
 800ca04:	b507      	push	{r0, r1, r2, lr}
 800ca06:	2201      	movs	r2, #1
 800ca08:	f88d 0007 	strb.w	r0, [sp, #7]
 800ca0c:	f10d 0107 	add.w	r1, sp, #7
 800ca10:	209f      	movs	r0, #159	; 0x9f
 800ca12:	f7ff ff5b 	bl	800c8cc <SUBGRF_WriteCommand>
 800ca16:	b003      	add	sp, #12
 800ca18:	f85d fb04 	ldr.w	pc, [sp], #4

0800ca1c <SUBGRF_SetRegulatorMode>:
 800ca1c:	b507      	push	{r0, r1, r2, lr}
 800ca1e:	f7f8 fe85 	bl	800572c <RBI_IsDCDC>
 800ca22:	1e43      	subs	r3, r0, #1
 800ca24:	4258      	negs	r0, r3
 800ca26:	4158      	adcs	r0, r3
 800ca28:	f88d 0007 	strb.w	r0, [sp, #7]
 800ca2c:	2201      	movs	r2, #1
 800ca2e:	f10d 0107 	add.w	r1, sp, #7
 800ca32:	2096      	movs	r0, #150	; 0x96
 800ca34:	f7ff ff4a 	bl	800c8cc <SUBGRF_WriteCommand>
 800ca38:	b003      	add	sp, #12
 800ca3a:	f85d fb04 	ldr.w	pc, [sp], #4

0800ca3e <SUBGRF_Calibrate>:
 800ca3e:	b507      	push	{r0, r1, r2, lr}
 800ca40:	f000 007f 	and.w	r0, r0, #127	; 0x7f
 800ca44:	f88d 0007 	strb.w	r0, [sp, #7]
 800ca48:	2201      	movs	r2, #1
 800ca4a:	f10d 0107 	add.w	r1, sp, #7
 800ca4e:	2089      	movs	r0, #137	; 0x89
 800ca50:	f7ff ff3c 	bl	800c8cc <SUBGRF_WriteCommand>
 800ca54:	b003      	add	sp, #12
 800ca56:	f85d fb04 	ldr.w	pc, [sp], #4
	...

0800ca5c <SUBGRF_CalibrateImage>:
 800ca5c:	4b18      	ldr	r3, [pc, #96]	; (800cac0 <SUBGRF_CalibrateImage+0x64>)
 800ca5e:	4298      	cmp	r0, r3
 800ca60:	b507      	push	{r0, r1, r2, lr}
 800ca62:	d90d      	bls.n	800ca80 <SUBGRF_CalibrateImage+0x24>
 800ca64:	23e1      	movs	r3, #225	; 0xe1
 800ca66:	f88d 3004 	strb.w	r3, [sp, #4]
 800ca6a:	23e9      	movs	r3, #233	; 0xe9
 800ca6c:	f88d 3005 	strb.w	r3, [sp, #5]
 800ca70:	2202      	movs	r2, #2
 800ca72:	a901      	add	r1, sp, #4
 800ca74:	2098      	movs	r0, #152	; 0x98
 800ca76:	f7ff ff29 	bl	800c8cc <SUBGRF_WriteCommand>
 800ca7a:	b003      	add	sp, #12
 800ca7c:	f85d fb04 	ldr.w	pc, [sp], #4
 800ca80:	4b10      	ldr	r3, [pc, #64]	; (800cac4 <SUBGRF_CalibrateImage+0x68>)
 800ca82:	4298      	cmp	r0, r3
 800ca84:	d904      	bls.n	800ca90 <SUBGRF_CalibrateImage+0x34>
 800ca86:	23d7      	movs	r3, #215	; 0xd7
 800ca88:	f88d 3004 	strb.w	r3, [sp, #4]
 800ca8c:	23db      	movs	r3, #219	; 0xdb
 800ca8e:	e7ed      	b.n	800ca6c <SUBGRF_CalibrateImage+0x10>
 800ca90:	4b0d      	ldr	r3, [pc, #52]	; (800cac8 <SUBGRF_CalibrateImage+0x6c>)
 800ca92:	4298      	cmp	r0, r3
 800ca94:	d904      	bls.n	800caa0 <SUBGRF_CalibrateImage+0x44>
 800ca96:	23c1      	movs	r3, #193	; 0xc1
 800ca98:	f88d 3004 	strb.w	r3, [sp, #4]
 800ca9c:	23c5      	movs	r3, #197	; 0xc5
 800ca9e:	e7e5      	b.n	800ca6c <SUBGRF_CalibrateImage+0x10>
 800caa0:	4b0a      	ldr	r3, [pc, #40]	; (800cacc <SUBGRF_CalibrateImage+0x70>)
 800caa2:	4298      	cmp	r0, r3
 800caa4:	d904      	bls.n	800cab0 <SUBGRF_CalibrateImage+0x54>
 800caa6:	2375      	movs	r3, #117	; 0x75
 800caa8:	f88d 3004 	strb.w	r3, [sp, #4]
 800caac:	2381      	movs	r3, #129	; 0x81
 800caae:	e7dd      	b.n	800ca6c <SUBGRF_CalibrateImage+0x10>
 800cab0:	4b07      	ldr	r3, [pc, #28]	; (800cad0 <SUBGRF_CalibrateImage+0x74>)
 800cab2:	4298      	cmp	r0, r3
 800cab4:	d9dc      	bls.n	800ca70 <SUBGRF_CalibrateImage+0x14>
 800cab6:	236b      	movs	r3, #107	; 0x6b
 800cab8:	f88d 3004 	strb.w	r3, [sp, #4]
 800cabc:	236f      	movs	r3, #111	; 0x6f
 800cabe:	e7d5      	b.n	800ca6c <SUBGRF_CalibrateImage+0x10>
 800cac0:	35a4e900 	.word	0x35a4e900
 800cac4:	32a9f880 	.word	0x32a9f880
 800cac8:	2de54480 	.word	0x2de54480
 800cacc:	1b6b0b00 	.word	0x1b6b0b00
 800cad0:	1954fc40 	.word	0x1954fc40

0800cad4 <SUBGRF_SetPaConfig>:
 800cad4:	b507      	push	{r0, r1, r2, lr}
 800cad6:	f88d 2006 	strb.w	r2, [sp, #6]
 800cada:	2204      	movs	r2, #4
 800cadc:	f88d 0004 	strb.w	r0, [sp, #4]
 800cae0:	f88d 1005 	strb.w	r1, [sp, #5]
 800cae4:	2095      	movs	r0, #149	; 0x95
 800cae6:	eb0d 0102 	add.w	r1, sp, r2
 800caea:	f88d 3007 	strb.w	r3, [sp, #7]
 800caee:	f7ff feed 	bl	800c8cc <SUBGRF_WriteCommand>
 800caf2:	b003      	add	sp, #12
 800caf4:	f85d fb04 	ldr.w	pc, [sp], #4

0800caf8 <SUBGRF_SetDioIrqParams>:
 800caf8:	b513      	push	{r0, r1, r4, lr}
 800cafa:	0a04      	lsrs	r4, r0, #8
 800cafc:	f88d 0001 	strb.w	r0, [sp, #1]
 800cb00:	f88d 1003 	strb.w	r1, [sp, #3]
 800cb04:	0a08      	lsrs	r0, r1, #8
 800cb06:	f88d 2005 	strb.w	r2, [sp, #5]
 800cb0a:	0a11      	lsrs	r1, r2, #8
 800cb0c:	0a1a      	lsrs	r2, r3, #8
 800cb0e:	f88d 2006 	strb.w	r2, [sp, #6]
 800cb12:	2208      	movs	r2, #8
 800cb14:	f88d 0002 	strb.w	r0, [sp, #2]
 800cb18:	f88d 1004 	strb.w	r1, [sp, #4]
 800cb1c:	4610      	mov	r0, r2
 800cb1e:	4669      	mov	r1, sp
 800cb20:	f88d 4000 	strb.w	r4, [sp]
 800cb24:	f88d 3007 	strb.w	r3, [sp, #7]
 800cb28:	f7ff fed0 	bl	800c8cc <SUBGRF_WriteCommand>
 800cb2c:	b002      	add	sp, #8
 800cb2e:	bd10      	pop	{r4, pc}

0800cb30 <SUBGRF_SetTcxoMode>:
 800cb30:	b507      	push	{r0, r1, r2, lr}
 800cb32:	0c0b      	lsrs	r3, r1, #16
 800cb34:	2204      	movs	r2, #4
 800cb36:	f000 0007 	and.w	r0, r0, #7
 800cb3a:	f88d 0004 	strb.w	r0, [sp, #4]
 800cb3e:	f88d 3005 	strb.w	r3, [sp, #5]
 800cb42:	f88d 1007 	strb.w	r1, [sp, #7]
 800cb46:	0a0b      	lsrs	r3, r1, #8
 800cb48:	2097      	movs	r0, #151	; 0x97
 800cb4a:	eb0d 0102 	add.w	r1, sp, r2
 800cb4e:	f88d 3006 	strb.w	r3, [sp, #6]
 800cb52:	f7ff febb 	bl	800c8cc <SUBGRF_WriteCommand>
 800cb56:	b003      	add	sp, #12
 800cb58:	f85d fb04 	ldr.w	pc, [sp], #4

0800cb5c <SUBGRF_SetRfFrequency>:
 800cb5c:	b537      	push	{r0, r1, r2, r4, r5, lr}
 800cb5e:	4d10      	ldr	r5, [pc, #64]	; (800cba0 <SUBGRF_SetRfFrequency+0x44>)
 800cb60:	782b      	ldrb	r3, [r5, #0]
 800cb62:	4604      	mov	r4, r0
 800cb64:	b91b      	cbnz	r3, 800cb6e <SUBGRF_SetRfFrequency+0x12>
 800cb66:	f7ff ff79 	bl	800ca5c <SUBGRF_CalibrateImage>
 800cb6a:	2301      	movs	r3, #1
 800cb6c:	702b      	strb	r3, [r5, #0]
 800cb6e:	4a0d      	ldr	r2, [pc, #52]	; (800cba4 <SUBGRF_SetRfFrequency+0x48>)
 800cb70:	2300      	movs	r3, #0
 800cb72:	0660      	lsls	r0, r4, #25
 800cb74:	09e1      	lsrs	r1, r4, #7
 800cb76:	f7f3 fefb 	bl	8000970 <__aeabi_uldivmod>
 800cb7a:	0e03      	lsrs	r3, r0, #24
 800cb7c:	f88d 3004 	strb.w	r3, [sp, #4]
 800cb80:	2204      	movs	r2, #4
 800cb82:	0c03      	lsrs	r3, r0, #16
 800cb84:	f88d 3005 	strb.w	r3, [sp, #5]
 800cb88:	f88d 0007 	strb.w	r0, [sp, #7]
 800cb8c:	0a03      	lsrs	r3, r0, #8
 800cb8e:	eb0d 0102 	add.w	r1, sp, r2
 800cb92:	2086      	movs	r0, #134	; 0x86
 800cb94:	f88d 3006 	strb.w	r3, [sp, #6]
 800cb98:	f7ff fe98 	bl	800c8cc <SUBGRF_WriteCommand>
 800cb9c:	b003      	add	sp, #12
 800cb9e:	bd30      	pop	{r4, r5, pc}
 800cba0:	20001c4c 	.word	0x20001c4c
 800cba4:	01e84800 	.word	0x01e84800

0800cba8 <SUBGRF_SetBufferBaseAddress>:
 800cba8:	b507      	push	{r0, r1, r2, lr}
 800cbaa:	2202      	movs	r2, #2
 800cbac:	f88d 0004 	strb.w	r0, [sp, #4]
 800cbb0:	f88d 1005 	strb.w	r1, [sp, #5]
 800cbb4:	208f      	movs	r0, #143	; 0x8f
 800cbb6:	a901      	add	r1, sp, #4
 800cbb8:	f7ff fe88 	bl	800c8cc <SUBGRF_WriteCommand>
 800cbbc:	b003      	add	sp, #12
 800cbbe:	f85d fb04 	ldr.w	pc, [sp], #4

0800cbc2 <SUBGRF_GetRssiInst>:
 800cbc2:	b507      	push	{r0, r1, r2, lr}
 800cbc4:	2201      	movs	r2, #1
 800cbc6:	a901      	add	r1, sp, #4
 800cbc8:	2015      	movs	r0, #21
 800cbca:	f7ff fe8f 	bl	800c8ec <SUBGRF_ReadCommand>
 800cbce:	f89d 0004 	ldrb.w	r0, [sp, #4]
 800cbd2:	4240      	negs	r0, r0
 800cbd4:	1040      	asrs	r0, r0, #1
 800cbd6:	b003      	add	sp, #12
 800cbd8:	f85d fb04 	ldr.w	pc, [sp], #4

0800cbdc <SUBGRF_GetPacketStatus>:
 800cbdc:	b513      	push	{r0, r1, r4, lr}
 800cbde:	2203      	movs	r2, #3
 800cbe0:	4604      	mov	r4, r0
 800cbe2:	a901      	add	r1, sp, #4
 800cbe4:	2014      	movs	r0, #20
 800cbe6:	f7ff fe81 	bl	800c8ec <SUBGRF_ReadCommand>
 800cbea:	4b18      	ldr	r3, [pc, #96]	; (800cc4c <SUBGRF_GetPacketStatus+0x70>)
 800cbec:	781a      	ldrb	r2, [r3, #0]
 800cbee:	7022      	strb	r2, [r4, #0]
 800cbf0:	b14a      	cbz	r2, 800cc06 <SUBGRF_GetPacketStatus+0x2a>
 800cbf2:	2a01      	cmp	r2, #1
 800cbf4:	d017      	beq.n	800cc26 <SUBGRF_GetPacketStatus+0x4a>
 800cbf6:	2214      	movs	r2, #20
 800cbf8:	2100      	movs	r1, #0
 800cbfa:	4620      	mov	r0, r4
 800cbfc:	f000 fca0 	bl	800d540 <UTIL_MEM_set_8>
 800cc00:	230f      	movs	r3, #15
 800cc02:	7023      	strb	r3, [r4, #0]
 800cc04:	e00d      	b.n	800cc22 <SUBGRF_GetPacketStatus+0x46>
 800cc06:	f89d 3004 	ldrb.w	r3, [sp, #4]
 800cc0a:	7123      	strb	r3, [r4, #4]
 800cc0c:	f89d 3005 	ldrb.w	r3, [sp, #5]
 800cc10:	60a2      	str	r2, [r4, #8]
 800cc12:	425b      	negs	r3, r3
 800cc14:	105b      	asrs	r3, r3, #1
 800cc16:	71a3      	strb	r3, [r4, #6]
 800cc18:	f89d 3006 	ldrb.w	r3, [sp, #6]
 800cc1c:	425b      	negs	r3, r3
 800cc1e:	105b      	asrs	r3, r3, #1
 800cc20:	7163      	strb	r3, [r4, #5]
 800cc22:	b002      	add	sp, #8
 800cc24:	bd10      	pop	{r4, pc}
 800cc26:	f89d 3004 	ldrb.w	r3, [sp, #4]
 800cc2a:	425b      	negs	r3, r3
 800cc2c:	105b      	asrs	r3, r3, #1
 800cc2e:	7323      	strb	r3, [r4, #12]
 800cc30:	f99d 3005 	ldrsb.w	r3, [sp, #5]
 800cc34:	3302      	adds	r3, #2
 800cc36:	109b      	asrs	r3, r3, #2
 800cc38:	7363      	strb	r3, [r4, #13]
 800cc3a:	f89d 3006 	ldrb.w	r3, [sp, #6]
 800cc3e:	425b      	negs	r3, r3
 800cc40:	105b      	asrs	r3, r3, #1
 800cc42:	73a3      	strb	r3, [r4, #14]
 800cc44:	4b02      	ldr	r3, [pc, #8]	; (800cc50 <SUBGRF_GetPacketStatus+0x74>)
 800cc46:	681b      	ldr	r3, [r3, #0]
 800cc48:	6123      	str	r3, [r4, #16]
 800cc4a:	e7ea      	b.n	800cc22 <SUBGRF_GetPacketStatus+0x46>
 800cc4c:	20001c4f 	.word	0x20001c4f
 800cc50:	20001c48 	.word	0x20001c48

0800cc54 <SUBGRF_WriteRegister>:
 800cc54:	b507      	push	{r0, r1, r2, lr}
 800cc56:	2301      	movs	r3, #1
 800cc58:	f88d 1007 	strb.w	r1, [sp, #7]
 800cc5c:	f10d 0207 	add.w	r2, sp, #7
 800cc60:	4601      	mov	r1, r0
 800cc62:	4803      	ldr	r0, [pc, #12]	; (800cc70 <SUBGRF_WriteRegister+0x1c>)
 800cc64:	f7f7 f9c8 	bl	8003ff8 <HAL_SUBGHZ_WriteRegisters>
 800cc68:	b003      	add	sp, #12
 800cc6a:	f85d fb04 	ldr.w	pc, [sp], #4
 800cc6e:	bf00      	nop
 800cc70:	20000240 	.word	0x20000240

0800cc74 <SUBGRF_SetRxBoosted>:
 800cc74:	b513      	push	{r0, r1, r4, lr}
 800cc76:	4b0c      	ldr	r3, [pc, #48]	; (800cca8 <SUBGRF_SetRxBoosted+0x34>)
 800cc78:	4604      	mov	r4, r0
 800cc7a:	2205      	movs	r2, #5
 800cc7c:	2197      	movs	r1, #151	; 0x97
 800cc7e:	f640 00ac 	movw	r0, #2220	; 0x8ac
 800cc82:	701a      	strb	r2, [r3, #0]
 800cc84:	f7ff ffe6 	bl	800cc54 <SUBGRF_WriteRegister>
 800cc88:	0c23      	lsrs	r3, r4, #16
 800cc8a:	f88d 3004 	strb.w	r3, [sp, #4]
 800cc8e:	2203      	movs	r2, #3
 800cc90:	0a23      	lsrs	r3, r4, #8
 800cc92:	a901      	add	r1, sp, #4
 800cc94:	2082      	movs	r0, #130	; 0x82
 800cc96:	f88d 3005 	strb.w	r3, [sp, #5]
 800cc9a:	f88d 4006 	strb.w	r4, [sp, #6]
 800cc9e:	f7ff fe15 	bl	800c8cc <SUBGRF_WriteCommand>
 800cca2:	b002      	add	sp, #8
 800cca4:	bd10      	pop	{r4, pc}
 800cca6:	bf00      	nop
 800cca8:	20001c4e 	.word	0x20001c4e

0800ccac <SUBGRF_SetLoRaSymbNumTimeout>:
 800ccac:	b507      	push	{r0, r1, r2, lr}
 800ccae:	2201      	movs	r2, #1
 800ccb0:	f88d 0007 	strb.w	r0, [sp, #7]
 800ccb4:	f10d 0107 	add.w	r1, sp, #7
 800ccb8:	20a0      	movs	r0, #160	; 0xa0
 800ccba:	f7ff fe07 	bl	800c8cc <SUBGRF_WriteCommand>
 800ccbe:	f89d 1007 	ldrb.w	r1, [sp, #7]
 800ccc2:	293f      	cmp	r1, #63	; 0x3f
 800ccc4:	d907      	bls.n	800ccd6 <SUBGRF_SetLoRaSymbNumTimeout+0x2a>
 800ccc6:	f001 01f8 	and.w	r1, r1, #248	; 0xf8
 800ccca:	3101      	adds	r1, #1
 800cccc:	b2c9      	uxtb	r1, r1
 800ccce:	f240 7006 	movw	r0, #1798	; 0x706
 800ccd2:	f7ff ffbf 	bl	800cc54 <SUBGRF_WriteRegister>
 800ccd6:	b003      	add	sp, #12
 800ccd8:	f85d fb04 	ldr.w	pc, [sp], #4

0800ccdc <SUBGRF_SetPacketType>:
 800ccdc:	b507      	push	{r0, r1, r2, lr}
 800ccde:	4b09      	ldr	r3, [pc, #36]	; (800cd04 <SUBGRF_SetPacketType+0x28>)
 800cce0:	f88d 0007 	strb.w	r0, [sp, #7]
 800cce4:	4601      	mov	r1, r0
 800cce6:	7018      	strb	r0, [r3, #0]
 800cce8:	b918      	cbnz	r0, 800ccf2 <SUBGRF_SetPacketType+0x16>
 800ccea:	f240 60ac 	movw	r0, #1708	; 0x6ac
 800ccee:	f7ff ffb1 	bl	800cc54 <SUBGRF_WriteRegister>
 800ccf2:	2201      	movs	r2, #1
 800ccf4:	f10d 0107 	add.w	r1, sp, #7
 800ccf8:	208a      	movs	r0, #138	; 0x8a
 800ccfa:	f7ff fde7 	bl	800c8cc <SUBGRF_WriteCommand>
 800ccfe:	b003      	add	sp, #12
 800cd00:	f85d fb04 	ldr.w	pc, [sp], #4
 800cd04:	20001c4f 	.word	0x20001c4f

0800cd08 <SUBGRF_SetModulationParams>:
 800cd08:	b513      	push	{r0, r1, r4, lr}
 800cd0a:	4a36      	ldr	r2, [pc, #216]	; (800cde4 <SUBGRF_SetModulationParams+0xdc>)
 800cd0c:	4604      	mov	r4, r0
 800cd0e:	6851      	ldr	r1, [r2, #4]
 800cd10:	6810      	ldr	r0, [r2, #0]
 800cd12:	466b      	mov	r3, sp
 800cd14:	c303      	stmia	r3!, {r0, r1}
 800cd16:	4b34      	ldr	r3, [pc, #208]	; (800cde8 <SUBGRF_SetModulationParams+0xe0>)
 800cd18:	7820      	ldrb	r0, [r4, #0]
 800cd1a:	781b      	ldrb	r3, [r3, #0]
 800cd1c:	4283      	cmp	r3, r0
 800cd1e:	d001      	beq.n	800cd24 <SUBGRF_SetModulationParams+0x1c>
 800cd20:	f7ff ffdc 	bl	800ccdc <SUBGRF_SetPacketType>
 800cd24:	7823      	ldrb	r3, [r4, #0]
 800cd26:	2b03      	cmp	r3, #3
 800cd28:	d829      	bhi.n	800cd7e <SUBGRF_SetModulationParams+0x76>
 800cd2a:	e8df f003 	tbb	[pc, r3]
 800cd2e:	3b02      	.short	0x3b02
 800cd30:	462a      	.short	0x462a
 800cd32:	6862      	ldr	r2, [r4, #4]
 800cd34:	4b2d      	ldr	r3, [pc, #180]	; (800cdec <SUBGRF_SetModulationParams+0xe4>)
 800cd36:	fbb3 f3f2 	udiv	r3, r3, r2
 800cd3a:	0c1a      	lsrs	r2, r3, #16
 800cd3c:	68a1      	ldr	r1, [r4, #8]
 800cd3e:	f88d 2000 	strb.w	r2, [sp]
 800cd42:	f88d 3002 	strb.w	r3, [sp, #2]
 800cd46:	0a1a      	lsrs	r2, r3, #8
 800cd48:	7b23      	ldrb	r3, [r4, #12]
 800cd4a:	f88d 3003 	strb.w	r3, [sp, #3]
 800cd4e:	7b63      	ldrb	r3, [r4, #13]
 800cd50:	f88d 2001 	strb.w	r2, [sp, #1]
 800cd54:	f88d 3004 	strb.w	r3, [sp, #4]
 800cd58:	4a25      	ldr	r2, [pc, #148]	; (800cdf0 <SUBGRF_SetModulationParams+0xe8>)
 800cd5a:	2300      	movs	r3, #0
 800cd5c:	0648      	lsls	r0, r1, #25
 800cd5e:	09c9      	lsrs	r1, r1, #7
 800cd60:	f7f3 fe06 	bl	8000970 <__aeabi_uldivmod>
 800cd64:	0c03      	lsrs	r3, r0, #16
 800cd66:	f88d 3005 	strb.w	r3, [sp, #5]
 800cd6a:	0a03      	lsrs	r3, r0, #8
 800cd6c:	f88d 3006 	strb.w	r3, [sp, #6]
 800cd70:	f88d 0007 	strb.w	r0, [sp, #7]
 800cd74:	2208      	movs	r2, #8
 800cd76:	4669      	mov	r1, sp
 800cd78:	208b      	movs	r0, #139	; 0x8b
 800cd7a:	f7ff fda7 	bl	800c8cc <SUBGRF_WriteCommand>
 800cd7e:	b002      	add	sp, #8
 800cd80:	bd10      	pop	{r4, pc}
 800cd82:	6922      	ldr	r2, [r4, #16]
 800cd84:	4b19      	ldr	r3, [pc, #100]	; (800cdec <SUBGRF_SetModulationParams+0xe4>)
 800cd86:	fbb3 f3f2 	udiv	r3, r3, r2
 800cd8a:	0c1a      	lsrs	r2, r3, #16
 800cd8c:	f88d 2000 	strb.w	r2, [sp]
 800cd90:	f88d 3002 	strb.w	r3, [sp, #2]
 800cd94:	0a1a      	lsrs	r2, r3, #8
 800cd96:	7d23      	ldrb	r3, [r4, #20]
 800cd98:	f88d 2001 	strb.w	r2, [sp, #1]
 800cd9c:	f88d 3003 	strb.w	r3, [sp, #3]
 800cda0:	2204      	movs	r2, #4
 800cda2:	e7e8      	b.n	800cd76 <SUBGRF_SetModulationParams+0x6e>
 800cda4:	7e23      	ldrb	r3, [r4, #24]
 800cda6:	f88d 3000 	strb.w	r3, [sp]
 800cdaa:	7e63      	ldrb	r3, [r4, #25]
 800cdac:	f88d 3001 	strb.w	r3, [sp, #1]
 800cdb0:	7ea3      	ldrb	r3, [r4, #26]
 800cdb2:	f88d 3002 	strb.w	r3, [sp, #2]
 800cdb6:	7ee3      	ldrb	r3, [r4, #27]
 800cdb8:	e7f0      	b.n	800cd9c <SUBGRF_SetModulationParams+0x94>
 800cdba:	6862      	ldr	r2, [r4, #4]
 800cdbc:	4b0b      	ldr	r3, [pc, #44]	; (800cdec <SUBGRF_SetModulationParams+0xe4>)
 800cdbe:	fbb3 f3f2 	udiv	r3, r3, r2
 800cdc2:	0c1a      	lsrs	r2, r3, #16
 800cdc4:	f88d 2000 	strb.w	r2, [sp]
 800cdc8:	f88d 3002 	strb.w	r3, [sp, #2]
 800cdcc:	0a1a      	lsrs	r2, r3, #8
 800cdce:	7b23      	ldrb	r3, [r4, #12]
 800cdd0:	f88d 3003 	strb.w	r3, [sp, #3]
 800cdd4:	7b63      	ldrb	r3, [r4, #13]
 800cdd6:	f88d 2001 	strb.w	r2, [sp, #1]
 800cdda:	f88d 3004 	strb.w	r3, [sp, #4]
 800cdde:	2205      	movs	r2, #5
 800cde0:	e7c9      	b.n	800cd76 <SUBGRF_SetModulationParams+0x6e>
 800cde2:	bf00      	nop
 800cde4:	0800e944 	.word	0x0800e944
 800cde8:	20001c4f 	.word	0x20001c4f
 800cdec:	3d090000 	.word	0x3d090000
 800cdf0:	01e84800 	.word	0x01e84800

0800cdf4 <SUBGRF_ReadRegister>:
 800cdf4:	b507      	push	{r0, r1, r2, lr}
 800cdf6:	2301      	movs	r3, #1
 800cdf8:	4601      	mov	r1, r0
 800cdfa:	f10d 0207 	add.w	r2, sp, #7
 800cdfe:	4804      	ldr	r0, [pc, #16]	; (800ce10 <SUBGRF_ReadRegister+0x1c>)
 800ce00:	f7f7 f933 	bl	800406a <HAL_SUBGHZ_ReadRegisters>
 800ce04:	f89d 0007 	ldrb.w	r0, [sp, #7]
 800ce08:	b003      	add	sp, #12
 800ce0a:	f85d fb04 	ldr.w	pc, [sp], #4
 800ce0e:	bf00      	nop
 800ce10:	20000240 	.word	0x20000240

0800ce14 <Radio_SMPS_Set>:
 800ce14:	b510      	push	{r4, lr}
 800ce16:	4604      	mov	r4, r0
 800ce18:	f7f8 fc88 	bl	800572c <RBI_IsDCDC>
 800ce1c:	2801      	cmp	r0, #1
 800ce1e:	d10c      	bne.n	800ce3a <Radio_SMPS_Set+0x26>
 800ce20:	f640 1023 	movw	r0, #2339	; 0x923
 800ce24:	f7ff ffe6 	bl	800cdf4 <SUBGRF_ReadRegister>
 800ce28:	f000 01f9 	and.w	r1, r0, #249	; 0xf9
 800ce2c:	4321      	orrs	r1, r4
 800ce2e:	f640 1023 	movw	r0, #2339	; 0x923
 800ce32:	e8bd 4010 	ldmia.w	sp!, {r4, lr}
 800ce36:	f7ff bf0d 	b.w	800cc54 <SUBGRF_WriteRegister>
 800ce3a:	bd10      	pop	{r4, pc}

0800ce3c <SUBGRF_Init>:
 800ce3c:	b510      	push	{r4, lr}
 800ce3e:	b108      	cbz	r0, 800ce44 <SUBGRF_Init+0x8>
 800ce40:	4b16      	ldr	r3, [pc, #88]	; (800ce9c <SUBGRF_Init+0x60>)
 800ce42:	6018      	str	r0, [r3, #0]
 800ce44:	f7f4 fa98 	bl	8001378 <MX_SUBGHZ_Init>
 800ce48:	2002      	movs	r0, #2
 800ce4a:	f7ff ffe3 	bl	800ce14 <Radio_SMPS_Set>
 800ce4e:	2400      	movs	r4, #0
 800ce50:	4b13      	ldr	r3, [pc, #76]	; (800cea0 <SUBGRF_Init+0x64>)
 800ce52:	4620      	mov	r0, r4
 800ce54:	701c      	strb	r4, [r3, #0]
 800ce56:	f7ff fd5f 	bl	800c918 <SUBGRF_SetStandby>
 800ce5a:	f7f8 fc65 	bl	8005728 <RBI_IsTCXO>
 800ce5e:	2801      	cmp	r0, #1
 800ce60:	d111      	bne.n	800ce86 <SUBGRF_Init+0x4a>
 800ce62:	2140      	movs	r1, #64	; 0x40
 800ce64:	f7ff fe64 	bl	800cb30 <SUBGRF_SetTcxoMode>
 800ce68:	f640 1011 	movw	r0, #2321	; 0x911
 800ce6c:	4621      	mov	r1, r4
 800ce6e:	f7ff fef1 	bl	800cc54 <SUBGRF_WriteRegister>
 800ce72:	f04f 007f 	mov.w	r0, #127	; 0x7f
 800ce76:	f7ff fde2 	bl	800ca3e <SUBGRF_Calibrate>
 800ce7a:	f7f8 fbff 	bl	800567c <RBI_Init>
 800ce7e:	4b09      	ldr	r3, [pc, #36]	; (800cea4 <SUBGRF_Init+0x68>)
 800ce80:	2201      	movs	r2, #1
 800ce82:	701a      	strb	r2, [r3, #0]
 800ce84:	bd10      	pop	{r4, pc}
 800ce86:	2120      	movs	r1, #32
 800ce88:	f640 1011 	movw	r0, #2321	; 0x911
 800ce8c:	f7ff fee2 	bl	800cc54 <SUBGRF_WriteRegister>
 800ce90:	2120      	movs	r1, #32
 800ce92:	f640 1012 	movw	r0, #2322	; 0x912
 800ce96:	f7ff fedd 	bl	800cc54 <SUBGRF_WriteRegister>
 800ce9a:	e7ee      	b.n	800ce7a <SUBGRF_Init+0x3e>
 800ce9c:	20001c50 	.word	0x20001c50
 800cea0:	20001c4c 	.word	0x20001c4c
 800cea4:	20001c4e 	.word	0x20001c4e

0800cea8 <SUBGRF_SetSleep>:
 800cea8:	b513      	push	{r0, r1, r4, lr}
 800ceaa:	4604      	mov	r4, r0
 800ceac:	2000      	movs	r0, #0
 800ceae:	f7f8 fc13 	bl	80056d8 <RBI_ConfigRFSwitch>
 800ceb2:	2002      	movs	r0, #2
 800ceb4:	f7ff ffae 	bl	800ce14 <Radio_SMPS_Set>
 800ceb8:	f004 0407 	and.w	r4, r4, #7
 800cebc:	2201      	movs	r2, #1
 800cebe:	f10d 0107 	add.w	r1, sp, #7
 800cec2:	2084      	movs	r0, #132	; 0x84
 800cec4:	f88d 4007 	strb.w	r4, [sp, #7]
 800cec8:	f7ff fd00 	bl	800c8cc <SUBGRF_WriteCommand>
 800cecc:	4b02      	ldr	r3, [pc, #8]	; (800ced8 <SUBGRF_SetSleep+0x30>)
 800cece:	2200      	movs	r2, #0
 800ced0:	701a      	strb	r2, [r3, #0]
 800ced2:	b002      	add	sp, #8
 800ced4:	bd10      	pop	{r4, pc}
 800ced6:	bf00      	nop
 800ced8:	20001c4e 	.word	0x20001c4e

0800cedc <SUBGRF_SetWhiteningSeed>:
 800cedc:	b510      	push	{r4, lr}
 800cede:	4b0c      	ldr	r3, [pc, #48]	; (800cf10 <SUBGRF_SetWhiteningSeed+0x34>)
 800cee0:	781b      	ldrb	r3, [r3, #0]
 800cee2:	4604      	mov	r4, r0
 800cee4:	b99b      	cbnz	r3, 800cf0e <SUBGRF_SetWhiteningSeed+0x32>
 800cee6:	f44f 60d7 	mov.w	r0, #1720	; 0x6b8
 800ceea:	f7ff ff83 	bl	800cdf4 <SUBGRF_ReadRegister>
 800ceee:	f3c4 2100 	ubfx	r1, r4, #8, #1
 800cef2:	f000 00fe 	and.w	r0, r0, #254	; 0xfe
 800cef6:	4301      	orrs	r1, r0
 800cef8:	f44f 60d7 	mov.w	r0, #1720	; 0x6b8
 800cefc:	f7ff feaa 	bl	800cc54 <SUBGRF_WriteRegister>
 800cf00:	b2e1      	uxtb	r1, r4
 800cf02:	f240 60b9 	movw	r0, #1721	; 0x6b9
 800cf06:	e8bd 4010 	ldmia.w	sp!, {r4, lr}
 800cf0a:	f7ff bea3 	b.w	800cc54 <SUBGRF_WriteRegister>
 800cf0e:	bd10      	pop	{r4, pc}
 800cf10:	20001c4f 	.word	0x20001c4f

0800cf14 <SUBGRF_SetTxParams>:
 800cf14:	2801      	cmp	r0, #1
 800cf16:	b573      	push	{r0, r1, r4, r5, r6, lr}
 800cf18:	460c      	mov	r4, r1
 800cf1a:	4616      	mov	r6, r2
 800cf1c:	d137      	bne.n	800cf8e <SUBGRF_SetTxParams+0x7a>
 800cf1e:	2000      	movs	r0, #0
 800cf20:	f7f8 fc06 	bl	8005730 <RBI_GetRFOMaxPowerConfig>
 800cf24:	42a0      	cmp	r0, r4
 800cf26:	bfb8      	it	lt
 800cf28:	b244      	sxtblt	r4, r0
 800cf2a:	280e      	cmp	r0, #14
 800cf2c:	4605      	mov	r5, r0
 800cf2e:	d11a      	bne.n	800cf66 <SUBGRF_SetTxParams+0x52>
 800cf30:	2301      	movs	r3, #1
 800cf32:	461a      	mov	r2, r3
 800cf34:	2100      	movs	r1, #0
 800cf36:	2004      	movs	r0, #4
 800cf38:	f7ff fdcc 	bl	800cad4 <SUBGRF_SetPaConfig>
 800cf3c:	f06f 0110 	mvn.w	r1, #16
 800cf40:	428c      	cmp	r4, r1
 800cf42:	bfb8      	it	lt
 800cf44:	460c      	movlt	r4, r1
 800cf46:	2118      	movs	r1, #24
 800cf48:	f640 00e7 	movw	r0, #2279	; 0x8e7
 800cf4c:	f7ff fe82 	bl	800cc54 <SUBGRF_WriteRegister>
 800cf50:	2202      	movs	r2, #2
 800cf52:	a901      	add	r1, sp, #4
 800cf54:	208e      	movs	r0, #142	; 0x8e
 800cf56:	f88d 4004 	strb.w	r4, [sp, #4]
 800cf5a:	f88d 6005 	strb.w	r6, [sp, #5]
 800cf5e:	f7ff fcb5 	bl	800c8cc <SUBGRF_WriteCommand>
 800cf62:	b002      	add	sp, #8
 800cf64:	bd70      	pop	{r4, r5, r6, pc}
 800cf66:	2301      	movs	r3, #1
 800cf68:	280a      	cmp	r0, #10
 800cf6a:	b2e4      	uxtb	r4, r4
 800cf6c:	461a      	mov	r2, r3
 800cf6e:	f04f 0100 	mov.w	r1, #0
 800cf72:	d105      	bne.n	800cf80 <SUBGRF_SetTxParams+0x6c>
 800cf74:	4618      	mov	r0, r3
 800cf76:	f7ff fdad 	bl	800cad4 <SUBGRF_SetPaConfig>
 800cf7a:	3403      	adds	r4, #3
 800cf7c:	b264      	sxtb	r4, r4
 800cf7e:	e7dd      	b.n	800cf3c <SUBGRF_SetTxParams+0x28>
 800cf80:	2006      	movs	r0, #6
 800cf82:	f1c5 050e 	rsb	r5, r5, #14
 800cf86:	f7ff fda5 	bl	800cad4 <SUBGRF_SetPaConfig>
 800cf8a:	442c      	add	r4, r5
 800cf8c:	e7f6      	b.n	800cf7c <SUBGRF_SetTxParams+0x68>
 800cf8e:	f640 00d8 	movw	r0, #2264	; 0x8d8
 800cf92:	f7ff ff2f 	bl	800cdf4 <SUBGRF_ReadRegister>
 800cf96:	f040 011e 	orr.w	r1, r0, #30
 800cf9a:	b2c9      	uxtb	r1, r1
 800cf9c:	f640 00d8 	movw	r0, #2264	; 0x8d8
 800cfa0:	f7ff fe58 	bl	800cc54 <SUBGRF_WriteRegister>
 800cfa4:	2001      	movs	r0, #1
 800cfa6:	f7f8 fbc3 	bl	8005730 <RBI_GetRFOMaxPowerConfig>
 800cfaa:	42a0      	cmp	r0, r4
 800cfac:	bfb8      	it	lt
 800cfae:	b244      	sxtblt	r4, r0
 800cfb0:	2814      	cmp	r0, #20
 800cfb2:	4605      	mov	r5, r0
 800cfb4:	f04f 0301 	mov.w	r3, #1
 800cfb8:	f04f 0200 	mov.w	r2, #0
 800cfbc:	d106      	bne.n	800cfcc <SUBGRF_SetTxParams+0xb8>
 800cfbe:	2105      	movs	r1, #5
 800cfc0:	2003      	movs	r0, #3
 800cfc2:	f7ff fd87 	bl	800cad4 <SUBGRF_SetPaConfig>
 800cfc6:	3402      	adds	r4, #2
 800cfc8:	b264      	sxtb	r4, r4
 800cfca:	e00d      	b.n	800cfe8 <SUBGRF_SetTxParams+0xd4>
 800cfcc:	2811      	cmp	r0, #17
 800cfce:	d105      	bne.n	800cfdc <SUBGRF_SetTxParams+0xc8>
 800cfd0:	2103      	movs	r1, #3
 800cfd2:	2002      	movs	r0, #2
 800cfd4:	f7ff fd7e 	bl	800cad4 <SUBGRF_SetPaConfig>
 800cfd8:	3405      	adds	r4, #5
 800cfda:	e7f5      	b.n	800cfc8 <SUBGRF_SetTxParams+0xb4>
 800cfdc:	280e      	cmp	r0, #14
 800cfde:	d10a      	bne.n	800cff6 <SUBGRF_SetTxParams+0xe2>
 800cfe0:	2102      	movs	r1, #2
 800cfe2:	4608      	mov	r0, r1
 800cfe4:	f7ff fd76 	bl	800cad4 <SUBGRF_SetPaConfig>
 800cfe8:	f06f 0108 	mvn.w	r1, #8
 800cfec:	428c      	cmp	r4, r1
 800cfee:	bfb8      	it	lt
 800cff0:	460c      	movlt	r4, r1
 800cff2:	2138      	movs	r1, #56	; 0x38
 800cff4:	e7a8      	b.n	800cf48 <SUBGRF_SetTxParams+0x34>
 800cff6:	2107      	movs	r1, #7
 800cff8:	2004      	movs	r0, #4
 800cffa:	f1c5 0516 	rsb	r5, r5, #22
 800cffe:	f7ff fd69 	bl	800cad4 <SUBGRF_SetPaConfig>
 800d002:	442c      	add	r4, r5
 800d004:	e7e0      	b.n	800cfc8 <SUBGRF_SetTxParams+0xb4>
	...

0800d008 <SUBGRF_GetRxBufferStatus>:
 800d008:	b537      	push	{r0, r1, r2, r4, r5, lr}
 800d00a:	4604      	mov	r4, r0
 800d00c:	460d      	mov	r5, r1
 800d00e:	2202      	movs	r2, #2
 800d010:	a901      	add	r1, sp, #4
 800d012:	2013      	movs	r0, #19
 800d014:	f7ff fc6a 	bl	800c8ec <SUBGRF_ReadCommand>
 800d018:	4b0a      	ldr	r3, [pc, #40]	; (800d044 <SUBGRF_GetRxBufferStatus+0x3c>)
 800d01a:	781b      	ldrb	r3, [r3, #0]
 800d01c:	2b01      	cmp	r3, #1
 800d01e:	d10d      	bne.n	800d03c <SUBGRF_GetRxBufferStatus+0x34>
 800d020:	4b09      	ldr	r3, [pc, #36]	; (800d048 <SUBGRF_GetRxBufferStatus+0x40>)
 800d022:	781b      	ldrb	r3, [r3, #0]
 800d024:	2b01      	cmp	r3, #1
 800d026:	d109      	bne.n	800d03c <SUBGRF_GetRxBufferStatus+0x34>
 800d028:	f240 7002 	movw	r0, #1794	; 0x702
 800d02c:	f7ff fee2 	bl	800cdf4 <SUBGRF_ReadRegister>
 800d030:	7020      	strb	r0, [r4, #0]
 800d032:	f89d 3005 	ldrb.w	r3, [sp, #5]
 800d036:	702b      	strb	r3, [r5, #0]
 800d038:	b003      	add	sp, #12
 800d03a:	bd30      	pop	{r4, r5, pc}
 800d03c:	f89d 3004 	ldrb.w	r3, [sp, #4]
 800d040:	7023      	strb	r3, [r4, #0]
 800d042:	e7f6      	b.n	800d032 <SUBGRF_GetRxBufferStatus+0x2a>
 800d044:	20001c4f 	.word	0x20001c4f
 800d048:	20001c4d 	.word	0x20001c4d

0800d04c <SUBGRF_WriteRegisters>:
 800d04c:	b510      	push	{r4, lr}
 800d04e:	4613      	mov	r3, r2
 800d050:	f3ef 8410 	mrs	r4, PRIMASK
 800d054:	b672      	cpsid	i
 800d056:	460a      	mov	r2, r1
 800d058:	4601      	mov	r1, r0
 800d05a:	4803      	ldr	r0, [pc, #12]	; (800d068 <SUBGRF_WriteRegisters+0x1c>)
 800d05c:	f7f6 ffcc 	bl	8003ff8 <HAL_SUBGHZ_WriteRegisters>
 800d060:	f384 8810 	msr	PRIMASK, r4
 800d064:	bd10      	pop	{r4, pc}
 800d066:	bf00      	nop
 800d068:	20000240 	.word	0x20000240

0800d06c <SUBGRF_SetSyncWord>:
 800d06c:	b508      	push	{r3, lr}
 800d06e:	4601      	mov	r1, r0
 800d070:	2208      	movs	r2, #8
 800d072:	f44f 60d8 	mov.w	r0, #1728	; 0x6c0
 800d076:	f7ff ffe9 	bl	800d04c <SUBGRF_WriteRegisters>
 800d07a:	2000      	movs	r0, #0
 800d07c:	bd08      	pop	{r3, pc}
	...

0800d080 <SUBGRF_SetCrcSeed>:
 800d080:	b507      	push	{r0, r1, r2, lr}
 800d082:	0a03      	lsrs	r3, r0, #8
 800d084:	f88d 3004 	strb.w	r3, [sp, #4]
 800d088:	4b06      	ldr	r3, [pc, #24]	; (800d0a4 <SUBGRF_SetCrcSeed+0x24>)
 800d08a:	f88d 0005 	strb.w	r0, [sp, #5]
 800d08e:	781b      	ldrb	r3, [r3, #0]
 800d090:	b92b      	cbnz	r3, 800d09e <SUBGRF_SetCrcSeed+0x1e>
 800d092:	2202      	movs	r2, #2
 800d094:	a901      	add	r1, sp, #4
 800d096:	f240 60bc 	movw	r0, #1724	; 0x6bc
 800d09a:	f7ff ffd7 	bl	800d04c <SUBGRF_WriteRegisters>
 800d09e:	b003      	add	sp, #12
 800d0a0:	f85d fb04 	ldr.w	pc, [sp], #4
 800d0a4:	20001c4f 	.word	0x20001c4f

0800d0a8 <SUBGRF_SetCrcPolynomial>:
 800d0a8:	b507      	push	{r0, r1, r2, lr}
 800d0aa:	0a03      	lsrs	r3, r0, #8
 800d0ac:	f88d 3004 	strb.w	r3, [sp, #4]
 800d0b0:	4b06      	ldr	r3, [pc, #24]	; (800d0cc <SUBGRF_SetCrcPolynomial+0x24>)
 800d0b2:	f88d 0005 	strb.w	r0, [sp, #5]
 800d0b6:	781b      	ldrb	r3, [r3, #0]
 800d0b8:	b92b      	cbnz	r3, 800d0c6 <SUBGRF_SetCrcPolynomial+0x1e>
 800d0ba:	2202      	movs	r2, #2
 800d0bc:	a901      	add	r1, sp, #4
 800d0be:	f240 60be 	movw	r0, #1726	; 0x6be
 800d0c2:	f7ff ffc3 	bl	800d04c <SUBGRF_WriteRegisters>
 800d0c6:	b003      	add	sp, #12
 800d0c8:	f85d fb04 	ldr.w	pc, [sp], #4
 800d0cc:	20001c4f 	.word	0x20001c4f

0800d0d0 <SUBGRF_SetPacketParams>:
 800d0d0:	b51f      	push	{r0, r1, r2, r3, r4, lr}
 800d0d2:	4a35      	ldr	r2, [pc, #212]	; (800d1a8 <SUBGRF_SetPacketParams+0xd8>)
 800d0d4:	4604      	mov	r4, r0
 800d0d6:	68d1      	ldr	r1, [r2, #12]
 800d0d8:	6890      	ldr	r0, [r2, #8]
 800d0da:	7c12      	ldrb	r2, [r2, #16]
 800d0dc:	ab01      	add	r3, sp, #4
 800d0de:	c303      	stmia	r3!, {r0, r1}
 800d0e0:	701a      	strb	r2, [r3, #0]
 800d0e2:	4b32      	ldr	r3, [pc, #200]	; (800d1ac <SUBGRF_SetPacketParams+0xdc>)
 800d0e4:	7820      	ldrb	r0, [r4, #0]
 800d0e6:	781b      	ldrb	r3, [r3, #0]
 800d0e8:	4283      	cmp	r3, r0
 800d0ea:	d001      	beq.n	800d0f0 <SUBGRF_SetPacketParams+0x20>
 800d0ec:	f7ff fdf6 	bl	800ccdc <SUBGRF_SetPacketType>
 800d0f0:	7823      	ldrb	r3, [r4, #0]
 800d0f2:	2b03      	cmp	r3, #3
 800d0f4:	d82e      	bhi.n	800d154 <SUBGRF_SetPacketParams+0x84>
 800d0f6:	e8df f003 	tbb	[pc, r3]
 800d0fa:	4002      	.short	0x4002
 800d0fc:	023b      	.short	0x023b
 800d0fe:	7a63      	ldrb	r3, [r4, #9]
 800d100:	2bf1      	cmp	r3, #241	; 0xf1
 800d102:	d129      	bne.n	800d158 <SUBGRF_SetPacketParams+0x88>
 800d104:	f64f 70ff 	movw	r0, #65535	; 0xffff
 800d108:	f7ff ffba 	bl	800d080 <SUBGRF_SetCrcSeed>
 800d10c:	f248 0005 	movw	r0, #32773	; 0x8005
 800d110:	f7ff ffca 	bl	800d0a8 <SUBGRF_SetCrcPolynomial>
 800d114:	2302      	movs	r3, #2
 800d116:	8862      	ldrh	r2, [r4, #2]
 800d118:	f88d 2005 	strb.w	r2, [sp, #5]
 800d11c:	0a11      	lsrs	r1, r2, #8
 800d11e:	7922      	ldrb	r2, [r4, #4]
 800d120:	f88d 2006 	strb.w	r2, [sp, #6]
 800d124:	7962      	ldrb	r2, [r4, #5]
 800d126:	f88d 2007 	strb.w	r2, [sp, #7]
 800d12a:	79a2      	ldrb	r2, [r4, #6]
 800d12c:	f88d 2008 	strb.w	r2, [sp, #8]
 800d130:	79e2      	ldrb	r2, [r4, #7]
 800d132:	f88d 2009 	strb.w	r2, [sp, #9]
 800d136:	f88d 300b 	strb.w	r3, [sp, #11]
 800d13a:	7a22      	ldrb	r2, [r4, #8]
 800d13c:	7aa3      	ldrb	r3, [r4, #10]
 800d13e:	f88d 200a 	strb.w	r2, [sp, #10]
 800d142:	f88d 1004 	strb.w	r1, [sp, #4]
 800d146:	f88d 300c 	strb.w	r3, [sp, #12]
 800d14a:	2209      	movs	r2, #9
 800d14c:	a901      	add	r1, sp, #4
 800d14e:	208c      	movs	r0, #140	; 0x8c
 800d150:	f7ff fbbc 	bl	800c8cc <SUBGRF_WriteCommand>
 800d154:	b004      	add	sp, #16
 800d156:	bd10      	pop	{r4, pc}
 800d158:	2bf2      	cmp	r3, #242	; 0xf2
 800d15a:	d1dc      	bne.n	800d116 <SUBGRF_SetPacketParams+0x46>
 800d15c:	f641 500f 	movw	r0, #7439	; 0x1d0f
 800d160:	f7ff ff8e 	bl	800d080 <SUBGRF_SetCrcSeed>
 800d164:	f241 0021 	movw	r0, #4129	; 0x1021
 800d168:	f7ff ff9e 	bl	800d0a8 <SUBGRF_SetCrcPolynomial>
 800d16c:	2306      	movs	r3, #6
 800d16e:	e7d2      	b.n	800d116 <SUBGRF_SetPacketParams+0x46>
 800d170:	7b23      	ldrb	r3, [r4, #12]
 800d172:	f88d 3004 	strb.w	r3, [sp, #4]
 800d176:	2201      	movs	r2, #1
 800d178:	e7e8      	b.n	800d14c <SUBGRF_SetPacketParams+0x7c>
 800d17a:	89e3      	ldrh	r3, [r4, #14]
 800d17c:	f88d 3005 	strb.w	r3, [sp, #5]
 800d180:	0a1a      	lsrs	r2, r3, #8
 800d182:	f88d 2004 	strb.w	r2, [sp, #4]
 800d186:	4a0a      	ldr	r2, [pc, #40]	; (800d1b0 <SUBGRF_SetPacketParams+0xe0>)
 800d188:	7c23      	ldrb	r3, [r4, #16]
 800d18a:	7013      	strb	r3, [r2, #0]
 800d18c:	f88d 3006 	strb.w	r3, [sp, #6]
 800d190:	7c63      	ldrb	r3, [r4, #17]
 800d192:	f88d 3007 	strb.w	r3, [sp, #7]
 800d196:	7ca3      	ldrb	r3, [r4, #18]
 800d198:	f88d 3008 	strb.w	r3, [sp, #8]
 800d19c:	7ce3      	ldrb	r3, [r4, #19]
 800d19e:	f88d 3009 	strb.w	r3, [sp, #9]
 800d1a2:	2206      	movs	r2, #6
 800d1a4:	e7d2      	b.n	800d14c <SUBGRF_SetPacketParams+0x7c>
 800d1a6:	bf00      	nop
 800d1a8:	0800e944 	.word	0x0800e944
 800d1ac:	20001c4f 	.word	0x20001c4f
 800d1b0:	20001c4d 	.word	0x20001c4d

0800d1b4 <SUBGRF_ReadRegisters>:
 800d1b4:	b510      	push	{r4, lr}
 800d1b6:	4613      	mov	r3, r2
 800d1b8:	f3ef 8410 	mrs	r4, PRIMASK
 800d1bc:	b672      	cpsid	i
 800d1be:	460a      	mov	r2, r1
 800d1c0:	4601      	mov	r1, r0
 800d1c2:	4803      	ldr	r0, [pc, #12]	; (800d1d0 <SUBGRF_ReadRegisters+0x1c>)
 800d1c4:	f7f6 ff51 	bl	800406a <HAL_SUBGHZ_ReadRegisters>
 800d1c8:	f384 8810 	msr	PRIMASK, r4
 800d1cc:	bd10      	pop	{r4, pc}
 800d1ce:	bf00      	nop
 800d1d0:	20000240 	.word	0x20000240

0800d1d4 <SUBGRF_GetRandom>:
 800d1d4:	b573      	push	{r0, r1, r4, r5, r6, lr}
 800d1d6:	2600      	movs	r6, #0
 800d1d8:	f640 00e2 	movw	r0, #2274	; 0x8e2
 800d1dc:	9601      	str	r6, [sp, #4]
 800d1de:	f7ff fe09 	bl	800cdf4 <SUBGRF_ReadRegister>
 800d1e2:	f000 01fe 	and.w	r1, r0, #254	; 0xfe
 800d1e6:	4605      	mov	r5, r0
 800d1e8:	f640 00e2 	movw	r0, #2274	; 0x8e2
 800d1ec:	f7ff fd32 	bl	800cc54 <SUBGRF_WriteRegister>
 800d1f0:	f640 00e5 	movw	r0, #2277	; 0x8e5
 800d1f4:	f7ff fdfe 	bl	800cdf4 <SUBGRF_ReadRegister>
 800d1f8:	f000 017f 	and.w	r1, r0, #127	; 0x7f
 800d1fc:	4604      	mov	r4, r0
 800d1fe:	f640 00e5 	movw	r0, #2277	; 0x8e5
 800d202:	f7ff fd27 	bl	800cc54 <SUBGRF_WriteRegister>
 800d206:	f06f 407f 	mvn.w	r0, #4278190080	; 0xff000000
 800d20a:	f7ff fbb1 	bl	800c970 <SUBGRF_SetRx>
 800d20e:	2204      	movs	r2, #4
 800d210:	eb0d 0102 	add.w	r1, sp, r2
 800d214:	f640 0019 	movw	r0, #2073	; 0x819
 800d218:	f7ff ffcc 	bl	800d1b4 <SUBGRF_ReadRegisters>
 800d21c:	4630      	mov	r0, r6
 800d21e:	f7ff fb7b 	bl	800c918 <SUBGRF_SetStandby>
 800d222:	4629      	mov	r1, r5
 800d224:	f640 00e2 	movw	r0, #2274	; 0x8e2
 800d228:	f7ff fd14 	bl	800cc54 <SUBGRF_WriteRegister>
 800d22c:	4621      	mov	r1, r4
 800d22e:	f640 00e5 	movw	r0, #2277	; 0x8e5
 800d232:	f7ff fd0f 	bl	800cc54 <SUBGRF_WriteRegister>
 800d236:	9801      	ldr	r0, [sp, #4]
 800d238:	b002      	add	sp, #8
 800d23a:	bd70      	pop	{r4, r5, r6, pc}

0800d23c <SUBGRF_WriteBuffer>:
 800d23c:	b510      	push	{r4, lr}
 800d23e:	4613      	mov	r3, r2
 800d240:	f3ef 8410 	mrs	r4, PRIMASK
 800d244:	b672      	cpsid	i
 800d246:	460a      	mov	r2, r1
 800d248:	4601      	mov	r1, r0
 800d24a:	4803      	ldr	r0, [pc, #12]	; (800d258 <SUBGRF_WriteBuffer+0x1c>)
 800d24c:	f7f6 fffb 	bl	8004246 <HAL_SUBGHZ_WriteBuffer>
 800d250:	f384 8810 	msr	PRIMASK, r4
 800d254:	bd10      	pop	{r4, pc}
 800d256:	bf00      	nop
 800d258:	20000240 	.word	0x20000240

0800d25c <SUBGRF_SetPayload>:
 800d25c:	460a      	mov	r2, r1
 800d25e:	4601      	mov	r1, r0
 800d260:	2000      	movs	r0, #0
 800d262:	f7ff bfeb 	b.w	800d23c <SUBGRF_WriteBuffer>

0800d266 <SUBGRF_SendPayload>:
 800d266:	b510      	push	{r4, lr}
 800d268:	4614      	mov	r4, r2
 800d26a:	f7ff fff7 	bl	800d25c <SUBGRF_SetPayload>
 800d26e:	4620      	mov	r0, r4
 800d270:	e8bd 4010 	ldmia.w	sp!, {r4, lr}
 800d274:	f7ff bb66 	b.w	800c944 <SUBGRF_SetTx>

0800d278 <SUBGRF_ReadBuffer>:
 800d278:	b510      	push	{r4, lr}
 800d27a:	4613      	mov	r3, r2
 800d27c:	f3ef 8410 	mrs	r4, PRIMASK
 800d280:	b672      	cpsid	i
 800d282:	460a      	mov	r2, r1
 800d284:	4601      	mov	r1, r0
 800d286:	4803      	ldr	r0, [pc, #12]	; (800d294 <SUBGRF_ReadBuffer+0x1c>)
 800d288:	f7f7 f810 	bl	80042ac <HAL_SUBGHZ_ReadBuffer>
 800d28c:	f384 8810 	msr	PRIMASK, r4
 800d290:	bd10      	pop	{r4, pc}
 800d292:	bf00      	nop
 800d294:	20000240 	.word	0x20000240

0800d298 <SUBGRF_GetPayload>:
 800d298:	b5f7      	push	{r0, r1, r2, r4, r5, r6, r7, lr}
 800d29a:	460d      	mov	r5, r1
 800d29c:	4606      	mov	r6, r0
 800d29e:	2400      	movs	r4, #0
 800d2a0:	f10d 0107 	add.w	r1, sp, #7
 800d2a4:	4628      	mov	r0, r5
 800d2a6:	4617      	mov	r7, r2
 800d2a8:	f88d 4007 	strb.w	r4, [sp, #7]
 800d2ac:	f7ff feac 	bl	800d008 <SUBGRF_GetRxBufferStatus>
 800d2b0:	782a      	ldrb	r2, [r5, #0]
 800d2b2:	42ba      	cmp	r2, r7
 800d2b4:	d807      	bhi.n	800d2c6 <SUBGRF_GetPayload+0x2e>
 800d2b6:	f89d 0007 	ldrb.w	r0, [sp, #7]
 800d2ba:	4631      	mov	r1, r6
 800d2bc:	f7ff ffdc 	bl	800d278 <SUBGRF_ReadBuffer>
 800d2c0:	4620      	mov	r0, r4
 800d2c2:	b003      	add	sp, #12
 800d2c4:	bdf0      	pop	{r4, r5, r6, r7, pc}
 800d2c6:	2001      	movs	r0, #1
 800d2c8:	e7fb      	b.n	800d2c2 <SUBGRF_GetPayload+0x2a>

0800d2ca <SUBGRF_SetSwitch>:
 800d2ca:	2901      	cmp	r1, #1
 800d2cc:	b508      	push	{r3, lr}
 800d2ce:	4603      	mov	r3, r0
 800d2d0:	4608      	mov	r0, r1
 800d2d2:	d10e      	bne.n	800d2f2 <SUBGRF_SetSwitch+0x28>
 800d2d4:	2b01      	cmp	r3, #1
 800d2d6:	d107      	bne.n	800d2e8 <SUBGRF_SetSwitch+0x1e>
 800d2d8:	2004      	movs	r0, #4
 800d2da:	f7ff fd9b 	bl	800ce14 <Radio_SMPS_Set>
 800d2de:	2002      	movs	r0, #2
 800d2e0:	e8bd 4008 	ldmia.w	sp!, {r3, lr}
 800d2e4:	f7f8 b9f8 	b.w	80056d8 <RBI_ConfigRFSwitch>
 800d2e8:	2b02      	cmp	r3, #2
 800d2ea:	bf14      	ite	ne
 800d2ec:	4608      	movne	r0, r1
 800d2ee:	2003      	moveq	r0, #3
 800d2f0:	e7f6      	b.n	800d2e0 <SUBGRF_SetSwitch+0x16>
 800d2f2:	2001      	movs	r0, #1
 800d2f4:	e7f4      	b.n	800d2e0 <SUBGRF_SetSwitch+0x16>

0800d2f6 <SUBGRF_SetRfTxPower>:
 800d2f6:	b538      	push	{r3, r4, r5, lr}
 800d2f8:	4604      	mov	r4, r0
 800d2fa:	f7f8 fa13 	bl	8005724 <RBI_GetTxConfig>
 800d2fe:	b150      	cbz	r0, 800d316 <SUBGRF_SetRfTxPower+0x20>
 800d300:	2802      	cmp	r0, #2
 800d302:	bf14      	ite	ne
 800d304:	2501      	movne	r5, #1
 800d306:	2502      	moveq	r5, #2
 800d308:	4628      	mov	r0, r5
 800d30a:	2202      	movs	r2, #2
 800d30c:	4621      	mov	r1, r4
 800d30e:	f7ff fe01 	bl	800cf14 <SUBGRF_SetTxParams>
 800d312:	4628      	mov	r0, r5
 800d314:	bd38      	pop	{r3, r4, r5, pc}
 800d316:	2c0f      	cmp	r4, #15
 800d318:	bfcc      	ite	gt
 800d31a:	2502      	movgt	r5, #2
 800d31c:	2501      	movle	r5, #1
 800d31e:	e7f3      	b.n	800d308 <SUBGRF_SetRfTxPower+0x12>

0800d320 <SUBGRF_GetRadioWakeUpTime>:
 800d320:	2001      	movs	r0, #1
 800d322:	4770      	bx	lr

0800d324 <HAL_SUBGHZ_TxCpltCallback>:
 800d324:	4b01      	ldr	r3, [pc, #4]	; (800d32c <HAL_SUBGHZ_TxCpltCallback+0x8>)
 800d326:	2001      	movs	r0, #1
 800d328:	681b      	ldr	r3, [r3, #0]
 800d32a:	4718      	bx	r3
 800d32c:	20001c50 	.word	0x20001c50

0800d330 <HAL_SUBGHZ_RxCpltCallback>:
 800d330:	4b01      	ldr	r3, [pc, #4]	; (800d338 <HAL_SUBGHZ_RxCpltCallback+0x8>)
 800d332:	2002      	movs	r0, #2
 800d334:	681b      	ldr	r3, [r3, #0]
 800d336:	4718      	bx	r3
 800d338:	20001c50 	.word	0x20001c50

0800d33c <HAL_SUBGHZ_CRCErrorCallback>:
 800d33c:	4b01      	ldr	r3, [pc, #4]	; (800d344 <HAL_SUBGHZ_CRCErrorCallback+0x8>)
 800d33e:	2040      	movs	r0, #64	; 0x40
 800d340:	681b      	ldr	r3, [r3, #0]
 800d342:	4718      	bx	r3
 800d344:	20001c50 	.word	0x20001c50

0800d348 <HAL_SUBGHZ_CADStatusCallback>:
 800d348:	b111      	cbz	r1, 800d350 <HAL_SUBGHZ_CADStatusCallback+0x8>
 800d34a:	2901      	cmp	r1, #1
 800d34c:	d004      	beq.n	800d358 <HAL_SUBGHZ_CADStatusCallback+0x10>
 800d34e:	4770      	bx	lr
 800d350:	4b04      	ldr	r3, [pc, #16]	; (800d364 <HAL_SUBGHZ_CADStatusCallback+0x1c>)
 800d352:	681b      	ldr	r3, [r3, #0]
 800d354:	2080      	movs	r0, #128	; 0x80
 800d356:	4718      	bx	r3
 800d358:	4b02      	ldr	r3, [pc, #8]	; (800d364 <HAL_SUBGHZ_CADStatusCallback+0x1c>)
 800d35a:	f44f 7080 	mov.w	r0, #256	; 0x100
 800d35e:	681b      	ldr	r3, [r3, #0]
 800d360:	e7f9      	b.n	800d356 <HAL_SUBGHZ_CADStatusCallback+0xe>
 800d362:	bf00      	nop
 800d364:	20001c50 	.word	0x20001c50

0800d368 <HAL_SUBGHZ_RxTxTimeoutCallback>:
 800d368:	4b02      	ldr	r3, [pc, #8]	; (800d374 <HAL_SUBGHZ_RxTxTimeoutCallback+0xc>)
 800d36a:	f44f 7000 	mov.w	r0, #512	; 0x200
 800d36e:	681b      	ldr	r3, [r3, #0]
 800d370:	4718      	bx	r3
 800d372:	bf00      	nop
 800d374:	20001c50 	.word	0x20001c50

0800d378 <HAL_SUBGHZ_HeaderErrorCallback>:
 800d378:	4b01      	ldr	r3, [pc, #4]	; (800d380 <HAL_SUBGHZ_HeaderErrorCallback+0x8>)
 800d37a:	2020      	movs	r0, #32
 800d37c:	681b      	ldr	r3, [r3, #0]
 800d37e:	4718      	bx	r3
 800d380:	20001c50 	.word	0x20001c50

0800d384 <HAL_SUBGHZ_PreambleDetectedCallback>:
 800d384:	4b01      	ldr	r3, [pc, #4]	; (800d38c <HAL_SUBGHZ_PreambleDetectedCallback+0x8>)
 800d386:	2004      	movs	r0, #4
 800d388:	681b      	ldr	r3, [r3, #0]
 800d38a:	4718      	bx	r3
 800d38c:	20001c50 	.word	0x20001c50

0800d390 <HAL_SUBGHZ_SyncWordValidCallback>:
 800d390:	4b01      	ldr	r3, [pc, #4]	; (800d398 <HAL_SUBGHZ_SyncWordValidCallback+0x8>)
 800d392:	2008      	movs	r0, #8
 800d394:	681b      	ldr	r3, [r3, #0]
 800d396:	4718      	bx	r3
 800d398:	20001c50 	.word	0x20001c50

0800d39c <HAL_SUBGHZ_HeaderValidCallback>:
 800d39c:	4b01      	ldr	r3, [pc, #4]	; (800d3a4 <HAL_SUBGHZ_HeaderValidCallback+0x8>)
 800d39e:	2010      	movs	r0, #16
 800d3a0:	681b      	ldr	r3, [r3, #0]
 800d3a2:	4718      	bx	r3
 800d3a4:	20001c50 	.word	0x20001c50

0800d3a8 <SUBGRF_GetFskBandwidthRegValue>:
 800d3a8:	b168      	cbz	r0, 800d3c6 <SUBGRF_GetFskBandwidthRegValue+0x1e>
 800d3aa:	4a08      	ldr	r2, [pc, #32]	; (800d3cc <SUBGRF_GetFskBandwidthRegValue+0x24>)
 800d3ac:	2300      	movs	r3, #0
 800d3ae:	f852 1033 	ldr.w	r1, [r2, r3, lsl #3]
 800d3b2:	4281      	cmp	r1, r0
 800d3b4:	d903      	bls.n	800d3be <SUBGRF_GetFskBandwidthRegValue+0x16>
 800d3b6:	eb02 03c3 	add.w	r3, r2, r3, lsl #3
 800d3ba:	7918      	ldrb	r0, [r3, #4]
 800d3bc:	4770      	bx	lr
 800d3be:	3301      	adds	r3, #1
 800d3c0:	2b16      	cmp	r3, #22
 800d3c2:	d1f4      	bne.n	800d3ae <SUBGRF_GetFskBandwidthRegValue+0x6>
 800d3c4:	e7fe      	b.n	800d3c4 <SUBGRF_GetFskBandwidthRegValue+0x1c>
 800d3c6:	201f      	movs	r0, #31
 800d3c8:	4770      	bx	lr
 800d3ca:	bf00      	nop
 800d3cc:	0800eec4 	.word	0x0800eec4

0800d3d0 <SUBGRF_GetCFO>:
 800d3d0:	b573      	push	{r0, r1, r4, r5, r6, lr}
 800d3d2:	4b1d      	ldr	r3, [pc, #116]	; (800d448 <SUBGRF_GetCFO+0x78>)
 800d3d4:	9301      	str	r3, [sp, #4]
 800d3d6:	4606      	mov	r6, r0
 800d3d8:	f640 0007 	movw	r0, #2055	; 0x807
 800d3dc:	460d      	mov	r5, r1
 800d3de:	f7ff fd09 	bl	800cdf4 <SUBGRF_ReadRegister>
 800d3e2:	f3c0 03c1 	ubfx	r3, r0, #3, #2
 800d3e6:	3308      	adds	r3, #8
 800d3e8:	446b      	add	r3, sp
 800d3ea:	f813 4c04 	ldrb.w	r4, [r3, #-4]
 800d3ee:	f000 0307 	and.w	r3, r0, #7
 800d3f2:	3b01      	subs	r3, #1
 800d3f4:	fa04 f303 	lsl.w	r3, r4, r3
 800d3f8:	4c14      	ldr	r4, [pc, #80]	; (800d44c <SUBGRF_GetCFO+0x7c>)
 800d3fa:	fbb4 f4f3 	udiv	r4, r4, r3
 800d3fe:	fbb4 f0f6 	udiv	r0, r4, r6
 800d402:	2807      	cmp	r0, #7
 800d404:	d81d      	bhi.n	800d442 <SUBGRF_GetCFO+0x72>
 800d406:	0040      	lsls	r0, r0, #1
 800d408:	2803      	cmp	r0, #3
 800d40a:	bf8c      	ite	hi
 800d40c:	2302      	movhi	r3, #2
 800d40e:	2304      	movls	r3, #4
 800d410:	f44f 60d6 	mov.w	r0, #1712	; 0x6b0
 800d414:	435c      	muls	r4, r3
 800d416:	f7ff fced 	bl	800cdf4 <SUBGRF_ReadRegister>
 800d41a:	0200      	lsls	r0, r0, #8
 800d41c:	f400 6670 	and.w	r6, r0, #3840	; 0xf00
 800d420:	f240 60b1 	movw	r0, #1713	; 0x6b1
 800d424:	f7ff fce6 	bl	800cdf4 <SUBGRF_ReadRegister>
 800d428:	4330      	orrs	r0, r6
 800d42a:	0503      	lsls	r3, r0, #20
 800d42c:	bf44      	itt	mi
 800d42e:	ea6f 5000 	mvnmi.w	r0, r0, lsl #20
 800d432:	ea6f 5010 	mvnmi.w	r0, r0, lsr #20
 800d436:	0963      	lsrs	r3, r4, #5
 800d438:	4343      	muls	r3, r0
 800d43a:	11db      	asrs	r3, r3, #7
 800d43c:	602b      	str	r3, [r5, #0]
 800d43e:	b002      	add	sp, #8
 800d440:	bd70      	pop	{r4, r5, r6, pc}
 800d442:	2301      	movs	r3, #1
 800d444:	e7e4      	b.n	800d410 <SUBGRF_GetCFO+0x40>
 800d446:	bf00      	nop
 800d448:	0c0a0804 	.word	0x0c0a0804
 800d44c:	01e84800 	.word	0x01e84800

0800d450 <RFW_TransmitLongPacket>:
 800d450:	f04f 30ff 	mov.w	r0, #4294967295
 800d454:	4770      	bx	lr

0800d456 <RFW_ReceiveLongPacket>:
 800d456:	f04f 30ff 	mov.w	r0, #4294967295
 800d45a:	4770      	bx	lr

0800d45c <RFW_Init>:
 800d45c:	f04f 30ff 	mov.w	r0, #4294967295
 800d460:	4770      	bx	lr

0800d462 <RFW_DeInit>:
 800d462:	4770      	bx	lr

0800d464 <RFW_Is_Init>:
 800d464:	2000      	movs	r0, #0
 800d466:	4770      	bx	lr

0800d468 <RFW_Is_LongPacketModeEnabled>:
 800d468:	2000      	movs	r0, #0
 800d46a:	4770      	bx	lr

0800d46c <RFW_SetAntSwitch>:
 800d46c:	4770      	bx	lr

0800d46e <RFW_TransmitInit>:
 800d46e:	f04f 30ff 	mov.w	r0, #4294967295
 800d472:	4770      	bx	lr

0800d474 <RFW_ReceiveInit>:
 800d474:	f04f 30ff 	mov.w	r0, #4294967295
 800d478:	4770      	bx	lr

0800d47a <RFW_DeInit_TxLongPacket>:
 800d47a:	4770      	bx	lr

0800d47c <RFW_ReceivePayload>:
 800d47c:	4770      	bx	lr

0800d47e <RFW_SetRadioModem>:
 800d47e:	4770      	bx	lr

0800d480 <UTIL_LPM_Init>:
 800d480:	4a02      	ldr	r2, [pc, #8]	; (800d48c <UTIL_LPM_Init+0xc>)
 800d482:	2300      	movs	r3, #0
 800d484:	6013      	str	r3, [r2, #0]
 800d486:	4a02      	ldr	r2, [pc, #8]	; (800d490 <UTIL_LPM_Init+0x10>)
 800d488:	6013      	str	r3, [r2, #0]
 800d48a:	4770      	bx	lr
 800d48c:	20001c58 	.word	0x20001c58
 800d490:	20001c54 	.word	0x20001c54

0800d494 <UTIL_LPM_SetStopMode>:
 800d494:	b510      	push	{r4, lr}
 800d496:	f3ef 8410 	mrs	r4, PRIMASK
 800d49a:	b672      	cpsid	i
 800d49c:	b141      	cbz	r1, 800d4b0 <UTIL_LPM_SetStopMode+0x1c>
 800d49e:	2901      	cmp	r1, #1
 800d4a0:	d103      	bne.n	800d4aa <UTIL_LPM_SetStopMode+0x16>
 800d4a2:	4a06      	ldr	r2, [pc, #24]	; (800d4bc <UTIL_LPM_SetStopMode+0x28>)
 800d4a4:	6813      	ldr	r3, [r2, #0]
 800d4a6:	4318      	orrs	r0, r3
 800d4a8:	6010      	str	r0, [r2, #0]
 800d4aa:	f384 8810 	msr	PRIMASK, r4
 800d4ae:	bd10      	pop	{r4, pc}
 800d4b0:	4a02      	ldr	r2, [pc, #8]	; (800d4bc <UTIL_LPM_SetStopMode+0x28>)
 800d4b2:	6813      	ldr	r3, [r2, #0]
 800d4b4:	ea23 0000 	bic.w	r0, r3, r0
 800d4b8:	e7f6      	b.n	800d4a8 <UTIL_LPM_SetStopMode+0x14>
 800d4ba:	bf00      	nop
 800d4bc:	20001c58 	.word	0x20001c58

0800d4c0 <UTIL_LPM_SetOffMode>:
 800d4c0:	b510      	push	{r4, lr}
 800d4c2:	f3ef 8410 	mrs	r4, PRIMASK
 800d4c6:	b672      	cpsid	i
 800d4c8:	b141      	cbz	r1, 800d4dc <UTIL_LPM_SetOffMode+0x1c>
 800d4ca:	2901      	cmp	r1, #1
 800d4cc:	d103      	bne.n	800d4d6 <UTIL_LPM_SetOffMode+0x16>
 800d4ce:	4a06      	ldr	r2, [pc, #24]	; (800d4e8 <UTIL_LPM_SetOffMode+0x28>)
 800d4d0:	6813      	ldr	r3, [r2, #0]
 800d4d2:	4318      	orrs	r0, r3
 800d4d4:	6010      	str	r0, [r2, #0]
 800d4d6:	f384 8810 	msr	PRIMASK, r4
 800d4da:	bd10      	pop	{r4, pc}
 800d4dc:	4a02      	ldr	r2, [pc, #8]	; (800d4e8 <UTIL_LPM_SetOffMode+0x28>)
 800d4de:	6813      	ldr	r3, [r2, #0]
 800d4e0:	ea23 0000 	bic.w	r0, r3, r0
 800d4e4:	e7f6      	b.n	800d4d4 <UTIL_LPM_SetOffMode+0x14>
 800d4e6:	bf00      	nop
 800d4e8:	20001c54 	.word	0x20001c54

0800d4ec <UTIL_LPM_EnterLowPower>:
 800d4ec:	b538      	push	{r3, r4, r5, lr}
 800d4ee:	f3ef 8510 	mrs	r5, PRIMASK
 800d4f2:	b672      	cpsid	i
 800d4f4:	4b0a      	ldr	r3, [pc, #40]	; (800d520 <UTIL_LPM_EnterLowPower+0x34>)
 800d4f6:	4c0b      	ldr	r4, [pc, #44]	; (800d524 <UTIL_LPM_EnterLowPower+0x38>)
 800d4f8:	681b      	ldr	r3, [r3, #0]
 800d4fa:	b133      	cbz	r3, 800d50a <UTIL_LPM_EnterLowPower+0x1e>
 800d4fc:	6823      	ldr	r3, [r4, #0]
 800d4fe:	4798      	blx	r3
 800d500:	6863      	ldr	r3, [r4, #4]
 800d502:	4798      	blx	r3
 800d504:	f385 8810 	msr	PRIMASK, r5
 800d508:	bd38      	pop	{r3, r4, r5, pc}
 800d50a:	4b07      	ldr	r3, [pc, #28]	; (800d528 <UTIL_LPM_EnterLowPower+0x3c>)
 800d50c:	681b      	ldr	r3, [r3, #0]
 800d50e:	b11b      	cbz	r3, 800d518 <UTIL_LPM_EnterLowPower+0x2c>
 800d510:	68a3      	ldr	r3, [r4, #8]
 800d512:	4798      	blx	r3
 800d514:	68e3      	ldr	r3, [r4, #12]
 800d516:	e7f4      	b.n	800d502 <UTIL_LPM_EnterLowPower+0x16>
 800d518:	6923      	ldr	r3, [r4, #16]
 800d51a:	4798      	blx	r3
 800d51c:	6963      	ldr	r3, [r4, #20]
 800d51e:	e7f0      	b.n	800d502 <UTIL_LPM_EnterLowPower+0x16>
 800d520:	20001c58 	.word	0x20001c58
 800d524:	0800e958 	.word	0x0800e958
 800d528:	20001c54 	.word	0x20001c54

0800d52c <UTIL_MEM_cpy_8>:
 800d52c:	3801      	subs	r0, #1
 800d52e:	440a      	add	r2, r1
 800d530:	4291      	cmp	r1, r2
 800d532:	d100      	bne.n	800d536 <UTIL_MEM_cpy_8+0xa>
 800d534:	4770      	bx	lr
 800d536:	f811 3b01 	ldrb.w	r3, [r1], #1
 800d53a:	f800 3f01 	strb.w	r3, [r0, #1]!
 800d53e:	e7f7      	b.n	800d530 <UTIL_MEM_cpy_8+0x4>

0800d540 <UTIL_MEM_set_8>:
 800d540:	f000 bcbc 	b.w	800debc <memset>

0800d544 <SysTimeAdd>:
 800d544:	b082      	sub	sp, #8
 800d546:	b082      	sub	sp, #8
 800d548:	f10d 0c08 	add.w	ip, sp, #8
 800d54c:	e90c 0006 	stmdb	ip, {r1, r2}
 800d550:	f8bd 2004 	ldrh.w	r2, [sp, #4]
 800d554:	9303      	str	r3, [sp, #12]
 800d556:	440b      	add	r3, r1
 800d558:	f8bd 1010 	ldrh.w	r1, [sp, #16]
 800d55c:	440a      	add	r2, r1
 800d55e:	b291      	uxth	r1, r2
 800d560:	b212      	sxth	r2, r2
 800d562:	f5b2 7f7a 	cmp.w	r2, #1000	; 0x3e8
 800d566:	bfa2      	ittt	ge
 800d568:	f5a1 727a 	subge.w	r2, r1, #1000	; 0x3e8
 800d56c:	3301      	addge	r3, #1
 800d56e:	b212      	sxthge	r2, r2
 800d570:	6003      	str	r3, [r0, #0]
 800d572:	8082      	strh	r2, [r0, #4]
 800d574:	b002      	add	sp, #8
 800d576:	b002      	add	sp, #8
 800d578:	4770      	bx	lr

0800d57a <SysTimeSub>:
 800d57a:	b082      	sub	sp, #8
 800d57c:	b082      	sub	sp, #8
 800d57e:	f10d 0c08 	add.w	ip, sp, #8
 800d582:	e90c 0006 	stmdb	ip, {r1, r2}
 800d586:	f8bd 2004 	ldrh.w	r2, [sp, #4]
 800d58a:	9303      	str	r3, [sp, #12]
 800d58c:	1acb      	subs	r3, r1, r3
 800d58e:	f8bd 1010 	ldrh.w	r1, [sp, #16]
 800d592:	1a52      	subs	r2, r2, r1
 800d594:	b291      	uxth	r1, r2
 800d596:	b212      	sxth	r2, r2
 800d598:	2a00      	cmp	r2, #0
 800d59a:	bfbe      	ittt	lt
 800d59c:	f501 727a 	addlt.w	r2, r1, #1000	; 0x3e8
 800d5a0:	f103 33ff 	addlt.w	r3, r3, #4294967295
 800d5a4:	b212      	sxthlt	r2, r2
 800d5a6:	6003      	str	r3, [r0, #0]
 800d5a8:	8082      	strh	r2, [r0, #4]
 800d5aa:	b002      	add	sp, #8
 800d5ac:	b002      	add	sp, #8
 800d5ae:	4770      	bx	lr

0800d5b0 <SysTimeSet>:
 800d5b0:	b530      	push	{r4, r5, lr}
 800d5b2:	b085      	sub	sp, #20
 800d5b4:	4d11      	ldr	r5, [pc, #68]	; (800d5fc <SysTimeSet+0x4c>)
 800d5b6:	466b      	mov	r3, sp
 800d5b8:	e883 0003 	stmia.w	r3, {r0, r1}
 800d5bc:	2300      	movs	r3, #0
 800d5be:	9302      	str	r3, [sp, #8]
 800d5c0:	f8ad 300c 	strh.w	r3, [sp, #12]
 800d5c4:	a803      	add	r0, sp, #12
 800d5c6:	692b      	ldr	r3, [r5, #16]
 800d5c8:	4798      	blx	r3
 800d5ca:	9b00      	ldr	r3, [sp, #0]
 800d5cc:	f8bd 4004 	ldrh.w	r4, [sp, #4]
 800d5d0:	9002      	str	r0, [sp, #8]
 800d5d2:	1a18      	subs	r0, r3, r0
 800d5d4:	f8bd 300c 	ldrh.w	r3, [sp, #12]
 800d5d8:	1ae4      	subs	r4, r4, r3
 800d5da:	b2a3      	uxth	r3, r4
 800d5dc:	b224      	sxth	r4, r4
 800d5de:	2c00      	cmp	r4, #0
 800d5e0:	bfbe      	ittt	lt
 800d5e2:	f503 747a 	addlt.w	r4, r3, #1000	; 0x3e8
 800d5e6:	f100 30ff 	addlt.w	r0, r0, #4294967295
 800d5ea:	b224      	sxthlt	r4, r4
 800d5ec:	682b      	ldr	r3, [r5, #0]
 800d5ee:	4798      	blx	r3
 800d5f0:	68ab      	ldr	r3, [r5, #8]
 800d5f2:	4620      	mov	r0, r4
 800d5f4:	4798      	blx	r3
 800d5f6:	b005      	add	sp, #20
 800d5f8:	bd30      	pop	{r4, r5, pc}
 800d5fa:	bf00      	nop
 800d5fc:	0800ea1c 	.word	0x0800ea1c

0800d600 <SysTimeGet>:
 800d600:	b573      	push	{r0, r1, r4, r5, r6, lr}
 800d602:	4e11      	ldr	r6, [pc, #68]	; (800d648 <SysTimeGet+0x48>)
 800d604:	2300      	movs	r3, #0
 800d606:	4605      	mov	r5, r0
 800d608:	9300      	str	r3, [sp, #0]
 800d60a:	f8ad 3004 	strh.w	r3, [sp, #4]
 800d60e:	a801      	add	r0, sp, #4
 800d610:	6933      	ldr	r3, [r6, #16]
 800d612:	4798      	blx	r3
 800d614:	68f3      	ldr	r3, [r6, #12]
 800d616:	9000      	str	r0, [sp, #0]
 800d618:	4798      	blx	r3
 800d61a:	6873      	ldr	r3, [r6, #4]
 800d61c:	4604      	mov	r4, r0
 800d61e:	4798      	blx	r3
 800d620:	9b00      	ldr	r3, [sp, #0]
 800d622:	4418      	add	r0, r3
 800d624:	f8bd 3004 	ldrh.w	r3, [sp, #4]
 800d628:	4423      	add	r3, r4
 800d62a:	b29a      	uxth	r2, r3
 800d62c:	b21b      	sxth	r3, r3
 800d62e:	f5b3 7f7a 	cmp.w	r3, #1000	; 0x3e8
 800d632:	bfa2      	ittt	ge
 800d634:	3001      	addge	r0, #1
 800d636:	f5a2 737a 	subge.w	r3, r2, #1000	; 0x3e8
 800d63a:	b21b      	sxthge	r3, r3
 800d63c:	6028      	str	r0, [r5, #0]
 800d63e:	4628      	mov	r0, r5
 800d640:	80ab      	strh	r3, [r5, #4]
 800d642:	b002      	add	sp, #8
 800d644:	bd70      	pop	{r4, r5, r6, pc}
 800d646:	bf00      	nop
 800d648:	0800ea1c 	.word	0x0800ea1c

0800d64c <SysTimeGetMcuTime>:
 800d64c:	b537      	push	{r0, r1, r2, r4, r5, lr}
 800d64e:	2300      	movs	r3, #0
 800d650:	9300      	str	r3, [sp, #0]
 800d652:	f8ad 3004 	strh.w	r3, [sp, #4]
 800d656:	4b07      	ldr	r3, [pc, #28]	; (800d674 <SysTimeGetMcuTime+0x28>)
 800d658:	4604      	mov	r4, r0
 800d65a:	691b      	ldr	r3, [r3, #16]
 800d65c:	a801      	add	r0, sp, #4
 800d65e:	4798      	blx	r3
 800d660:	466d      	mov	r5, sp
 800d662:	9000      	str	r0, [sp, #0]
 800d664:	e895 0003 	ldmia.w	r5, {r0, r1}
 800d668:	e884 0003 	stmia.w	r4, {r0, r1}
 800d66c:	4620      	mov	r0, r4
 800d66e:	b003      	add	sp, #12
 800d670:	bd30      	pop	{r4, r5, pc}
 800d672:	bf00      	nop
 800d674:	0800ea1c 	.word	0x0800ea1c

0800d678 <SysTimeToMs>:
 800d678:	b537      	push	{r0, r1, r2, r4, r5, lr}
 800d67a:	4d0f      	ldr	r5, [pc, #60]	; (800d6b8 <SysTimeToMs+0x40>)
 800d67c:	ab02      	add	r3, sp, #8
 800d67e:	e903 0003 	stmdb	r3, {r0, r1}
 800d682:	68eb      	ldr	r3, [r5, #12]
 800d684:	4798      	blx	r3
 800d686:	686b      	ldr	r3, [r5, #4]
 800d688:	4604      	mov	r4, r0
 800d68a:	4798      	blx	r3
 800d68c:	f8bd 3004 	ldrh.w	r3, [sp, #4]
 800d690:	9a00      	ldr	r2, [sp, #0]
 800d692:	1b1b      	subs	r3, r3, r4
 800d694:	b299      	uxth	r1, r3
 800d696:	b21b      	sxth	r3, r3
 800d698:	2b00      	cmp	r3, #0
 800d69a:	eba2 0200 	sub.w	r2, r2, r0
 800d69e:	bfbe      	ittt	lt
 800d6a0:	f501 737a 	addlt.w	r3, r1, #1000	; 0x3e8
 800d6a4:	f102 32ff 	addlt.w	r2, r2, #4294967295
 800d6a8:	b21b      	sxthlt	r3, r3
 800d6aa:	f44f 707a 	mov.w	r0, #1000	; 0x3e8
 800d6ae:	fb00 3002 	mla	r0, r0, r2, r3
 800d6b2:	b003      	add	sp, #12
 800d6b4:	bd30      	pop	{r4, r5, pc}
 800d6b6:	bf00      	nop
 800d6b8:	0800ea1c 	.word	0x0800ea1c

0800d6bc <SysTimeFromMs>:
 800d6bc:	e92d 41f0 	stmdb	sp!, {r4, r5, r6, r7, r8, lr}
 800d6c0:	f44f 757a 	mov.w	r5, #1000	; 0x3e8
 800d6c4:	fbb1 f5f5 	udiv	r5, r1, r5
 800d6c8:	ebc5 1345 	rsb	r3, r5, r5, lsl #5
 800d6cc:	f8df 803c 	ldr.w	r8, [pc, #60]	; 800d70c <SysTimeFromMs+0x50>
 800d6d0:	eb05 0383 	add.w	r3, r5, r3, lsl #2
 800d6d4:	eba1 03c3 	sub.w	r3, r1, r3, lsl #3
 800d6d8:	b29c      	uxth	r4, r3
 800d6da:	f8d8 300c 	ldr.w	r3, [r8, #12]
 800d6de:	4606      	mov	r6, r0
 800d6e0:	4798      	blx	r3
 800d6e2:	f8d8 3004 	ldr.w	r3, [r8, #4]
 800d6e6:	4607      	mov	r7, r0
 800d6e8:	4798      	blx	r3
 800d6ea:	19e3      	adds	r3, r4, r7
 800d6ec:	b29a      	uxth	r2, r3
 800d6ee:	b21b      	sxth	r3, r3
 800d6f0:	f5b3 7f7a 	cmp.w	r3, #1000	; 0x3e8
 800d6f4:	4405      	add	r5, r0
 800d6f6:	bfa2      	ittt	ge
 800d6f8:	f5a2 737a 	subge.w	r3, r2, #1000	; 0x3e8
 800d6fc:	3501      	addge	r5, #1
 800d6fe:	b21b      	sxthge	r3, r3
 800d700:	6035      	str	r5, [r6, #0]
 800d702:	80b3      	strh	r3, [r6, #4]
 800d704:	4630      	mov	r0, r6
 800d706:	e8bd 81f0 	ldmia.w	sp!, {r4, r5, r6, r7, r8, pc}
 800d70a:	bf00      	nop
 800d70c:	0800ea1c 	.word	0x0800ea1c

0800d710 <tiny_vsnprintf_like>:
 800d710:	e92d 4ff0 	stmdb	sp!, {r4, r5, r6, r7, r8, r9, sl, fp, lr}
 800d714:	b097      	sub	sp, #92	; 0x5c
 800d716:	2900      	cmp	r1, #0
 800d718:	4680      	mov	r8, r0
 800d71a:	9103      	str	r1, [sp, #12]
 800d71c:	f340 8107 	ble.w	800d92e <tiny_vsnprintf_like+0x21e>
 800d720:	469a      	mov	sl, r3
 800d722:	4604      	mov	r4, r0
 800d724:	9903      	ldr	r1, [sp, #12]
 800d726:	7813      	ldrb	r3, [r2, #0]
 800d728:	eba4 0008 	sub.w	r0, r4, r8
 800d72c:	3901      	subs	r1, #1
 800d72e:	b923      	cbnz	r3, 800d73a <tiny_vsnprintf_like+0x2a>
 800d730:	2300      	movs	r3, #0
 800d732:	7023      	strb	r3, [r4, #0]
 800d734:	b017      	add	sp, #92	; 0x5c
 800d736:	e8bd 8ff0 	ldmia.w	sp!, {r4, r5, r6, r7, r8, r9, sl, fp, pc}
 800d73a:	4288      	cmp	r0, r1
 800d73c:	daf8      	bge.n	800d730 <tiny_vsnprintf_like+0x20>
 800d73e:	2b25      	cmp	r3, #37	; 0x25
 800d740:	d004      	beq.n	800d74c <tiny_vsnprintf_like+0x3c>
 800d742:	f804 3b01 	strb.w	r3, [r4], #1
 800d746:	4616      	mov	r6, r2
 800d748:	1c72      	adds	r2, r6, #1
 800d74a:	e7eb      	b.n	800d724 <tiny_vsnprintf_like+0x14>
 800d74c:	f892 e001 	ldrb.w	lr, [r2, #1]
 800d750:	f1ae 0330 	sub.w	r3, lr, #48	; 0x30
 800d754:	f1d3 0c00 	rsbs	ip, r3, #0
 800d758:	eb4c 0c03 	adc.w	ip, ip, r3
 800d75c:	f1ae 0330 	sub.w	r3, lr, #48	; 0x30
 800d760:	2b09      	cmp	r3, #9
 800d762:	f102 0601 	add.w	r6, r2, #1
 800d766:	d828      	bhi.n	800d7ba <tiny_vsnprintf_like+0xaa>
 800d768:	4632      	mov	r2, r6
 800d76a:	2500      	movs	r5, #0
 800d76c:	f04f 090a 	mov.w	r9, #10
 800d770:	4616      	mov	r6, r2
 800d772:	f812 3b01 	ldrb.w	r3, [r2], #1
 800d776:	f1a3 0030 	sub.w	r0, r3, #48	; 0x30
 800d77a:	2809      	cmp	r0, #9
 800d77c:	d919      	bls.n	800d7b2 <tiny_vsnprintf_like+0xa2>
 800d77e:	7833      	ldrb	r3, [r6, #0]
 800d780:	2b69      	cmp	r3, #105	; 0x69
 800d782:	f000 8099 	beq.w	800d8b8 <tiny_vsnprintf_like+0x1a8>
 800d786:	d81b      	bhi.n	800d7c0 <tiny_vsnprintf_like+0xb0>
 800d788:	2b63      	cmp	r3, #99	; 0x63
 800d78a:	d027      	beq.n	800d7dc <tiny_vsnprintf_like+0xcc>
 800d78c:	2b64      	cmp	r3, #100	; 0x64
 800d78e:	f000 8093 	beq.w	800d8b8 <tiny_vsnprintf_like+0x1a8>
 800d792:	2b58      	cmp	r3, #88	; 0x58
 800d794:	d058      	beq.n	800d848 <tiny_vsnprintf_like+0x138>
 800d796:	2b25      	cmp	r3, #37	; 0x25
 800d798:	d118      	bne.n	800d7cc <tiny_vsnprintf_like+0xbc>
 800d79a:	7833      	ldrb	r3, [r6, #0]
 800d79c:	2b00      	cmp	r3, #0
 800d79e:	f000 808f 	beq.w	800d8c0 <tiny_vsnprintf_like+0x1b0>
 800d7a2:	f804 3b01 	strb.w	r3, [r4], #1
 800d7a6:	eba4 0308 	sub.w	r3, r4, r8
 800d7aa:	428b      	cmp	r3, r1
 800d7ac:	f280 8086 	bge.w	800d8bc <tiny_vsnprintf_like+0x1ac>
 800d7b0:	e7ca      	b.n	800d748 <tiny_vsnprintf_like+0x38>
 800d7b2:	fb09 3505 	mla	r5, r9, r5, r3
 800d7b6:	3d30      	subs	r5, #48	; 0x30
 800d7b8:	e7da      	b.n	800d770 <tiny_vsnprintf_like+0x60>
 800d7ba:	f04f 35ff 	mov.w	r5, #4294967295
 800d7be:	e7de      	b.n	800d77e <tiny_vsnprintf_like+0x6e>
 800d7c0:	2b75      	cmp	r3, #117	; 0x75
 800d7c2:	d07b      	beq.n	800d8bc <tiny_vsnprintf_like+0x1ac>
 800d7c4:	2b78      	cmp	r3, #120	; 0x78
 800d7c6:	d041      	beq.n	800d84c <tiny_vsnprintf_like+0x13c>
 800d7c8:	2b73      	cmp	r3, #115	; 0x73
 800d7ca:	d01e      	beq.n	800d80a <tiny_vsnprintf_like+0xfa>
 800d7cc:	2325      	movs	r3, #37	; 0x25
 800d7ce:	f804 3b01 	strb.w	r3, [r4], #1
 800d7d2:	eba4 0308 	sub.w	r3, r4, r8
 800d7d6:	428b      	cmp	r3, r1
 800d7d8:	da70      	bge.n	800d8bc <tiny_vsnprintf_like+0x1ac>
 800d7da:	e7de      	b.n	800d79a <tiny_vsnprintf_like+0x8a>
 800d7dc:	2d00      	cmp	r5, #0
 800d7de:	f105 39ff 	add.w	r9, r5, #4294967295
 800d7e2:	bfd8      	it	le
 800d7e4:	f04f 0900 	movle.w	r9, #0
 800d7e8:	464a      	mov	r2, r9
 800d7ea:	4620      	mov	r0, r4
 800d7ec:	2120      	movs	r1, #32
 800d7ee:	f000 fb65 	bl	800debc <memset>
 800d7f2:	4653      	mov	r3, sl
 800d7f4:	44a1      	add	r9, r4
 800d7f6:	2d00      	cmp	r5, #0
 800d7f8:	f853 2b04 	ldr.w	r2, [r3], #4
 800d7fc:	f889 2000 	strb.w	r2, [r9]
 800d800:	bfd8      	it	le
 800d802:	2501      	movle	r5, #1
 800d804:	442c      	add	r4, r5
 800d806:	469a      	mov	sl, r3
 800d808:	e79e      	b.n	800d748 <tiny_vsnprintf_like+0x38>
 800d80a:	4b4a      	ldr	r3, [pc, #296]	; (800d934 <tiny_vsnprintf_like+0x224>)
 800d80c:	f85a 7b04 	ldr.w	r7, [sl], #4
 800d810:	2f00      	cmp	r7, #0
 800d812:	bf08      	it	eq
 800d814:	461f      	moveq	r7, r3
 800d816:	4638      	mov	r0, r7
 800d818:	f7f2 fcb2 	bl	8000180 <strlen>
 800d81c:	eba5 0b00 	sub.w	fp, r5, r0
 800d820:	4285      	cmp	r5, r0
 800d822:	bfb8      	it	lt
 800d824:	f04f 0b00 	movlt.w	fp, #0
 800d828:	4681      	mov	r9, r0
 800d82a:	465a      	mov	r2, fp
 800d82c:	4620      	mov	r0, r4
 800d82e:	2120      	movs	r1, #32
 800d830:	f000 fb44 	bl	800debc <memset>
 800d834:	445c      	add	r4, fp
 800d836:	2300      	movs	r3, #0
 800d838:	454b      	cmp	r3, r9
 800d83a:	db01      	blt.n	800d840 <tiny_vsnprintf_like+0x130>
 800d83c:	444c      	add	r4, r9
 800d83e:	e783      	b.n	800d748 <tiny_vsnprintf_like+0x38>
 800d840:	5cfa      	ldrb	r2, [r7, r3]
 800d842:	54e2      	strb	r2, [r4, r3]
 800d844:	3301      	adds	r3, #1
 800d846:	e7f7      	b.n	800d838 <tiny_vsnprintf_like+0x128>
 800d848:	f04c 0c40 	orr.w	ip, ip, #64	; 0x40
 800d84c:	2010      	movs	r0, #16
 800d84e:	f8df 90e8 	ldr.w	r9, [pc, #232]	; 800d938 <tiny_vsnprintf_like+0x228>
 800d852:	4f3a      	ldr	r7, [pc, #232]	; (800d93c <tiny_vsnprintf_like+0x22c>)
 800d854:	f01c 0f40 	tst.w	ip, #64	; 0x40
 800d858:	bf08      	it	eq
 800d85a:	464f      	moveq	r7, r9
 800d85c:	4653      	mov	r3, sl
 800d85e:	f1be 0f30 	cmp.w	lr, #48	; 0x30
 800d862:	9701      	str	r7, [sp, #4]
 800d864:	eba4 0208 	sub.w	r2, r4, r8
 800d868:	bf0c      	ite	eq
 800d86a:	2730      	moveq	r7, #48	; 0x30
 800d86c:	2720      	movne	r7, #32
 800d86e:	f01c 0f02 	tst.w	ip, #2
 800d872:	eba1 0202 	sub.w	r2, r1, r2
 800d876:	9702      	str	r7, [sp, #8]
 800d878:	f853 1b04 	ldr.w	r1, [r3], #4
 800d87c:	d022      	beq.n	800d8c4 <tiny_vsnprintf_like+0x1b4>
 800d87e:	2900      	cmp	r1, #0
 800d880:	da20      	bge.n	800d8c4 <tiny_vsnprintf_like+0x1b4>
 800d882:	4249      	negs	r1, r1
 800d884:	3d01      	subs	r5, #1
 800d886:	f04f 0c2d 	mov.w	ip, #45	; 0x2d
 800d88a:	af05      	add	r7, sp, #20
 800d88c:	9700      	str	r7, [sp, #0]
 800d88e:	2700      	movs	r7, #0
 800d890:	4689      	mov	r9, r1
 800d892:	f8dd a004 	ldr.w	sl, [sp, #4]
 800d896:	fbb1 f1f0 	udiv	r1, r1, r0
 800d89a:	fb00 9b11 	mls	fp, r0, r1, r9
 800d89e:	4548      	cmp	r0, r9
 800d8a0:	f81a b00b 	ldrb.w	fp, [sl, fp]
 800d8a4:	f8dd a000 	ldr.w	sl, [sp]
 800d8a8:	f80a bb01 	strb.w	fp, [sl], #1
 800d8ac:	f107 0701 	add.w	r7, r7, #1
 800d8b0:	f8cd a000 	str.w	sl, [sp]
 800d8b4:	d9ec      	bls.n	800d890 <tiny_vsnprintf_like+0x180>
 800d8b6:	e00e      	b.n	800d8d6 <tiny_vsnprintf_like+0x1c6>
 800d8b8:	f04c 0c02 	orr.w	ip, ip, #2
 800d8bc:	200a      	movs	r0, #10
 800d8be:	e7c6      	b.n	800d84e <tiny_vsnprintf_like+0x13e>
 800d8c0:	3e01      	subs	r6, #1
 800d8c2:	e770      	b.n	800d7a6 <tiny_vsnprintf_like+0x96>
 800d8c4:	b111      	cbz	r1, 800d8cc <tiny_vsnprintf_like+0x1bc>
 800d8c6:	f04f 0c00 	mov.w	ip, #0
 800d8ca:	e7de      	b.n	800d88a <tiny_vsnprintf_like+0x17a>
 800d8cc:	2030      	movs	r0, #48	; 0x30
 800d8ce:	f88d 0014 	strb.w	r0, [sp, #20]
 800d8d2:	468c      	mov	ip, r1
 800d8d4:	2701      	movs	r7, #1
 800d8d6:	f1be 0f30 	cmp.w	lr, #48	; 0x30
 800d8da:	eba5 0507 	sub.w	r5, r5, r7
 800d8de:	d004      	beq.n	800d8ea <tiny_vsnprintf_like+0x1da>
 800d8e0:	2020      	movs	r0, #32
 800d8e2:	2d00      	cmp	r5, #0
 800d8e4:	f105 35ff 	add.w	r5, r5, #4294967295
 800d8e8:	dc08      	bgt.n	800d8fc <tiny_vsnprintf_like+0x1ec>
 800d8ea:	f1bc 0f00 	cmp.w	ip, #0
 800d8ee:	d003      	beq.n	800d8f8 <tiny_vsnprintf_like+0x1e8>
 800d8f0:	3a01      	subs	r2, #1
 800d8f2:	f804 cb01 	strb.w	ip, [r4], #1
 800d8f6:	d086      	beq.n	800d806 <tiny_vsnprintf_like+0xf6>
 800d8f8:	4425      	add	r5, r4
 800d8fa:	e00a      	b.n	800d912 <tiny_vsnprintf_like+0x202>
 800d8fc:	3a01      	subs	r2, #1
 800d8fe:	f804 0b01 	strb.w	r0, [r4], #1
 800d902:	d1ee      	bne.n	800d8e2 <tiny_vsnprintf_like+0x1d2>
 800d904:	e77f      	b.n	800d806 <tiny_vsnprintf_like+0xf6>
 800d906:	9902      	ldr	r1, [sp, #8]
 800d908:	f804 1b01 	strb.w	r1, [r4], #1
 800d90c:	3a01      	subs	r2, #1
 800d90e:	f43f af7a 	beq.w	800d806 <tiny_vsnprintf_like+0xf6>
 800d912:	1b29      	subs	r1, r5, r4
 800d914:	2900      	cmp	r1, #0
 800d916:	dcf6      	bgt.n	800d906 <tiny_vsnprintf_like+0x1f6>
 800d918:	a905      	add	r1, sp, #20
 800d91a:	4422      	add	r2, r4
 800d91c:	3f01      	subs	r7, #1
 800d91e:	f4ff af72 	bcc.w	800d806 <tiny_vsnprintf_like+0xf6>
 800d922:	5c78      	ldrb	r0, [r7, r1]
 800d924:	f804 0b01 	strb.w	r0, [r4], #1
 800d928:	4294      	cmp	r4, r2
 800d92a:	d1f7      	bne.n	800d91c <tiny_vsnprintf_like+0x20c>
 800d92c:	e76b      	b.n	800d806 <tiny_vsnprintf_like+0xf6>
 800d92e:	2000      	movs	r0, #0
 800d930:	e700      	b.n	800d734 <tiny_vsnprintf_like+0x24>
 800d932:	bf00      	nop
 800d934:	0800ef74 	.word	0x0800ef74
 800d938:	0800efa0 	.word	0x0800efa0
 800d93c:	0800ef7b 	.word	0x0800ef7b

0800d940 <UTIL_SEQ_SetTask>:
 800d940:	b510      	push	{r4, lr}
 800d942:	f3ef 8410 	mrs	r4, PRIMASK
 800d946:	b672      	cpsid	i
 800d948:	4a06      	ldr	r2, [pc, #24]	; (800d964 <UTIL_SEQ_SetTask+0x24>)
 800d94a:	6813      	ldr	r3, [r2, #0]
 800d94c:	4303      	orrs	r3, r0
 800d94e:	6013      	str	r3, [r2, #0]
 800d950:	4a05      	ldr	r2, [pc, #20]	; (800d968 <UTIL_SEQ_SetTask+0x28>)
 800d952:	f852 3031 	ldr.w	r3, [r2, r1, lsl #3]
 800d956:	4318      	orrs	r0, r3
 800d958:	f842 0031 	str.w	r0, [r2, r1, lsl #3]
 800d95c:	f384 8810 	msr	PRIMASK, r4
 800d960:	bd10      	pop	{r4, pc}
 800d962:	bf00      	nop
 800d964:	20001c80 	.word	0x20001c80
 800d968:	20001c78 	.word	0x20001c78

0800d96c <UTIL_SEQ_PreIdle>:
 800d96c:	4770      	bx	lr

0800d96e <UTIL_SEQ_PostIdle>:
 800d96e:	4770      	bx	lr

0800d970 <SEQ_BitPosition>:
 800d970:	0c03      	lsrs	r3, r0, #16
 800d972:	041b      	lsls	r3, r3, #16
 800d974:	b9c3      	cbnz	r3, 800d9a8 <SEQ_BitPosition+0x38>
 800d976:	0400      	lsls	r0, r0, #16
 800d978:	2310      	movs	r3, #16
 800d97a:	f010 4f7f 	tst.w	r0, #4278190080	; 0xff000000
 800d97e:	bf02      	ittt	eq
 800d980:	3308      	addeq	r3, #8
 800d982:	0200      	lsleq	r0, r0, #8
 800d984:	b2db      	uxtbeq	r3, r3
 800d986:	f010 4f70 	tst.w	r0, #4026531840	; 0xf0000000
 800d98a:	bf08      	it	eq
 800d98c:	0100      	lsleq	r0, r0, #4
 800d98e:	4a07      	ldr	r2, [pc, #28]	; (800d9ac <SEQ_BitPosition+0x3c>)
 800d990:	ea4f 7010 	mov.w	r0, r0, lsr #28
 800d994:	bf08      	it	eq
 800d996:	3304      	addeq	r3, #4
 800d998:	5c10      	ldrb	r0, [r2, r0]
 800d99a:	bf08      	it	eq
 800d99c:	b2db      	uxtbeq	r3, r3
 800d99e:	f1c3 031f 	rsb	r3, r3, #31
 800d9a2:	1a18      	subs	r0, r3, r0
 800d9a4:	b2c0      	uxtb	r0, r0
 800d9a6:	4770      	bx	lr
 800d9a8:	2300      	movs	r3, #0
 800d9aa:	e7e6      	b.n	800d97a <SEQ_BitPosition+0xa>
 800d9ac:	0800efc5 	.word	0x0800efc5

0800d9b0 <UTIL_SEQ_Run>:
 800d9b0:	e92d 4ff8 	stmdb	sp!, {r3, r4, r5, r6, r7, r8, r9, sl, fp, lr}
 800d9b4:	4d38      	ldr	r5, [pc, #224]	; (800da98 <UTIL_SEQ_Run+0xe8>)
 800d9b6:	4e39      	ldr	r6, [pc, #228]	; (800da9c <UTIL_SEQ_Run+0xec>)
 800d9b8:	f8d5 8000 	ldr.w	r8, [r5]
 800d9bc:	f8df b0e0 	ldr.w	fp, [pc, #224]	; 800daa0 <UTIL_SEQ_Run+0xf0>
 800d9c0:	f8df a0e0 	ldr.w	sl, [pc, #224]	; 800daa4 <UTIL_SEQ_Run+0xf4>
 800d9c4:	f8df 90e0 	ldr.w	r9, [pc, #224]	; 800daa8 <UTIL_SEQ_Run+0xf8>
 800d9c8:	6833      	ldr	r3, [r6, #0]
 800d9ca:	4f38      	ldr	r7, [pc, #224]	; (800daac <UTIL_SEQ_Run+0xfc>)
 800d9cc:	f8db 1000 	ldr.w	r1, [fp]
 800d9d0:	4c37      	ldr	r4, [pc, #220]	; (800dab0 <UTIL_SEQ_Run+0x100>)
 800d9d2:	ea08 0000 	and.w	r0, r8, r0
 800d9d6:	6028      	str	r0, [r5, #0]
 800d9d8:	f8da 0000 	ldr.w	r0, [sl]
 800d9dc:	f8d9 2000 	ldr.w	r2, [r9]
 800d9e0:	f8d5 c000 	ldr.w	ip, [r5]
 800d9e4:	ea0c 0e00 	and.w	lr, ip, r0
 800d9e8:	ea1e 0f03 	tst.w	lr, r3
 800d9ec:	d001      	beq.n	800d9f2 <UTIL_SEQ_Run+0x42>
 800d9ee:	4211      	tst	r1, r2
 800d9f0:	d01e      	beq.n	800da30 <UTIL_SEQ_Run+0x80>
 800d9f2:	f04f 33ff 	mov.w	r3, #4294967295
 800d9f6:	603b      	str	r3, [r7, #0]
 800d9f8:	f7ff ffb8 	bl	800d96c <UTIL_SEQ_PreIdle>
 800d9fc:	f3ef 8410 	mrs	r4, PRIMASK
 800da00:	b672      	cpsid	i
 800da02:	6833      	ldr	r3, [r6, #0]
 800da04:	f8db 2000 	ldr.w	r2, [fp]
 800da08:	f8da 1000 	ldr.w	r1, [sl]
 800da0c:	400b      	ands	r3, r1
 800da0e:	6829      	ldr	r1, [r5, #0]
 800da10:	420b      	tst	r3, r1
 800da12:	d105      	bne.n	800da20 <UTIL_SEQ_Run+0x70>
 800da14:	f8d9 3000 	ldr.w	r3, [r9]
 800da18:	4213      	tst	r3, r2
 800da1a:	d101      	bne.n	800da20 <UTIL_SEQ_Run+0x70>
 800da1c:	f7f3 fd26 	bl	800146c <UTIL_SEQ_Idle>
 800da20:	f384 8810 	msr	PRIMASK, r4
 800da24:	f7ff ffa3 	bl	800d96e <UTIL_SEQ_PostIdle>
 800da28:	f8c5 8000 	str.w	r8, [r5]
 800da2c:	e8bd 8ff8 	ldmia.w	sp!, {r3, r4, r5, r6, r7, r8, r9, sl, fp, pc}
 800da30:	6823      	ldr	r3, [r4, #0]
 800da32:	6823      	ldr	r3, [r4, #0]
 800da34:	6862      	ldr	r2, [r4, #4]
 800da36:	ea03 030c 	and.w	r3, r3, ip
 800da3a:	4003      	ands	r3, r0
 800da3c:	421a      	tst	r2, r3
 800da3e:	bf04      	itt	eq
 800da40:	f04f 32ff 	moveq.w	r2, #4294967295
 800da44:	6062      	streq	r2, [r4, #4]
 800da46:	6860      	ldr	r0, [r4, #4]
 800da48:	4018      	ands	r0, r3
 800da4a:	f7ff ff91 	bl	800d970 <SEQ_BitPosition>
 800da4e:	6863      	ldr	r3, [r4, #4]
 800da50:	6038      	str	r0, [r7, #0]
 800da52:	2201      	movs	r2, #1
 800da54:	fa02 f000 	lsl.w	r0, r2, r0
 800da58:	ea23 0000 	bic.w	r0, r3, r0
 800da5c:	6060      	str	r0, [r4, #4]
 800da5e:	f3ef 8110 	mrs	r1, PRIMASK
 800da62:	b672      	cpsid	i
 800da64:	683b      	ldr	r3, [r7, #0]
 800da66:	fa02 f303 	lsl.w	r3, r2, r3
 800da6a:	6832      	ldr	r2, [r6, #0]
 800da6c:	ea22 0203 	bic.w	r2, r2, r3
 800da70:	6032      	str	r2, [r6, #0]
 800da72:	6822      	ldr	r2, [r4, #0]
 800da74:	ea22 0303 	bic.w	r3, r2, r3
 800da78:	6023      	str	r3, [r4, #0]
 800da7a:	f381 8810 	msr	PRIMASK, r1
 800da7e:	4a0d      	ldr	r2, [pc, #52]	; (800dab4 <UTIL_SEQ_Run+0x104>)
 800da80:	683b      	ldr	r3, [r7, #0]
 800da82:	f852 3023 	ldr.w	r3, [r2, r3, lsl #2]
 800da86:	4798      	blx	r3
 800da88:	6833      	ldr	r3, [r6, #0]
 800da8a:	f8db 1000 	ldr.w	r1, [fp]
 800da8e:	f8da 0000 	ldr.w	r0, [sl]
 800da92:	f8d9 2000 	ldr.w	r2, [r9]
 800da96:	e7a3      	b.n	800d9e0 <UTIL_SEQ_Run+0x30>
 800da98:	2000011c 	.word	0x2000011c
 800da9c:	20001c80 	.word	0x20001c80
 800daa0:	20001c60 	.word	0x20001c60
 800daa4:	20000120 	.word	0x20000120
 800daa8:	20001c64 	.word	0x20001c64
 800daac:	20001c5c 	.word	0x20001c5c
 800dab0:	20001c78 	.word	0x20001c78
 800dab4:	20001c68 	.word	0x20001c68

0800dab8 <UTIL_SEQ_RegTask>:
 800dab8:	b510      	push	{r4, lr}
 800daba:	4611      	mov	r1, r2
 800dabc:	f3ef 8410 	mrs	r4, PRIMASK
 800dac0:	b672      	cpsid	i
 800dac2:	f7ff ff55 	bl	800d970 <SEQ_BitPosition>
 800dac6:	4b03      	ldr	r3, [pc, #12]	; (800dad4 <UTIL_SEQ_RegTask+0x1c>)
 800dac8:	f843 1020 	str.w	r1, [r3, r0, lsl #2]
 800dacc:	f384 8810 	msr	PRIMASK, r4
 800dad0:	bd10      	pop	{r4, pc}
 800dad2:	bf00      	nop
 800dad4:	20001c68 	.word	0x20001c68

0800dad8 <UTIL_TIMER_Init>:
 800dad8:	4b02      	ldr	r3, [pc, #8]	; (800dae4 <UTIL_TIMER_Init+0xc>)
 800dada:	2200      	movs	r2, #0
 800dadc:	601a      	str	r2, [r3, #0]
 800dade:	4b02      	ldr	r3, [pc, #8]	; (800dae8 <UTIL_TIMER_Init+0x10>)
 800dae0:	681b      	ldr	r3, [r3, #0]
 800dae2:	4718      	bx	r3
 800dae4:	20001c84 	.word	0x20001c84
 800dae8:	0800ea30 	.word	0x0800ea30

0800daec <UTIL_TIMER_Create>:
 800daec:	b5f8      	push	{r3, r4, r5, r6, r7, lr}
 800daee:	4604      	mov	r4, r0
 800daf0:	4617      	mov	r7, r2
 800daf2:	4608      	mov	r0, r1
 800daf4:	461e      	mov	r6, r3
 800daf6:	b17c      	cbz	r4, 800db18 <UTIL_TIMER_Create+0x2c>
 800daf8:	b173      	cbz	r3, 800db18 <UTIL_TIMER_Create+0x2c>
 800dafa:	4b08      	ldr	r3, [pc, #32]	; (800db1c <UTIL_TIMER_Create+0x30>)
 800dafc:	2500      	movs	r5, #0
 800dafe:	6a5b      	ldr	r3, [r3, #36]	; 0x24
 800db00:	6025      	str	r5, [r4, #0]
 800db02:	4798      	blx	r3
 800db04:	9b06      	ldr	r3, [sp, #24]
 800db06:	6060      	str	r0, [r4, #4]
 800db08:	8125      	strh	r5, [r4, #8]
 800db0a:	72a5      	strb	r5, [r4, #10]
 800db0c:	60e6      	str	r6, [r4, #12]
 800db0e:	6123      	str	r3, [r4, #16]
 800db10:	72e7      	strb	r7, [r4, #11]
 800db12:	6165      	str	r5, [r4, #20]
 800db14:	4628      	mov	r0, r5
 800db16:	bdf8      	pop	{r3, r4, r5, r6, r7, pc}
 800db18:	2001      	movs	r0, #1
 800db1a:	e7fc      	b.n	800db16 <UTIL_TIMER_Create+0x2a>
 800db1c:	0800ea30 	.word	0x0800ea30

0800db20 <UTIL_TIMER_GetCurrentTime>:
 800db20:	b510      	push	{r4, lr}
 800db22:	4c03      	ldr	r4, [pc, #12]	; (800db30 <UTIL_TIMER_GetCurrentTime+0x10>)
 800db24:	69e3      	ldr	r3, [r4, #28]
 800db26:	4798      	blx	r3
 800db28:	6aa3      	ldr	r3, [r4, #40]	; 0x28
 800db2a:	e8bd 4010 	ldmia.w	sp!, {r4, lr}
 800db2e:	4718      	bx	r3
 800db30:	0800ea30 	.word	0x0800ea30

0800db34 <UTIL_TIMER_GetElapsedTime>:
 800db34:	b570      	push	{r4, r5, r6, lr}
 800db36:	4d06      	ldr	r5, [pc, #24]	; (800db50 <UTIL_TIMER_GetElapsedTime+0x1c>)
 800db38:	69eb      	ldr	r3, [r5, #28]
 800db3a:	4606      	mov	r6, r0
 800db3c:	4798      	blx	r3
 800db3e:	6a6b      	ldr	r3, [r5, #36]	; 0x24
 800db40:	4604      	mov	r4, r0
 800db42:	4630      	mov	r0, r6
 800db44:	4798      	blx	r3
 800db46:	6aab      	ldr	r3, [r5, #40]	; 0x28
 800db48:	1a20      	subs	r0, r4, r0
 800db4a:	e8bd 4070 	ldmia.w	sp!, {r4, r5, r6, lr}
 800db4e:	4718      	bx	r3
 800db50:	0800ea30 	.word	0x0800ea30

0800db54 <TimerExists>:
 800db54:	4a05      	ldr	r2, [pc, #20]	; (800db6c <TimerExists+0x18>)
 800db56:	4603      	mov	r3, r0
 800db58:	6810      	ldr	r0, [r2, #0]
 800db5a:	b900      	cbnz	r0, 800db5e <TimerExists+0xa>
 800db5c:	4770      	bx	lr
 800db5e:	4298      	cmp	r0, r3
 800db60:	d001      	beq.n	800db66 <TimerExists+0x12>
 800db62:	6940      	ldr	r0, [r0, #20]
 800db64:	e7f9      	b.n	800db5a <TimerExists+0x6>
 800db66:	2001      	movs	r0, #1
 800db68:	4770      	bx	lr
 800db6a:	bf00      	nop
 800db6c:	20001c84 	.word	0x20001c84

0800db70 <TimerSetTimeout>:
 800db70:	e92d 41f3 	stmdb	sp!, {r0, r1, r4, r5, r6, r7, r8, lr}
 800db74:	4e0b      	ldr	r6, [pc, #44]	; (800dba4 <TimerSetTimeout+0x34>)
 800db76:	6a33      	ldr	r3, [r6, #32]
 800db78:	4604      	mov	r4, r0
 800db7a:	4798      	blx	r3
 800db7c:	2301      	movs	r3, #1
 800db7e:	69b7      	ldr	r7, [r6, #24]
 800db80:	7223      	strb	r3, [r4, #8]
 800db82:	f8d4 8000 	ldr.w	r8, [r4]
 800db86:	4605      	mov	r5, r0
 800db88:	47b8      	blx	r7
 800db8a:	4428      	add	r0, r5
 800db8c:	4580      	cmp	r8, r0
 800db8e:	d202      	bcs.n	800db96 <TimerSetTimeout+0x26>
 800db90:	47b8      	blx	r7
 800db92:	4405      	add	r5, r0
 800db94:	6025      	str	r5, [r4, #0]
 800db96:	68b3      	ldr	r3, [r6, #8]
 800db98:	6820      	ldr	r0, [r4, #0]
 800db9a:	9301      	str	r3, [sp, #4]
 800db9c:	b002      	add	sp, #8
 800db9e:	e8bd 41f0 	ldmia.w	sp!, {r4, r5, r6, r7, r8, lr}
 800dba2:	4718      	bx	r3
 800dba4:	0800ea30 	.word	0x0800ea30

0800dba8 <UTIL_TIMER_Stop>:
 800dba8:	b570      	push	{r4, r5, r6, lr}
 800dbaa:	b320      	cbz	r0, 800dbf6 <UTIL_TIMER_Stop+0x4e>
 800dbac:	f3ef 8610 	mrs	r6, PRIMASK
 800dbb0:	b672      	cpsid	i
 800dbb2:	4d12      	ldr	r5, [pc, #72]	; (800dbfc <UTIL_TIMER_Stop+0x54>)
 800dbb4:	682b      	ldr	r3, [r5, #0]
 800dbb6:	2201      	movs	r2, #1
 800dbb8:	7282      	strb	r2, [r0, #10]
 800dbba:	b153      	cbz	r3, 800dbd2 <UTIL_TIMER_Stop+0x2a>
 800dbbc:	2200      	movs	r2, #0
 800dbbe:	4298      	cmp	r0, r3
 800dbc0:	7242      	strb	r2, [r0, #9]
 800dbc2:	d10f      	bne.n	800dbe4 <UTIL_TIMER_Stop+0x3c>
 800dbc4:	6944      	ldr	r4, [r0, #20]
 800dbc6:	7202      	strb	r2, [r0, #8]
 800dbc8:	b13c      	cbz	r4, 800dbda <UTIL_TIMER_Stop+0x32>
 800dbca:	4620      	mov	r0, r4
 800dbcc:	602c      	str	r4, [r5, #0]
 800dbce:	f7ff ffcf 	bl	800db70 <TimerSetTimeout>
 800dbd2:	f386 8810 	msr	PRIMASK, r6
 800dbd6:	2000      	movs	r0, #0
 800dbd8:	bd70      	pop	{r4, r5, r6, pc}
 800dbda:	4b09      	ldr	r3, [pc, #36]	; (800dc00 <UTIL_TIMER_Stop+0x58>)
 800dbdc:	68db      	ldr	r3, [r3, #12]
 800dbde:	4798      	blx	r3
 800dbe0:	602c      	str	r4, [r5, #0]
 800dbe2:	e7f6      	b.n	800dbd2 <UTIL_TIMER_Stop+0x2a>
 800dbe4:	461a      	mov	r2, r3
 800dbe6:	695b      	ldr	r3, [r3, #20]
 800dbe8:	2b00      	cmp	r3, #0
 800dbea:	d0f2      	beq.n	800dbd2 <UTIL_TIMER_Stop+0x2a>
 800dbec:	4298      	cmp	r0, r3
 800dbee:	d1f9      	bne.n	800dbe4 <UTIL_TIMER_Stop+0x3c>
 800dbf0:	6943      	ldr	r3, [r0, #20]
 800dbf2:	6153      	str	r3, [r2, #20]
 800dbf4:	e7ed      	b.n	800dbd2 <UTIL_TIMER_Stop+0x2a>
 800dbf6:	2001      	movs	r0, #1
 800dbf8:	e7ee      	b.n	800dbd8 <UTIL_TIMER_Stop+0x30>
 800dbfa:	bf00      	nop
 800dbfc:	20001c84 	.word	0x20001c84
 800dc00:	0800ea30 	.word	0x0800ea30

0800dc04 <TimerInsertTimer>:
 800dc04:	4b09      	ldr	r3, [pc, #36]	; (800dc2c <TimerInsertTimer+0x28>)
 800dc06:	b510      	push	{r4, lr}
 800dc08:	681b      	ldr	r3, [r3, #0]
 800dc0a:	695a      	ldr	r2, [r3, #20]
 800dc0c:	6959      	ldr	r1, [r3, #20]
 800dc0e:	b911      	cbnz	r1, 800dc16 <TimerInsertTimer+0x12>
 800dc10:	6158      	str	r0, [r3, #20]
 800dc12:	6141      	str	r1, [r0, #20]
 800dc14:	e008      	b.n	800dc28 <TimerInsertTimer+0x24>
 800dc16:	6804      	ldr	r4, [r0, #0]
 800dc18:	6811      	ldr	r1, [r2, #0]
 800dc1a:	428c      	cmp	r4, r1
 800dc1c:	d902      	bls.n	800dc24 <TimerInsertTimer+0x20>
 800dc1e:	4613      	mov	r3, r2
 800dc20:	6952      	ldr	r2, [r2, #20]
 800dc22:	e7f3      	b.n	800dc0c <TimerInsertTimer+0x8>
 800dc24:	6158      	str	r0, [r3, #20]
 800dc26:	6142      	str	r2, [r0, #20]
 800dc28:	bd10      	pop	{r4, pc}
 800dc2a:	bf00      	nop
 800dc2c:	20001c84 	.word	0x20001c84

0800dc30 <TimerInsertNewHeadTimer>:
 800dc30:	4a04      	ldr	r2, [pc, #16]	; (800dc44 <TimerInsertNewHeadTimer+0x14>)
 800dc32:	6813      	ldr	r3, [r2, #0]
 800dc34:	b10b      	cbz	r3, 800dc3a <TimerInsertNewHeadTimer+0xa>
 800dc36:	2100      	movs	r1, #0
 800dc38:	7219      	strb	r1, [r3, #8]
 800dc3a:	6143      	str	r3, [r0, #20]
 800dc3c:	6010      	str	r0, [r2, #0]
 800dc3e:	f7ff bf97 	b.w	800db70 <TimerSetTimeout>
 800dc42:	bf00      	nop
 800dc44:	20001c84 	.word	0x20001c84

0800dc48 <UTIL_TIMER_Start>:
 800dc48:	e92d 41f0 	stmdb	sp!, {r4, r5, r6, r7, r8, lr}
 800dc4c:	4604      	mov	r4, r0
 800dc4e:	2800      	cmp	r0, #0
 800dc50:	d02d      	beq.n	800dcae <UTIL_TIMER_Start+0x66>
 800dc52:	f7ff ff7f 	bl	800db54 <TimerExists>
 800dc56:	bb50      	cbnz	r0, 800dcae <UTIL_TIMER_Start+0x66>
 800dc58:	7a65      	ldrb	r5, [r4, #9]
 800dc5a:	bb45      	cbnz	r5, 800dcae <UTIL_TIMER_Start+0x66>
 800dc5c:	f3ef 8810 	mrs	r8, PRIMASK
 800dc60:	b672      	cpsid	i
 800dc62:	4e14      	ldr	r6, [pc, #80]	; (800dcb4 <UTIL_TIMER_Start+0x6c>)
 800dc64:	6867      	ldr	r7, [r4, #4]
 800dc66:	6a33      	ldr	r3, [r6, #32]
 800dc68:	4798      	blx	r3
 800dc6a:	4287      	cmp	r7, r0
 800dc6c:	bf2c      	ite	cs
 800dc6e:	6027      	strcs	r7, [r4, #0]
 800dc70:	6020      	strcc	r0, [r4, #0]
 800dc72:	4f11      	ldr	r7, [pc, #68]	; (800dcb8 <UTIL_TIMER_Start+0x70>)
 800dc74:	72a5      	strb	r5, [r4, #10]
 800dc76:	f44f 7380 	mov.w	r3, #256	; 0x100
 800dc7a:	8123      	strh	r3, [r4, #8]
 800dc7c:	683b      	ldr	r3, [r7, #0]
 800dc7e:	b94b      	cbnz	r3, 800dc94 <UTIL_TIMER_Start+0x4c>
 800dc80:	6933      	ldr	r3, [r6, #16]
 800dc82:	4798      	blx	r3
 800dc84:	4620      	mov	r0, r4
 800dc86:	f7ff ffd3 	bl	800dc30 <TimerInsertNewHeadTimer>
 800dc8a:	f388 8810 	msr	PRIMASK, r8
 800dc8e:	4628      	mov	r0, r5
 800dc90:	e8bd 81f0 	ldmia.w	sp!, {r4, r5, r6, r7, r8, pc}
 800dc94:	69b3      	ldr	r3, [r6, #24]
 800dc96:	4798      	blx	r3
 800dc98:	6823      	ldr	r3, [r4, #0]
 800dc9a:	4418      	add	r0, r3
 800dc9c:	683b      	ldr	r3, [r7, #0]
 800dc9e:	6020      	str	r0, [r4, #0]
 800dca0:	681b      	ldr	r3, [r3, #0]
 800dca2:	4298      	cmp	r0, r3
 800dca4:	4620      	mov	r0, r4
 800dca6:	d3ee      	bcc.n	800dc86 <UTIL_TIMER_Start+0x3e>
 800dca8:	f7ff ffac 	bl	800dc04 <TimerInsertTimer>
 800dcac:	e7ed      	b.n	800dc8a <UTIL_TIMER_Start+0x42>
 800dcae:	2501      	movs	r5, #1
 800dcb0:	e7ed      	b.n	800dc8e <UTIL_TIMER_Start+0x46>
 800dcb2:	bf00      	nop
 800dcb4:	0800ea30 	.word	0x0800ea30
 800dcb8:	20001c84 	.word	0x20001c84

0800dcbc <UTIL_TIMER_SetPeriod>:
 800dcbc:	b510      	push	{r4, lr}
 800dcbe:	4604      	mov	r4, r0
 800dcc0:	4608      	mov	r0, r1
 800dcc2:	b17c      	cbz	r4, 800dce4 <UTIL_TIMER_SetPeriod+0x28>
 800dcc4:	4b08      	ldr	r3, [pc, #32]	; (800dce8 <UTIL_TIMER_SetPeriod+0x2c>)
 800dcc6:	6a5b      	ldr	r3, [r3, #36]	; 0x24
 800dcc8:	4798      	blx	r3
 800dcca:	6060      	str	r0, [r4, #4]
 800dccc:	4620      	mov	r0, r4
 800dcce:	f7ff ff41 	bl	800db54 <TimerExists>
 800dcd2:	b140      	cbz	r0, 800dce6 <UTIL_TIMER_SetPeriod+0x2a>
 800dcd4:	4620      	mov	r0, r4
 800dcd6:	f7ff ff67 	bl	800dba8 <UTIL_TIMER_Stop>
 800dcda:	4620      	mov	r0, r4
 800dcdc:	e8bd 4010 	ldmia.w	sp!, {r4, lr}
 800dce0:	f7ff bfb2 	b.w	800dc48 <UTIL_TIMER_Start>
 800dce4:	2001      	movs	r0, #1
 800dce6:	bd10      	pop	{r4, pc}
 800dce8:	0800ea30 	.word	0x0800ea30

0800dcec <UTIL_TIMER_IRQ_Handler>:
 800dcec:	e92d 41f0 	stmdb	sp!, {r4, r5, r6, r7, r8, lr}
 800dcf0:	f3ef 8710 	mrs	r7, PRIMASK
 800dcf4:	b672      	cpsid	i
 800dcf6:	4e1d      	ldr	r6, [pc, #116]	; (800dd6c <UTIL_TIMER_IRQ_Handler+0x80>)
 800dcf8:	4d1d      	ldr	r5, [pc, #116]	; (800dd70 <UTIL_TIMER_IRQ_Handler+0x84>)
 800dcfa:	6973      	ldr	r3, [r6, #20]
 800dcfc:	4798      	blx	r3
 800dcfe:	6933      	ldr	r3, [r6, #16]
 800dd00:	4604      	mov	r4, r0
 800dd02:	4798      	blx	r3
 800dd04:	682b      	ldr	r3, [r5, #0]
 800dd06:	b94b      	cbnz	r3, 800dd1c <UTIL_TIMER_IRQ_Handler+0x30>
 800dd08:	f04f 0800 	mov.w	r8, #0
 800dd0c:	682b      	ldr	r3, [r5, #0]
 800dd0e:	b98b      	cbnz	r3, 800dd34 <UTIL_TIMER_IRQ_Handler+0x48>
 800dd10:	6828      	ldr	r0, [r5, #0]
 800dd12:	bb28      	cbnz	r0, 800dd60 <UTIL_TIMER_IRQ_Handler+0x74>
 800dd14:	f387 8810 	msr	PRIMASK, r7
 800dd18:	e8bd 81f0 	ldmia.w	sp!, {r4, r5, r6, r7, r8, pc}
 800dd1c:	1b01      	subs	r1, r0, r4
 800dd1e:	1a24      	subs	r4, r4, r0
 800dd20:	681a      	ldr	r2, [r3, #0]
 800dd22:	428a      	cmp	r2, r1
 800dd24:	bf8c      	ite	hi
 800dd26:	1912      	addhi	r2, r2, r4
 800dd28:	2200      	movls	r2, #0
 800dd2a:	601a      	str	r2, [r3, #0]
 800dd2c:	695b      	ldr	r3, [r3, #20]
 800dd2e:	2b00      	cmp	r3, #0
 800dd30:	d1f6      	bne.n	800dd20 <UTIL_TIMER_IRQ_Handler+0x34>
 800dd32:	e7e9      	b.n	800dd08 <UTIL_TIMER_IRQ_Handler+0x1c>
 800dd34:	681c      	ldr	r4, [r3, #0]
 800dd36:	b11c      	cbz	r4, 800dd40 <UTIL_TIMER_IRQ_Handler+0x54>
 800dd38:	69b3      	ldr	r3, [r6, #24]
 800dd3a:	4798      	blx	r3
 800dd3c:	4284      	cmp	r4, r0
 800dd3e:	d2e7      	bcs.n	800dd10 <UTIL_TIMER_IRQ_Handler+0x24>
 800dd40:	682c      	ldr	r4, [r5, #0]
 800dd42:	6963      	ldr	r3, [r4, #20]
 800dd44:	602b      	str	r3, [r5, #0]
 800dd46:	f8a4 8008 	strh.w	r8, [r4, #8]
 800dd4a:	e9d4 3003 	ldrd	r3, r0, [r4, #12]
 800dd4e:	4798      	blx	r3
 800dd50:	8963      	ldrh	r3, [r4, #10]
 800dd52:	f5b3 7f80 	cmp.w	r3, #256	; 0x100
 800dd56:	d1d9      	bne.n	800dd0c <UTIL_TIMER_IRQ_Handler+0x20>
 800dd58:	4620      	mov	r0, r4
 800dd5a:	f7ff ff75 	bl	800dc48 <UTIL_TIMER_Start>
 800dd5e:	e7d5      	b.n	800dd0c <UTIL_TIMER_IRQ_Handler+0x20>
 800dd60:	7a03      	ldrb	r3, [r0, #8]
 800dd62:	2b00      	cmp	r3, #0
 800dd64:	d1d6      	bne.n	800dd14 <UTIL_TIMER_IRQ_Handler+0x28>
 800dd66:	f7ff ff03 	bl	800db70 <TimerSetTimeout>
 800dd6a:	e7d3      	b.n	800dd14 <UTIL_TIMER_IRQ_Handler+0x28>
 800dd6c:	0800ea30 	.word	0x0800ea30
 800dd70:	20001c84 	.word	0x20001c84

0800dd74 <TRACE_UnLock>:
 800dd74:	f3ef 8110 	mrs	r1, PRIMASK
 800dd78:	b672      	cpsid	i
 800dd7a:	4a03      	ldr	r2, [pc, #12]	; (800dd88 <TRACE_UnLock+0x14>)
 800dd7c:	8ad3      	ldrh	r3, [r2, #22]
 800dd7e:	3b01      	subs	r3, #1
 800dd80:	82d3      	strh	r3, [r2, #22]
 800dd82:	f381 8810 	msr	PRIMASK, r1
 800dd86:	4770      	bx	lr
 800dd88:	20002088 	.word	0x20002088

0800dd8c <UTIL_ADV_TRACE_Init>:
 800dd8c:	b510      	push	{r4, lr}
 800dd8e:	4808      	ldr	r0, [pc, #32]	; (800ddb0 <UTIL_ADV_TRACE_Init+0x24>)
 800dd90:	2218      	movs	r2, #24
 800dd92:	2100      	movs	r1, #0
 800dd94:	f7ff fbd4 	bl	800d540 <UTIL_MEM_set_8>
 800dd98:	4806      	ldr	r0, [pc, #24]	; (800ddb4 <UTIL_ADV_TRACE_Init+0x28>)
 800dd9a:	f44f 6280 	mov.w	r2, #1024	; 0x400
 800dd9e:	2100      	movs	r1, #0
 800dda0:	f7ff fbce 	bl	800d540 <UTIL_MEM_set_8>
 800dda4:	4b04      	ldr	r3, [pc, #16]	; (800ddb8 <UTIL_ADV_TRACE_Init+0x2c>)
 800dda6:	4805      	ldr	r0, [pc, #20]	; (800ddbc <UTIL_ADV_TRACE_Init+0x30>)
 800dda8:	681b      	ldr	r3, [r3, #0]
 800ddaa:	e8bd 4010 	ldmia.w	sp!, {r4, lr}
 800ddae:	4718      	bx	r3
 800ddb0:	20002088 	.word	0x20002088
 800ddb4:	20001c88 	.word	0x20001c88
 800ddb8:	0800ea5c 	.word	0x0800ea5c
 800ddbc:	0800ddd9 	.word	0x0800ddd9

0800ddc0 <UTIL_ADV_TRACE_RegisterTimeStampFunction>:
 800ddc0:	4b01      	ldr	r3, [pc, #4]	; (800ddc8 <UTIL_ADV_TRACE_RegisterTimeStampFunction+0x8>)
 800ddc2:	6058      	str	r0, [r3, #4]
 800ddc4:	4770      	bx	lr
 800ddc6:	bf00      	nop
 800ddc8:	20002088 	.word	0x20002088

0800ddcc <UTIL_ADV_TRACE_SetVerboseLevel>:
 800ddcc:	4b01      	ldr	r3, [pc, #4]	; (800ddd4 <UTIL_ADV_TRACE_SetVerboseLevel+0x8>)
 800ddce:	7218      	strb	r0, [r3, #8]
 800ddd0:	4770      	bx	lr
 800ddd2:	bf00      	nop
 800ddd4:	20002088 	.word	0x20002088

0800ddd8 <TRACE_TxCpltCallback>:
 800ddd8:	b537      	push	{r0, r1, r2, r4, r5, lr}
 800ddda:	f3ef 8410 	mrs	r4, PRIMASK
 800ddde:	b672      	cpsid	i
 800dde0:	4b21      	ldr	r3, [pc, #132]	; (800de68 <TRACE_TxCpltCallback+0x90>)
 800dde2:	789a      	ldrb	r2, [r3, #2]
 800dde4:	2a02      	cmp	r2, #2
 800dde6:	bf1d      	ittte	ne
 800dde8:	8a1a      	ldrhne	r2, [r3, #16]
 800ddea:	8a99      	ldrhne	r1, [r3, #20]
 800ddec:	1852      	addne	r2, r2, r1
 800ddee:	2200      	moveq	r2, #0
 800ddf0:	bf18      	it	ne
 800ddf2:	f3c2 0209 	ubfxne	r2, r2, #0, #10
 800ddf6:	821a      	strh	r2, [r3, #16]
 800ddf8:	8a1d      	ldrh	r5, [r3, #16]
 800ddfa:	8a59      	ldrh	r1, [r3, #18]
 800ddfc:	bf08      	it	eq
 800ddfe:	709a      	strbeq	r2, [r3, #2]
 800de00:	428d      	cmp	r5, r1
 800de02:	d027      	beq.n	800de54 <TRACE_TxCpltCallback+0x7c>
 800de04:	8ada      	ldrh	r2, [r3, #22]
 800de06:	2a01      	cmp	r2, #1
 800de08:	d124      	bne.n	800de54 <TRACE_TxCpltCallback+0x7c>
 800de0a:	7898      	ldrb	r0, [r3, #2]
 800de0c:	2801      	cmp	r0, #1
 800de0e:	d112      	bne.n	800de36 <TRACE_TxCpltCallback+0x5e>
 800de10:	881a      	ldrh	r2, [r3, #0]
 800de12:	2002      	movs	r0, #2
 800de14:	1b52      	subs	r2, r2, r5
 800de16:	b292      	uxth	r2, r2
 800de18:	7098      	strb	r0, [r3, #2]
 800de1a:	2000      	movs	r0, #0
 800de1c:	829a      	strh	r2, [r3, #20]
 800de1e:	8018      	strh	r0, [r3, #0]
 800de20:	b95a      	cbnz	r2, 800de3a <TRACE_TxCpltCallback+0x62>
 800de22:	709a      	strb	r2, [r3, #2]
 800de24:	821a      	strh	r2, [r3, #16]
 800de26:	8a1a      	ldrh	r2, [r3, #16]
 800de28:	4291      	cmp	r1, r2
 800de2a:	bf8c      	ite	hi
 800de2c:	1a8a      	subhi	r2, r1, r2
 800de2e:	f5c2 6280 	rsbls	r2, r2, #1024	; 0x400
 800de32:	829a      	strh	r2, [r3, #20]
 800de34:	e001      	b.n	800de3a <TRACE_TxCpltCallback+0x62>
 800de36:	2800      	cmp	r0, #0
 800de38:	d0f5      	beq.n	800de26 <TRACE_TxCpltCallback+0x4e>
 800de3a:	8a1a      	ldrh	r2, [r3, #16]
 800de3c:	480b      	ldr	r0, [pc, #44]	; (800de6c <TRACE_TxCpltCallback+0x94>)
 800de3e:	4410      	add	r0, r2
 800de40:	f384 8810 	msr	PRIMASK, r4
 800de44:	4a0a      	ldr	r2, [pc, #40]	; (800de70 <TRACE_TxCpltCallback+0x98>)
 800de46:	8a99      	ldrh	r1, [r3, #20]
 800de48:	68d3      	ldr	r3, [r2, #12]
 800de4a:	9301      	str	r3, [sp, #4]
 800de4c:	b003      	add	sp, #12
 800de4e:	e8bd 4030 	ldmia.w	sp!, {r4, r5, lr}
 800de52:	4718      	bx	r3
 800de54:	f384 8810 	msr	PRIMASK, r4
 800de58:	f7f3 fb74 	bl	8001544 <UTIL_ADV_TRACE_PostSendHook>
 800de5c:	b003      	add	sp, #12
 800de5e:	e8bd 4030 	ldmia.w	sp!, {r4, r5, lr}
 800de62:	f7ff bf87 	b.w	800dd74 <TRACE_UnLock>
 800de66:	bf00      	nop
 800de68:	20002088 	.word	0x20002088
 800de6c:	20001c88 	.word	0x20001c88
 800de70:	0800ea5c 	.word	0x0800ea5c

0800de74 <__libc_init_array>:
 800de74:	b570      	push	{r4, r5, r6, lr}
 800de76:	4d0d      	ldr	r5, [pc, #52]	; (800deac <__libc_init_array+0x38>)
 800de78:	4c0d      	ldr	r4, [pc, #52]	; (800deb0 <__libc_init_array+0x3c>)
 800de7a:	1b64      	subs	r4, r4, r5
 800de7c:	10a4      	asrs	r4, r4, #2
 800de7e:	2600      	movs	r6, #0
 800de80:	42a6      	cmp	r6, r4
 800de82:	d109      	bne.n	800de98 <__libc_init_array+0x24>
 800de84:	4d0b      	ldr	r5, [pc, #44]	; (800deb4 <__libc_init_array+0x40>)
 800de86:	4c0c      	ldr	r4, [pc, #48]	; (800deb8 <__libc_init_array+0x44>)
 800de88:	f000 fd30 	bl	800e8ec <_init>
 800de8c:	1b64      	subs	r4, r4, r5
 800de8e:	10a4      	asrs	r4, r4, #2
 800de90:	2600      	movs	r6, #0
 800de92:	42a6      	cmp	r6, r4
 800de94:	d105      	bne.n	800dea2 <__libc_init_array+0x2e>
 800de96:	bd70      	pop	{r4, r5, r6, pc}
 800de98:	f855 3b04 	ldr.w	r3, [r5], #4
 800de9c:	4798      	blx	r3
 800de9e:	3601      	adds	r6, #1
 800dea0:	e7ee      	b.n	800de80 <__libc_init_array+0xc>
 800dea2:	f855 3b04 	ldr.w	r3, [r5], #4
 800dea6:	4798      	blx	r3
 800dea8:	3601      	adds	r6, #1
 800deaa:	e7f2      	b.n	800de92 <__libc_init_array+0x1e>
 800deac:	0800f0d0 	.word	0x0800f0d0
 800deb0:	0800f0d0 	.word	0x0800f0d0
 800deb4:	0800f0d0 	.word	0x0800f0d0
 800deb8:	0800f0d4 	.word	0x0800f0d4

0800debc <memset>:
 800debc:	4402      	add	r2, r0
 800debe:	4603      	mov	r3, r0
 800dec0:	4293      	cmp	r3, r2
 800dec2:	d100      	bne.n	800dec6 <memset+0xa>
 800dec4:	4770      	bx	lr
 800dec6:	f803 1b01 	strb.w	r1, [r3], #1
 800deca:	e7f9      	b.n	800dec0 <memset+0x4>

0800decc <sniprintf>:
 800decc:	b40c      	push	{r2, r3}
 800dece:	b530      	push	{r4, r5, lr}
 800ded0:	4b17      	ldr	r3, [pc, #92]	; (800df30 <sniprintf+0x64>)
 800ded2:	1e0c      	subs	r4, r1, #0
 800ded4:	681d      	ldr	r5, [r3, #0]
 800ded6:	b09d      	sub	sp, #116	; 0x74
 800ded8:	da08      	bge.n	800deec <sniprintf+0x20>
 800deda:	238b      	movs	r3, #139	; 0x8b
 800dedc:	602b      	str	r3, [r5, #0]
 800dede:	f04f 30ff 	mov.w	r0, #4294967295
 800dee2:	b01d      	add	sp, #116	; 0x74
 800dee4:	e8bd 4030 	ldmia.w	sp!, {r4, r5, lr}
 800dee8:	b002      	add	sp, #8
 800deea:	4770      	bx	lr
 800deec:	f44f 7302 	mov.w	r3, #520	; 0x208
 800def0:	f8ad 3014 	strh.w	r3, [sp, #20]
 800def4:	bf14      	ite	ne
 800def6:	f104 33ff 	addne.w	r3, r4, #4294967295
 800defa:	4623      	moveq	r3, r4
 800defc:	9304      	str	r3, [sp, #16]
 800defe:	9307      	str	r3, [sp, #28]
 800df00:	f64f 73ff 	movw	r3, #65535	; 0xffff
 800df04:	9002      	str	r0, [sp, #8]
 800df06:	9006      	str	r0, [sp, #24]
 800df08:	f8ad 3016 	strh.w	r3, [sp, #22]
 800df0c:	9a20      	ldr	r2, [sp, #128]	; 0x80
 800df0e:	ab21      	add	r3, sp, #132	; 0x84
 800df10:	a902      	add	r1, sp, #8
 800df12:	4628      	mov	r0, r5
 800df14:	9301      	str	r3, [sp, #4]
 800df16:	f000 f869 	bl	800dfec <_svfiprintf_r>
 800df1a:	1c43      	adds	r3, r0, #1
 800df1c:	bfbc      	itt	lt
 800df1e:	238b      	movlt	r3, #139	; 0x8b
 800df20:	602b      	strlt	r3, [r5, #0]
 800df22:	2c00      	cmp	r4, #0
 800df24:	d0dd      	beq.n	800dee2 <sniprintf+0x16>
 800df26:	9b02      	ldr	r3, [sp, #8]
 800df28:	2200      	movs	r2, #0
 800df2a:	701a      	strb	r2, [r3, #0]
 800df2c:	e7d9      	b.n	800dee2 <sniprintf+0x16>
 800df2e:	bf00      	nop
 800df30:	20000124 	.word	0x20000124

0800df34 <__ssputs_r>:
 800df34:	e92d 47f0 	stmdb	sp!, {r4, r5, r6, r7, r8, r9, sl, lr}
 800df38:	688e      	ldr	r6, [r1, #8]
 800df3a:	429e      	cmp	r6, r3
 800df3c:	4682      	mov	sl, r0
 800df3e:	460c      	mov	r4, r1
 800df40:	4690      	mov	r8, r2
 800df42:	461f      	mov	r7, r3
 800df44:	d838      	bhi.n	800dfb8 <__ssputs_r+0x84>
 800df46:	898a      	ldrh	r2, [r1, #12]
 800df48:	f412 6f90 	tst.w	r2, #1152	; 0x480
 800df4c:	d032      	beq.n	800dfb4 <__ssputs_r+0x80>
 800df4e:	6825      	ldr	r5, [r4, #0]
 800df50:	6909      	ldr	r1, [r1, #16]
 800df52:	eba5 0901 	sub.w	r9, r5, r1
 800df56:	6965      	ldr	r5, [r4, #20]
 800df58:	eb05 0545 	add.w	r5, r5, r5, lsl #1
 800df5c:	eb05 75d5 	add.w	r5, r5, r5, lsr #31
 800df60:	3301      	adds	r3, #1
 800df62:	444b      	add	r3, r9
 800df64:	106d      	asrs	r5, r5, #1
 800df66:	429d      	cmp	r5, r3
 800df68:	bf38      	it	cc
 800df6a:	461d      	movcc	r5, r3
 800df6c:	0553      	lsls	r3, r2, #21
 800df6e:	d531      	bpl.n	800dfd4 <__ssputs_r+0xa0>
 800df70:	4629      	mov	r1, r5
 800df72:	f000 fb61 	bl	800e638 <_malloc_r>
 800df76:	4606      	mov	r6, r0
 800df78:	b950      	cbnz	r0, 800df90 <__ssputs_r+0x5c>
 800df7a:	230c      	movs	r3, #12
 800df7c:	f8ca 3000 	str.w	r3, [sl]
 800df80:	89a3      	ldrh	r3, [r4, #12]
 800df82:	f043 0340 	orr.w	r3, r3, #64	; 0x40
 800df86:	81a3      	strh	r3, [r4, #12]
 800df88:	f04f 30ff 	mov.w	r0, #4294967295
 800df8c:	e8bd 87f0 	ldmia.w	sp!, {r4, r5, r6, r7, r8, r9, sl, pc}
 800df90:	6921      	ldr	r1, [r4, #16]
 800df92:	464a      	mov	r2, r9
 800df94:	f000 fabe 	bl	800e514 <memcpy>
 800df98:	89a3      	ldrh	r3, [r4, #12]
 800df9a:	f423 6390 	bic.w	r3, r3, #1152	; 0x480
 800df9e:	f043 0380 	orr.w	r3, r3, #128	; 0x80
 800dfa2:	81a3      	strh	r3, [r4, #12]
 800dfa4:	6126      	str	r6, [r4, #16]
 800dfa6:	6165      	str	r5, [r4, #20]
 800dfa8:	444e      	add	r6, r9
 800dfaa:	eba5 0509 	sub.w	r5, r5, r9
 800dfae:	6026      	str	r6, [r4, #0]
 800dfb0:	60a5      	str	r5, [r4, #8]
 800dfb2:	463e      	mov	r6, r7
 800dfb4:	42be      	cmp	r6, r7
 800dfb6:	d900      	bls.n	800dfba <__ssputs_r+0x86>
 800dfb8:	463e      	mov	r6, r7
 800dfba:	6820      	ldr	r0, [r4, #0]
 800dfbc:	4632      	mov	r2, r6
 800dfbe:	4641      	mov	r1, r8
 800dfc0:	f000 fab6 	bl	800e530 <memmove>
 800dfc4:	68a3      	ldr	r3, [r4, #8]
 800dfc6:	1b9b      	subs	r3, r3, r6
 800dfc8:	60a3      	str	r3, [r4, #8]
 800dfca:	6823      	ldr	r3, [r4, #0]
 800dfcc:	4433      	add	r3, r6
 800dfce:	6023      	str	r3, [r4, #0]
 800dfd0:	2000      	movs	r0, #0
 800dfd2:	e7db      	b.n	800df8c <__ssputs_r+0x58>
 800dfd4:	462a      	mov	r2, r5
 800dfd6:	f000 fba3 	bl	800e720 <_realloc_r>
 800dfda:	4606      	mov	r6, r0
 800dfdc:	2800      	cmp	r0, #0
 800dfde:	d1e1      	bne.n	800dfa4 <__ssputs_r+0x70>
 800dfe0:	6921      	ldr	r1, [r4, #16]
 800dfe2:	4650      	mov	r0, sl
 800dfe4:	f000 fabe 	bl	800e564 <_free_r>
 800dfe8:	e7c7      	b.n	800df7a <__ssputs_r+0x46>
	...

0800dfec <_svfiprintf_r>:
 800dfec:	e92d 4ff0 	stmdb	sp!, {r4, r5, r6, r7, r8, r9, sl, fp, lr}
 800dff0:	4698      	mov	r8, r3
 800dff2:	898b      	ldrh	r3, [r1, #12]
 800dff4:	061b      	lsls	r3, r3, #24
 800dff6:	b09d      	sub	sp, #116	; 0x74
 800dff8:	4607      	mov	r7, r0
 800dffa:	460d      	mov	r5, r1
 800dffc:	4614      	mov	r4, r2
 800dffe:	d50e      	bpl.n	800e01e <_svfiprintf_r+0x32>
 800e000:	690b      	ldr	r3, [r1, #16]
 800e002:	b963      	cbnz	r3, 800e01e <_svfiprintf_r+0x32>
 800e004:	2140      	movs	r1, #64	; 0x40
 800e006:	f000 fb17 	bl	800e638 <_malloc_r>
 800e00a:	6028      	str	r0, [r5, #0]
 800e00c:	6128      	str	r0, [r5, #16]
 800e00e:	b920      	cbnz	r0, 800e01a <_svfiprintf_r+0x2e>
 800e010:	230c      	movs	r3, #12
 800e012:	603b      	str	r3, [r7, #0]
 800e014:	f04f 30ff 	mov.w	r0, #4294967295
 800e018:	e0d1      	b.n	800e1be <_svfiprintf_r+0x1d2>
 800e01a:	2340      	movs	r3, #64	; 0x40
 800e01c:	616b      	str	r3, [r5, #20]
 800e01e:	2300      	movs	r3, #0
 800e020:	9309      	str	r3, [sp, #36]	; 0x24
 800e022:	2320      	movs	r3, #32
 800e024:	f88d 3029 	strb.w	r3, [sp, #41]	; 0x29
 800e028:	f8cd 800c 	str.w	r8, [sp, #12]
 800e02c:	2330      	movs	r3, #48	; 0x30
 800e02e:	f8df 81a8 	ldr.w	r8, [pc, #424]	; 800e1d8 <_svfiprintf_r+0x1ec>
 800e032:	f88d 302a 	strb.w	r3, [sp, #42]	; 0x2a
 800e036:	f04f 0901 	mov.w	r9, #1
 800e03a:	4623      	mov	r3, r4
 800e03c:	469a      	mov	sl, r3
 800e03e:	f813 2b01 	ldrb.w	r2, [r3], #1
 800e042:	b10a      	cbz	r2, 800e048 <_svfiprintf_r+0x5c>
 800e044:	2a25      	cmp	r2, #37	; 0x25
 800e046:	d1f9      	bne.n	800e03c <_svfiprintf_r+0x50>
 800e048:	ebba 0b04 	subs.w	fp, sl, r4
 800e04c:	d00b      	beq.n	800e066 <_svfiprintf_r+0x7a>
 800e04e:	465b      	mov	r3, fp
 800e050:	4622      	mov	r2, r4
 800e052:	4629      	mov	r1, r5
 800e054:	4638      	mov	r0, r7
 800e056:	f7ff ff6d 	bl	800df34 <__ssputs_r>
 800e05a:	3001      	adds	r0, #1
 800e05c:	f000 80aa 	beq.w	800e1b4 <_svfiprintf_r+0x1c8>
 800e060:	9a09      	ldr	r2, [sp, #36]	; 0x24
 800e062:	445a      	add	r2, fp
 800e064:	9209      	str	r2, [sp, #36]	; 0x24
 800e066:	f89a 3000 	ldrb.w	r3, [sl]
 800e06a:	2b00      	cmp	r3, #0
 800e06c:	f000 80a2 	beq.w	800e1b4 <_svfiprintf_r+0x1c8>
 800e070:	2300      	movs	r3, #0
 800e072:	f04f 32ff 	mov.w	r2, #4294967295
 800e076:	e9cd 2305 	strd	r2, r3, [sp, #20]
 800e07a:	f10a 0a01 	add.w	sl, sl, #1
 800e07e:	9304      	str	r3, [sp, #16]
 800e080:	9307      	str	r3, [sp, #28]
 800e082:	f88d 3053 	strb.w	r3, [sp, #83]	; 0x53
 800e086:	931a      	str	r3, [sp, #104]	; 0x68
 800e088:	4654      	mov	r4, sl
 800e08a:	2205      	movs	r2, #5
 800e08c:	f814 1b01 	ldrb.w	r1, [r4], #1
 800e090:	4851      	ldr	r0, [pc, #324]	; (800e1d8 <_svfiprintf_r+0x1ec>)
 800e092:	f7f2 f87d 	bl	8000190 <memchr>
 800e096:	9a04      	ldr	r2, [sp, #16]
 800e098:	b9d8      	cbnz	r0, 800e0d2 <_svfiprintf_r+0xe6>
 800e09a:	06d0      	lsls	r0, r2, #27
 800e09c:	bf44      	itt	mi
 800e09e:	2320      	movmi	r3, #32
 800e0a0:	f88d 3053 	strbmi.w	r3, [sp, #83]	; 0x53
 800e0a4:	0711      	lsls	r1, r2, #28
 800e0a6:	bf44      	itt	mi
 800e0a8:	232b      	movmi	r3, #43	; 0x2b
 800e0aa:	f88d 3053 	strbmi.w	r3, [sp, #83]	; 0x53
 800e0ae:	f89a 3000 	ldrb.w	r3, [sl]
 800e0b2:	2b2a      	cmp	r3, #42	; 0x2a
 800e0b4:	d015      	beq.n	800e0e2 <_svfiprintf_r+0xf6>
 800e0b6:	9a07      	ldr	r2, [sp, #28]
 800e0b8:	4654      	mov	r4, sl
 800e0ba:	2000      	movs	r0, #0
 800e0bc:	f04f 0c0a 	mov.w	ip, #10
 800e0c0:	4621      	mov	r1, r4
 800e0c2:	f811 3b01 	ldrb.w	r3, [r1], #1
 800e0c6:	3b30      	subs	r3, #48	; 0x30
 800e0c8:	2b09      	cmp	r3, #9
 800e0ca:	d94e      	bls.n	800e16a <_svfiprintf_r+0x17e>
 800e0cc:	b1b0      	cbz	r0, 800e0fc <_svfiprintf_r+0x110>
 800e0ce:	9207      	str	r2, [sp, #28]
 800e0d0:	e014      	b.n	800e0fc <_svfiprintf_r+0x110>
 800e0d2:	eba0 0308 	sub.w	r3, r0, r8
 800e0d6:	fa09 f303 	lsl.w	r3, r9, r3
 800e0da:	4313      	orrs	r3, r2
 800e0dc:	9304      	str	r3, [sp, #16]
 800e0de:	46a2      	mov	sl, r4
 800e0e0:	e7d2      	b.n	800e088 <_svfiprintf_r+0x9c>
 800e0e2:	9b03      	ldr	r3, [sp, #12]
 800e0e4:	1d19      	adds	r1, r3, #4
 800e0e6:	681b      	ldr	r3, [r3, #0]
 800e0e8:	9103      	str	r1, [sp, #12]
 800e0ea:	2b00      	cmp	r3, #0
 800e0ec:	bfbb      	ittet	lt
 800e0ee:	425b      	neglt	r3, r3
 800e0f0:	f042 0202 	orrlt.w	r2, r2, #2
 800e0f4:	9307      	strge	r3, [sp, #28]
 800e0f6:	9307      	strlt	r3, [sp, #28]
 800e0f8:	bfb8      	it	lt
 800e0fa:	9204      	strlt	r2, [sp, #16]
 800e0fc:	7823      	ldrb	r3, [r4, #0]
 800e0fe:	2b2e      	cmp	r3, #46	; 0x2e
 800e100:	d10c      	bne.n	800e11c <_svfiprintf_r+0x130>
 800e102:	7863      	ldrb	r3, [r4, #1]
 800e104:	2b2a      	cmp	r3, #42	; 0x2a
 800e106:	d135      	bne.n	800e174 <_svfiprintf_r+0x188>
 800e108:	9b03      	ldr	r3, [sp, #12]
 800e10a:	1d1a      	adds	r2, r3, #4
 800e10c:	681b      	ldr	r3, [r3, #0]
 800e10e:	9203      	str	r2, [sp, #12]
 800e110:	2b00      	cmp	r3, #0
 800e112:	bfb8      	it	lt
 800e114:	f04f 33ff 	movlt.w	r3, #4294967295
 800e118:	3402      	adds	r4, #2
 800e11a:	9305      	str	r3, [sp, #20]
 800e11c:	f8df a0bc 	ldr.w	sl, [pc, #188]	; 800e1dc <_svfiprintf_r+0x1f0>
 800e120:	7821      	ldrb	r1, [r4, #0]
 800e122:	2203      	movs	r2, #3
 800e124:	4650      	mov	r0, sl
 800e126:	f7f2 f833 	bl	8000190 <memchr>
 800e12a:	b140      	cbz	r0, 800e13e <_svfiprintf_r+0x152>
 800e12c:	2340      	movs	r3, #64	; 0x40
 800e12e:	eba0 000a 	sub.w	r0, r0, sl
 800e132:	fa03 f000 	lsl.w	r0, r3, r0
 800e136:	9b04      	ldr	r3, [sp, #16]
 800e138:	4303      	orrs	r3, r0
 800e13a:	3401      	adds	r4, #1
 800e13c:	9304      	str	r3, [sp, #16]
 800e13e:	f814 1b01 	ldrb.w	r1, [r4], #1
 800e142:	4827      	ldr	r0, [pc, #156]	; (800e1e0 <_svfiprintf_r+0x1f4>)
 800e144:	f88d 1028 	strb.w	r1, [sp, #40]	; 0x28
 800e148:	2206      	movs	r2, #6
 800e14a:	f7f2 f821 	bl	8000190 <memchr>
 800e14e:	2800      	cmp	r0, #0
 800e150:	d038      	beq.n	800e1c4 <_svfiprintf_r+0x1d8>
 800e152:	4b24      	ldr	r3, [pc, #144]	; (800e1e4 <_svfiprintf_r+0x1f8>)
 800e154:	bb1b      	cbnz	r3, 800e19e <_svfiprintf_r+0x1b2>
 800e156:	9b03      	ldr	r3, [sp, #12]
 800e158:	3307      	adds	r3, #7
 800e15a:	f023 0307 	bic.w	r3, r3, #7
 800e15e:	3308      	adds	r3, #8
 800e160:	9303      	str	r3, [sp, #12]
 800e162:	9b09      	ldr	r3, [sp, #36]	; 0x24
 800e164:	4433      	add	r3, r6
 800e166:	9309      	str	r3, [sp, #36]	; 0x24
 800e168:	e767      	b.n	800e03a <_svfiprintf_r+0x4e>
 800e16a:	fb0c 3202 	mla	r2, ip, r2, r3
 800e16e:	460c      	mov	r4, r1
 800e170:	2001      	movs	r0, #1
 800e172:	e7a5      	b.n	800e0c0 <_svfiprintf_r+0xd4>
 800e174:	2300      	movs	r3, #0
 800e176:	3401      	adds	r4, #1
 800e178:	9305      	str	r3, [sp, #20]
 800e17a:	4619      	mov	r1, r3
 800e17c:	f04f 0c0a 	mov.w	ip, #10
 800e180:	4620      	mov	r0, r4
 800e182:	f810 2b01 	ldrb.w	r2, [r0], #1
 800e186:	3a30      	subs	r2, #48	; 0x30
 800e188:	2a09      	cmp	r2, #9
 800e18a:	d903      	bls.n	800e194 <_svfiprintf_r+0x1a8>
 800e18c:	2b00      	cmp	r3, #0
 800e18e:	d0c5      	beq.n	800e11c <_svfiprintf_r+0x130>
 800e190:	9105      	str	r1, [sp, #20]
 800e192:	e7c3      	b.n	800e11c <_svfiprintf_r+0x130>
 800e194:	fb0c 2101 	mla	r1, ip, r1, r2
 800e198:	4604      	mov	r4, r0
 800e19a:	2301      	movs	r3, #1
 800e19c:	e7f0      	b.n	800e180 <_svfiprintf_r+0x194>
 800e19e:	ab03      	add	r3, sp, #12
 800e1a0:	9300      	str	r3, [sp, #0]
 800e1a2:	462a      	mov	r2, r5
 800e1a4:	4b10      	ldr	r3, [pc, #64]	; (800e1e8 <_svfiprintf_r+0x1fc>)
 800e1a6:	a904      	add	r1, sp, #16
 800e1a8:	4638      	mov	r0, r7
 800e1aa:	f3af 8000 	nop.w
 800e1ae:	1c42      	adds	r2, r0, #1
 800e1b0:	4606      	mov	r6, r0
 800e1b2:	d1d6      	bne.n	800e162 <_svfiprintf_r+0x176>
 800e1b4:	89ab      	ldrh	r3, [r5, #12]
 800e1b6:	065b      	lsls	r3, r3, #25
 800e1b8:	f53f af2c 	bmi.w	800e014 <_svfiprintf_r+0x28>
 800e1bc:	9809      	ldr	r0, [sp, #36]	; 0x24
 800e1be:	b01d      	add	sp, #116	; 0x74
 800e1c0:	e8bd 8ff0 	ldmia.w	sp!, {r4, r5, r6, r7, r8, r9, sl, fp, pc}
 800e1c4:	ab03      	add	r3, sp, #12
 800e1c6:	9300      	str	r3, [sp, #0]
 800e1c8:	462a      	mov	r2, r5
 800e1ca:	4b07      	ldr	r3, [pc, #28]	; (800e1e8 <_svfiprintf_r+0x1fc>)
 800e1cc:	a904      	add	r1, sp, #16
 800e1ce:	4638      	mov	r0, r7
 800e1d0:	f000 f87a 	bl	800e2c8 <_printf_i>
 800e1d4:	e7eb      	b.n	800e1ae <_svfiprintf_r+0x1c2>
 800e1d6:	bf00      	nop
 800e1d8:	0800efd5 	.word	0x0800efd5
 800e1dc:	0800efdb 	.word	0x0800efdb
 800e1e0:	0800efdf 	.word	0x0800efdf
 800e1e4:	00000000 	.word	0x00000000
 800e1e8:	0800df35 	.word	0x0800df35

0800e1ec <_printf_common>:
 800e1ec:	e92d 47f0 	stmdb	sp!, {r4, r5, r6, r7, r8, r9, sl, lr}
 800e1f0:	4616      	mov	r6, r2
 800e1f2:	4699      	mov	r9, r3
 800e1f4:	688a      	ldr	r2, [r1, #8]
 800e1f6:	690b      	ldr	r3, [r1, #16]
 800e1f8:	f8dd 8020 	ldr.w	r8, [sp, #32]
 800e1fc:	4293      	cmp	r3, r2
 800e1fe:	bfb8      	it	lt
 800e200:	4613      	movlt	r3, r2
 800e202:	6033      	str	r3, [r6, #0]
 800e204:	f891 2043 	ldrb.w	r2, [r1, #67]	; 0x43
 800e208:	4607      	mov	r7, r0
 800e20a:	460c      	mov	r4, r1
 800e20c:	b10a      	cbz	r2, 800e212 <_printf_common+0x26>
 800e20e:	3301      	adds	r3, #1
 800e210:	6033      	str	r3, [r6, #0]
 800e212:	6823      	ldr	r3, [r4, #0]
 800e214:	0699      	lsls	r1, r3, #26
 800e216:	bf42      	ittt	mi
 800e218:	6833      	ldrmi	r3, [r6, #0]
 800e21a:	3302      	addmi	r3, #2
 800e21c:	6033      	strmi	r3, [r6, #0]
 800e21e:	6825      	ldr	r5, [r4, #0]
 800e220:	f015 0506 	ands.w	r5, r5, #6
 800e224:	d106      	bne.n	800e234 <_printf_common+0x48>
 800e226:	f104 0a19 	add.w	sl, r4, #25
 800e22a:	68e3      	ldr	r3, [r4, #12]
 800e22c:	6832      	ldr	r2, [r6, #0]
 800e22e:	1a9b      	subs	r3, r3, r2
 800e230:	42ab      	cmp	r3, r5
 800e232:	dc26      	bgt.n	800e282 <_printf_common+0x96>
 800e234:	f894 2043 	ldrb.w	r2, [r4, #67]	; 0x43
 800e238:	1e13      	subs	r3, r2, #0
 800e23a:	6822      	ldr	r2, [r4, #0]
 800e23c:	bf18      	it	ne
 800e23e:	2301      	movne	r3, #1
 800e240:	0692      	lsls	r2, r2, #26
 800e242:	d42b      	bmi.n	800e29c <_printf_common+0xb0>
 800e244:	f104 0243 	add.w	r2, r4, #67	; 0x43
 800e248:	4649      	mov	r1, r9
 800e24a:	4638      	mov	r0, r7
 800e24c:	47c0      	blx	r8
 800e24e:	3001      	adds	r0, #1
 800e250:	d01e      	beq.n	800e290 <_printf_common+0xa4>
 800e252:	6823      	ldr	r3, [r4, #0]
 800e254:	68e5      	ldr	r5, [r4, #12]
 800e256:	6832      	ldr	r2, [r6, #0]
 800e258:	f003 0306 	and.w	r3, r3, #6
 800e25c:	2b04      	cmp	r3, #4
 800e25e:	bf08      	it	eq
 800e260:	1aad      	subeq	r5, r5, r2
 800e262:	68a3      	ldr	r3, [r4, #8]
 800e264:	6922      	ldr	r2, [r4, #16]
 800e266:	bf0c      	ite	eq
 800e268:	ea25 75e5 	biceq.w	r5, r5, r5, asr #31
 800e26c:	2500      	movne	r5, #0
 800e26e:	4293      	cmp	r3, r2
 800e270:	bfc4      	itt	gt
 800e272:	1a9b      	subgt	r3, r3, r2
 800e274:	18ed      	addgt	r5, r5, r3
 800e276:	2600      	movs	r6, #0
 800e278:	341a      	adds	r4, #26
 800e27a:	42b5      	cmp	r5, r6
 800e27c:	d11a      	bne.n	800e2b4 <_printf_common+0xc8>
 800e27e:	2000      	movs	r0, #0
 800e280:	e008      	b.n	800e294 <_printf_common+0xa8>
 800e282:	2301      	movs	r3, #1
 800e284:	4652      	mov	r2, sl
 800e286:	4649      	mov	r1, r9
 800e288:	4638      	mov	r0, r7
 800e28a:	47c0      	blx	r8
 800e28c:	3001      	adds	r0, #1
 800e28e:	d103      	bne.n	800e298 <_printf_common+0xac>
 800e290:	f04f 30ff 	mov.w	r0, #4294967295
 800e294:	e8bd 87f0 	ldmia.w	sp!, {r4, r5, r6, r7, r8, r9, sl, pc}
 800e298:	3501      	adds	r5, #1
 800e29a:	e7c6      	b.n	800e22a <_printf_common+0x3e>
 800e29c:	18e1      	adds	r1, r4, r3
 800e29e:	1c5a      	adds	r2, r3, #1
 800e2a0:	2030      	movs	r0, #48	; 0x30
 800e2a2:	f881 0043 	strb.w	r0, [r1, #67]	; 0x43
 800e2a6:	4422      	add	r2, r4
 800e2a8:	f894 1045 	ldrb.w	r1, [r4, #69]	; 0x45
 800e2ac:	f882 1043 	strb.w	r1, [r2, #67]	; 0x43
 800e2b0:	3302      	adds	r3, #2
 800e2b2:	e7c7      	b.n	800e244 <_printf_common+0x58>
 800e2b4:	2301      	movs	r3, #1
 800e2b6:	4622      	mov	r2, r4
 800e2b8:	4649      	mov	r1, r9
 800e2ba:	4638      	mov	r0, r7
 800e2bc:	47c0      	blx	r8
 800e2be:	3001      	adds	r0, #1
 800e2c0:	d0e6      	beq.n	800e290 <_printf_common+0xa4>
 800e2c2:	3601      	adds	r6, #1
 800e2c4:	e7d9      	b.n	800e27a <_printf_common+0x8e>
	...

0800e2c8 <_printf_i>:
 800e2c8:	e92d 47ff 	stmdb	sp!, {r0, r1, r2, r3, r4, r5, r6, r7, r8, r9, sl, lr}
 800e2cc:	7e0f      	ldrb	r7, [r1, #24]
 800e2ce:	9d0c      	ldr	r5, [sp, #48]	; 0x30
 800e2d0:	2f78      	cmp	r7, #120	; 0x78
 800e2d2:	4691      	mov	r9, r2
 800e2d4:	4680      	mov	r8, r0
 800e2d6:	460c      	mov	r4, r1
 800e2d8:	469a      	mov	sl, r3
 800e2da:	f101 0243 	add.w	r2, r1, #67	; 0x43
 800e2de:	d807      	bhi.n	800e2f0 <_printf_i+0x28>
 800e2e0:	2f62      	cmp	r7, #98	; 0x62
 800e2e2:	d80a      	bhi.n	800e2fa <_printf_i+0x32>
 800e2e4:	2f00      	cmp	r7, #0
 800e2e6:	f000 80d8 	beq.w	800e49a <_printf_i+0x1d2>
 800e2ea:	2f58      	cmp	r7, #88	; 0x58
 800e2ec:	f000 80a3 	beq.w	800e436 <_printf_i+0x16e>
 800e2f0:	f104 0542 	add.w	r5, r4, #66	; 0x42
 800e2f4:	f884 7042 	strb.w	r7, [r4, #66]	; 0x42
 800e2f8:	e03a      	b.n	800e370 <_printf_i+0xa8>
 800e2fa:	f1a7 0363 	sub.w	r3, r7, #99	; 0x63
 800e2fe:	2b15      	cmp	r3, #21
 800e300:	d8f6      	bhi.n	800e2f0 <_printf_i+0x28>
 800e302:	a101      	add	r1, pc, #4	; (adr r1, 800e308 <_printf_i+0x40>)
 800e304:	f851 f023 	ldr.w	pc, [r1, r3, lsl #2]
 800e308:	0800e361 	.word	0x0800e361
 800e30c:	0800e375 	.word	0x0800e375
 800e310:	0800e2f1 	.word	0x0800e2f1
 800e314:	0800e2f1 	.word	0x0800e2f1
 800e318:	0800e2f1 	.word	0x0800e2f1
 800e31c:	0800e2f1 	.word	0x0800e2f1
 800e320:	0800e375 	.word	0x0800e375
 800e324:	0800e2f1 	.word	0x0800e2f1
 800e328:	0800e2f1 	.word	0x0800e2f1
 800e32c:	0800e2f1 	.word	0x0800e2f1
 800e330:	0800e2f1 	.word	0x0800e2f1
 800e334:	0800e481 	.word	0x0800e481
 800e338:	0800e3a5 	.word	0x0800e3a5
 800e33c:	0800e463 	.word	0x0800e463
 800e340:	0800e2f1 	.word	0x0800e2f1
 800e344:	0800e2f1 	.word	0x0800e2f1
 800e348:	0800e4a3 	.word	0x0800e4a3
 800e34c:	0800e2f1 	.word	0x0800e2f1
 800e350:	0800e3a5 	.word	0x0800e3a5
 800e354:	0800e2f1 	.word	0x0800e2f1
 800e358:	0800e2f1 	.word	0x0800e2f1
 800e35c:	0800e46b 	.word	0x0800e46b
 800e360:	682b      	ldr	r3, [r5, #0]
 800e362:	1d1a      	adds	r2, r3, #4
 800e364:	681b      	ldr	r3, [r3, #0]
 800e366:	602a      	str	r2, [r5, #0]
 800e368:	f104 0542 	add.w	r5, r4, #66	; 0x42
 800e36c:	f884 3042 	strb.w	r3, [r4, #66]	; 0x42
 800e370:	2301      	movs	r3, #1
 800e372:	e0a3      	b.n	800e4bc <_printf_i+0x1f4>
 800e374:	6820      	ldr	r0, [r4, #0]
 800e376:	6829      	ldr	r1, [r5, #0]
 800e378:	0606      	lsls	r6, r0, #24
 800e37a:	f101 0304 	add.w	r3, r1, #4
 800e37e:	d50a      	bpl.n	800e396 <_printf_i+0xce>
 800e380:	680e      	ldr	r6, [r1, #0]
 800e382:	602b      	str	r3, [r5, #0]
 800e384:	2e00      	cmp	r6, #0
 800e386:	da03      	bge.n	800e390 <_printf_i+0xc8>
 800e388:	232d      	movs	r3, #45	; 0x2d
 800e38a:	4276      	negs	r6, r6
 800e38c:	f884 3043 	strb.w	r3, [r4, #67]	; 0x43
 800e390:	485e      	ldr	r0, [pc, #376]	; (800e50c <_printf_i+0x244>)
 800e392:	230a      	movs	r3, #10
 800e394:	e019      	b.n	800e3ca <_printf_i+0x102>
 800e396:	680e      	ldr	r6, [r1, #0]
 800e398:	602b      	str	r3, [r5, #0]
 800e39a:	f010 0f40 	tst.w	r0, #64	; 0x40
 800e39e:	bf18      	it	ne
 800e3a0:	b236      	sxthne	r6, r6
 800e3a2:	e7ef      	b.n	800e384 <_printf_i+0xbc>
 800e3a4:	682b      	ldr	r3, [r5, #0]
 800e3a6:	6820      	ldr	r0, [r4, #0]
 800e3a8:	1d19      	adds	r1, r3, #4
 800e3aa:	6029      	str	r1, [r5, #0]
 800e3ac:	0601      	lsls	r1, r0, #24
 800e3ae:	d501      	bpl.n	800e3b4 <_printf_i+0xec>
 800e3b0:	681e      	ldr	r6, [r3, #0]
 800e3b2:	e002      	b.n	800e3ba <_printf_i+0xf2>
 800e3b4:	0646      	lsls	r6, r0, #25
 800e3b6:	d5fb      	bpl.n	800e3b0 <_printf_i+0xe8>
 800e3b8:	881e      	ldrh	r6, [r3, #0]
 800e3ba:	4854      	ldr	r0, [pc, #336]	; (800e50c <_printf_i+0x244>)
 800e3bc:	2f6f      	cmp	r7, #111	; 0x6f
 800e3be:	bf0c      	ite	eq
 800e3c0:	2308      	moveq	r3, #8
 800e3c2:	230a      	movne	r3, #10
 800e3c4:	2100      	movs	r1, #0
 800e3c6:	f884 1043 	strb.w	r1, [r4, #67]	; 0x43
 800e3ca:	6865      	ldr	r5, [r4, #4]
 800e3cc:	60a5      	str	r5, [r4, #8]
 800e3ce:	2d00      	cmp	r5, #0
 800e3d0:	bfa2      	ittt	ge
 800e3d2:	6821      	ldrge	r1, [r4, #0]
 800e3d4:	f021 0104 	bicge.w	r1, r1, #4
 800e3d8:	6021      	strge	r1, [r4, #0]
 800e3da:	b90e      	cbnz	r6, 800e3e0 <_printf_i+0x118>
 800e3dc:	2d00      	cmp	r5, #0
 800e3de:	d04d      	beq.n	800e47c <_printf_i+0x1b4>
 800e3e0:	4615      	mov	r5, r2
 800e3e2:	fbb6 f1f3 	udiv	r1, r6, r3
 800e3e6:	fb03 6711 	mls	r7, r3, r1, r6
 800e3ea:	5dc7      	ldrb	r7, [r0, r7]
 800e3ec:	f805 7d01 	strb.w	r7, [r5, #-1]!
 800e3f0:	4637      	mov	r7, r6
 800e3f2:	42bb      	cmp	r3, r7
 800e3f4:	460e      	mov	r6, r1
 800e3f6:	d9f4      	bls.n	800e3e2 <_printf_i+0x11a>
 800e3f8:	2b08      	cmp	r3, #8
 800e3fa:	d10b      	bne.n	800e414 <_printf_i+0x14c>
 800e3fc:	6823      	ldr	r3, [r4, #0]
 800e3fe:	07de      	lsls	r6, r3, #31
 800e400:	d508      	bpl.n	800e414 <_printf_i+0x14c>
 800e402:	6923      	ldr	r3, [r4, #16]
 800e404:	6861      	ldr	r1, [r4, #4]
 800e406:	4299      	cmp	r1, r3
 800e408:	bfde      	ittt	le
 800e40a:	2330      	movle	r3, #48	; 0x30
 800e40c:	f805 3c01 	strble.w	r3, [r5, #-1]
 800e410:	f105 35ff 	addle.w	r5, r5, #4294967295
 800e414:	1b52      	subs	r2, r2, r5
 800e416:	6122      	str	r2, [r4, #16]
 800e418:	f8cd a000 	str.w	sl, [sp]
 800e41c:	464b      	mov	r3, r9
 800e41e:	aa03      	add	r2, sp, #12
 800e420:	4621      	mov	r1, r4
 800e422:	4640      	mov	r0, r8
 800e424:	f7ff fee2 	bl	800e1ec <_printf_common>
 800e428:	3001      	adds	r0, #1
 800e42a:	d14c      	bne.n	800e4c6 <_printf_i+0x1fe>
 800e42c:	f04f 30ff 	mov.w	r0, #4294967295
 800e430:	b004      	add	sp, #16
 800e432:	e8bd 87f0 	ldmia.w	sp!, {r4, r5, r6, r7, r8, r9, sl, pc}
 800e436:	4835      	ldr	r0, [pc, #212]	; (800e50c <_printf_i+0x244>)
 800e438:	f881 7045 	strb.w	r7, [r1, #69]	; 0x45
 800e43c:	6829      	ldr	r1, [r5, #0]
 800e43e:	6823      	ldr	r3, [r4, #0]
 800e440:	f851 6b04 	ldr.w	r6, [r1], #4
 800e444:	6029      	str	r1, [r5, #0]
 800e446:	061d      	lsls	r5, r3, #24
 800e448:	d514      	bpl.n	800e474 <_printf_i+0x1ac>
 800e44a:	07df      	lsls	r7, r3, #31
 800e44c:	bf44      	itt	mi
 800e44e:	f043 0320 	orrmi.w	r3, r3, #32
 800e452:	6023      	strmi	r3, [r4, #0]
 800e454:	b91e      	cbnz	r6, 800e45e <_printf_i+0x196>
 800e456:	6823      	ldr	r3, [r4, #0]
 800e458:	f023 0320 	bic.w	r3, r3, #32
 800e45c:	6023      	str	r3, [r4, #0]
 800e45e:	2310      	movs	r3, #16
 800e460:	e7b0      	b.n	800e3c4 <_printf_i+0xfc>
 800e462:	6823      	ldr	r3, [r4, #0]
 800e464:	f043 0320 	orr.w	r3, r3, #32
 800e468:	6023      	str	r3, [r4, #0]
 800e46a:	2378      	movs	r3, #120	; 0x78
 800e46c:	4828      	ldr	r0, [pc, #160]	; (800e510 <_printf_i+0x248>)
 800e46e:	f884 3045 	strb.w	r3, [r4, #69]	; 0x45
 800e472:	e7e3      	b.n	800e43c <_printf_i+0x174>
 800e474:	0659      	lsls	r1, r3, #25
 800e476:	bf48      	it	mi
 800e478:	b2b6      	uxthmi	r6, r6
 800e47a:	e7e6      	b.n	800e44a <_printf_i+0x182>
 800e47c:	4615      	mov	r5, r2
 800e47e:	e7bb      	b.n	800e3f8 <_printf_i+0x130>
 800e480:	682b      	ldr	r3, [r5, #0]
 800e482:	6826      	ldr	r6, [r4, #0]
 800e484:	6961      	ldr	r1, [r4, #20]
 800e486:	1d18      	adds	r0, r3, #4
 800e488:	6028      	str	r0, [r5, #0]
 800e48a:	0635      	lsls	r5, r6, #24
 800e48c:	681b      	ldr	r3, [r3, #0]
 800e48e:	d501      	bpl.n	800e494 <_printf_i+0x1cc>
 800e490:	6019      	str	r1, [r3, #0]
 800e492:	e002      	b.n	800e49a <_printf_i+0x1d2>
 800e494:	0670      	lsls	r0, r6, #25
 800e496:	d5fb      	bpl.n	800e490 <_printf_i+0x1c8>
 800e498:	8019      	strh	r1, [r3, #0]
 800e49a:	2300      	movs	r3, #0
 800e49c:	6123      	str	r3, [r4, #16]
 800e49e:	4615      	mov	r5, r2
 800e4a0:	e7ba      	b.n	800e418 <_printf_i+0x150>
 800e4a2:	682b      	ldr	r3, [r5, #0]
 800e4a4:	1d1a      	adds	r2, r3, #4
 800e4a6:	602a      	str	r2, [r5, #0]
 800e4a8:	681d      	ldr	r5, [r3, #0]
 800e4aa:	6862      	ldr	r2, [r4, #4]
 800e4ac:	2100      	movs	r1, #0
 800e4ae:	4628      	mov	r0, r5
 800e4b0:	f7f1 fe6e 	bl	8000190 <memchr>
 800e4b4:	b108      	cbz	r0, 800e4ba <_printf_i+0x1f2>
 800e4b6:	1b40      	subs	r0, r0, r5
 800e4b8:	6060      	str	r0, [r4, #4]
 800e4ba:	6863      	ldr	r3, [r4, #4]
 800e4bc:	6123      	str	r3, [r4, #16]
 800e4be:	2300      	movs	r3, #0
 800e4c0:	f884 3043 	strb.w	r3, [r4, #67]	; 0x43
 800e4c4:	e7a8      	b.n	800e418 <_printf_i+0x150>
 800e4c6:	6923      	ldr	r3, [r4, #16]
 800e4c8:	462a      	mov	r2, r5
 800e4ca:	4649      	mov	r1, r9
 800e4cc:	4640      	mov	r0, r8
 800e4ce:	47d0      	blx	sl
 800e4d0:	3001      	adds	r0, #1
 800e4d2:	d0ab      	beq.n	800e42c <_printf_i+0x164>
 800e4d4:	6823      	ldr	r3, [r4, #0]
 800e4d6:	079b      	lsls	r3, r3, #30
 800e4d8:	d413      	bmi.n	800e502 <_printf_i+0x23a>
 800e4da:	68e0      	ldr	r0, [r4, #12]
 800e4dc:	9b03      	ldr	r3, [sp, #12]
 800e4de:	4298      	cmp	r0, r3
 800e4e0:	bfb8      	it	lt
 800e4e2:	4618      	movlt	r0, r3
 800e4e4:	e7a4      	b.n	800e430 <_printf_i+0x168>
 800e4e6:	2301      	movs	r3, #1
 800e4e8:	4632      	mov	r2, r6
 800e4ea:	4649      	mov	r1, r9
 800e4ec:	4640      	mov	r0, r8
 800e4ee:	47d0      	blx	sl
 800e4f0:	3001      	adds	r0, #1
 800e4f2:	d09b      	beq.n	800e42c <_printf_i+0x164>
 800e4f4:	3501      	adds	r5, #1
 800e4f6:	68e3      	ldr	r3, [r4, #12]
 800e4f8:	9903      	ldr	r1, [sp, #12]
 800e4fa:	1a5b      	subs	r3, r3, r1
 800e4fc:	42ab      	cmp	r3, r5
 800e4fe:	dcf2      	bgt.n	800e4e6 <_printf_i+0x21e>
 800e500:	e7eb      	b.n	800e4da <_printf_i+0x212>
 800e502:	2500      	movs	r5, #0
 800e504:	f104 0619 	add.w	r6, r4, #25
 800e508:	e7f5      	b.n	800e4f6 <_printf_i+0x22e>
 800e50a:	bf00      	nop
 800e50c:	0800efe6 	.word	0x0800efe6
 800e510:	0800eff7 	.word	0x0800eff7

0800e514 <memcpy>:
 800e514:	440a      	add	r2, r1
 800e516:	4291      	cmp	r1, r2
 800e518:	f100 33ff 	add.w	r3, r0, #4294967295
 800e51c:	d100      	bne.n	800e520 <memcpy+0xc>
 800e51e:	4770      	bx	lr
 800e520:	b510      	push	{r4, lr}
 800e522:	f811 4b01 	ldrb.w	r4, [r1], #1
 800e526:	f803 4f01 	strb.w	r4, [r3, #1]!
 800e52a:	4291      	cmp	r1, r2
 800e52c:	d1f9      	bne.n	800e522 <memcpy+0xe>
 800e52e:	bd10      	pop	{r4, pc}

0800e530 <memmove>:
 800e530:	4288      	cmp	r0, r1
 800e532:	b510      	push	{r4, lr}
 800e534:	eb01 0402 	add.w	r4, r1, r2
 800e538:	d902      	bls.n	800e540 <memmove+0x10>
 800e53a:	4284      	cmp	r4, r0
 800e53c:	4623      	mov	r3, r4
 800e53e:	d807      	bhi.n	800e550 <memmove+0x20>
 800e540:	1e43      	subs	r3, r0, #1
 800e542:	42a1      	cmp	r1, r4
 800e544:	d008      	beq.n	800e558 <memmove+0x28>
 800e546:	f811 2b01 	ldrb.w	r2, [r1], #1
 800e54a:	f803 2f01 	strb.w	r2, [r3, #1]!
 800e54e:	e7f8      	b.n	800e542 <memmove+0x12>
 800e550:	4402      	add	r2, r0
 800e552:	4601      	mov	r1, r0
 800e554:	428a      	cmp	r2, r1
 800e556:	d100      	bne.n	800e55a <memmove+0x2a>
 800e558:	bd10      	pop	{r4, pc}
 800e55a:	f813 4d01 	ldrb.w	r4, [r3, #-1]!
 800e55e:	f802 4d01 	strb.w	r4, [r2, #-1]!
 800e562:	e7f7      	b.n	800e554 <memmove+0x24>

0800e564 <_free_r>:
 800e564:	b538      	push	{r3, r4, r5, lr}
 800e566:	4605      	mov	r5, r0
 800e568:	2900      	cmp	r1, #0
 800e56a:	d041      	beq.n	800e5f0 <_free_r+0x8c>
 800e56c:	f851 3c04 	ldr.w	r3, [r1, #-4]
 800e570:	1f0c      	subs	r4, r1, #4
 800e572:	2b00      	cmp	r3, #0
 800e574:	bfb8      	it	lt
 800e576:	18e4      	addlt	r4, r4, r3
 800e578:	f000 f912 	bl	800e7a0 <__malloc_lock>
 800e57c:	4a1d      	ldr	r2, [pc, #116]	; (800e5f4 <_free_r+0x90>)
 800e57e:	6813      	ldr	r3, [r2, #0]
 800e580:	b933      	cbnz	r3, 800e590 <_free_r+0x2c>
 800e582:	6063      	str	r3, [r4, #4]
 800e584:	6014      	str	r4, [r2, #0]
 800e586:	4628      	mov	r0, r5
 800e588:	e8bd 4038 	ldmia.w	sp!, {r3, r4, r5, lr}
 800e58c:	f000 b90e 	b.w	800e7ac <__malloc_unlock>
 800e590:	42a3      	cmp	r3, r4
 800e592:	d908      	bls.n	800e5a6 <_free_r+0x42>
 800e594:	6820      	ldr	r0, [r4, #0]
 800e596:	1821      	adds	r1, r4, r0
 800e598:	428b      	cmp	r3, r1
 800e59a:	bf01      	itttt	eq
 800e59c:	6819      	ldreq	r1, [r3, #0]
 800e59e:	685b      	ldreq	r3, [r3, #4]
 800e5a0:	1809      	addeq	r1, r1, r0
 800e5a2:	6021      	streq	r1, [r4, #0]
 800e5a4:	e7ed      	b.n	800e582 <_free_r+0x1e>
 800e5a6:	461a      	mov	r2, r3
 800e5a8:	685b      	ldr	r3, [r3, #4]
 800e5aa:	b10b      	cbz	r3, 800e5b0 <_free_r+0x4c>
 800e5ac:	42a3      	cmp	r3, r4
 800e5ae:	d9fa      	bls.n	800e5a6 <_free_r+0x42>
 800e5b0:	6811      	ldr	r1, [r2, #0]
 800e5b2:	1850      	adds	r0, r2, r1
 800e5b4:	42a0      	cmp	r0, r4
 800e5b6:	d10b      	bne.n	800e5d0 <_free_r+0x6c>
 800e5b8:	6820      	ldr	r0, [r4, #0]
 800e5ba:	4401      	add	r1, r0
 800e5bc:	1850      	adds	r0, r2, r1
 800e5be:	4283      	cmp	r3, r0
 800e5c0:	6011      	str	r1, [r2, #0]
 800e5c2:	d1e0      	bne.n	800e586 <_free_r+0x22>
 800e5c4:	6818      	ldr	r0, [r3, #0]
 800e5c6:	685b      	ldr	r3, [r3, #4]
 800e5c8:	6053      	str	r3, [r2, #4]
 800e5ca:	4401      	add	r1, r0
 800e5cc:	6011      	str	r1, [r2, #0]
 800e5ce:	e7da      	b.n	800e586 <_free_r+0x22>
 800e5d0:	d902      	bls.n	800e5d8 <_free_r+0x74>
 800e5d2:	230c      	movs	r3, #12
 800e5d4:	602b      	str	r3, [r5, #0]
 800e5d6:	e7d6      	b.n	800e586 <_free_r+0x22>
 800e5d8:	6820      	ldr	r0, [r4, #0]
 800e5da:	1821      	adds	r1, r4, r0
 800e5dc:	428b      	cmp	r3, r1
 800e5de:	bf04      	itt	eq
 800e5e0:	6819      	ldreq	r1, [r3, #0]
 800e5e2:	685b      	ldreq	r3, [r3, #4]
 800e5e4:	6063      	str	r3, [r4, #4]
 800e5e6:	bf04      	itt	eq
 800e5e8:	1809      	addeq	r1, r1, r0
 800e5ea:	6021      	streq	r1, [r4, #0]
 800e5ec:	6054      	str	r4, [r2, #4]
 800e5ee:	e7ca      	b.n	800e586 <_free_r+0x22>
 800e5f0:	bd38      	pop	{r3, r4, r5, pc}
 800e5f2:	bf00      	nop
 800e5f4:	200020a0 	.word	0x200020a0

0800e5f8 <sbrk_aligned>:
 800e5f8:	b570      	push	{r4, r5, r6, lr}
 800e5fa:	4e0e      	ldr	r6, [pc, #56]	; (800e634 <sbrk_aligned+0x3c>)
 800e5fc:	460c      	mov	r4, r1
 800e5fe:	6831      	ldr	r1, [r6, #0]
 800e600:	4605      	mov	r5, r0
 800e602:	b911      	cbnz	r1, 800e60a <sbrk_aligned+0x12>
 800e604:	f000 f8bc 	bl	800e780 <_sbrk_r>
 800e608:	6030      	str	r0, [r6, #0]
 800e60a:	4621      	mov	r1, r4
 800e60c:	4628      	mov	r0, r5
 800e60e:	f000 f8b7 	bl	800e780 <_sbrk_r>
 800e612:	1c43      	adds	r3, r0, #1
 800e614:	d00a      	beq.n	800e62c <sbrk_aligned+0x34>
 800e616:	1cc4      	adds	r4, r0, #3
 800e618:	f024 0403 	bic.w	r4, r4, #3
 800e61c:	42a0      	cmp	r0, r4
 800e61e:	d007      	beq.n	800e630 <sbrk_aligned+0x38>
 800e620:	1a21      	subs	r1, r4, r0
 800e622:	4628      	mov	r0, r5
 800e624:	f000 f8ac 	bl	800e780 <_sbrk_r>
 800e628:	3001      	adds	r0, #1
 800e62a:	d101      	bne.n	800e630 <sbrk_aligned+0x38>
 800e62c:	f04f 34ff 	mov.w	r4, #4294967295
 800e630:	4620      	mov	r0, r4
 800e632:	bd70      	pop	{r4, r5, r6, pc}
 800e634:	200020a4 	.word	0x200020a4

0800e638 <_malloc_r>:
 800e638:	e92d 41f0 	stmdb	sp!, {r4, r5, r6, r7, r8, lr}
 800e63c:	1ccd      	adds	r5, r1, #3
 800e63e:	f025 0503 	bic.w	r5, r5, #3
 800e642:	3508      	adds	r5, #8
 800e644:	2d0c      	cmp	r5, #12
 800e646:	bf38      	it	cc
 800e648:	250c      	movcc	r5, #12
 800e64a:	2d00      	cmp	r5, #0
 800e64c:	4607      	mov	r7, r0
 800e64e:	db01      	blt.n	800e654 <_malloc_r+0x1c>
 800e650:	42a9      	cmp	r1, r5
 800e652:	d905      	bls.n	800e660 <_malloc_r+0x28>
 800e654:	230c      	movs	r3, #12
 800e656:	603b      	str	r3, [r7, #0]
 800e658:	2600      	movs	r6, #0
 800e65a:	4630      	mov	r0, r6
 800e65c:	e8bd 81f0 	ldmia.w	sp!, {r4, r5, r6, r7, r8, pc}
 800e660:	4e2e      	ldr	r6, [pc, #184]	; (800e71c <_malloc_r+0xe4>)
 800e662:	f000 f89d 	bl	800e7a0 <__malloc_lock>
 800e666:	6833      	ldr	r3, [r6, #0]
 800e668:	461c      	mov	r4, r3
 800e66a:	bb34      	cbnz	r4, 800e6ba <_malloc_r+0x82>
 800e66c:	4629      	mov	r1, r5
 800e66e:	4638      	mov	r0, r7
 800e670:	f7ff ffc2 	bl	800e5f8 <sbrk_aligned>
 800e674:	1c43      	adds	r3, r0, #1
 800e676:	4604      	mov	r4, r0
 800e678:	d14d      	bne.n	800e716 <_malloc_r+0xde>
 800e67a:	6834      	ldr	r4, [r6, #0]
 800e67c:	4626      	mov	r6, r4
 800e67e:	2e00      	cmp	r6, #0
 800e680:	d140      	bne.n	800e704 <_malloc_r+0xcc>
 800e682:	6823      	ldr	r3, [r4, #0]
 800e684:	4631      	mov	r1, r6
 800e686:	4638      	mov	r0, r7
 800e688:	eb04 0803 	add.w	r8, r4, r3
 800e68c:	f000 f878 	bl	800e780 <_sbrk_r>
 800e690:	4580      	cmp	r8, r0
 800e692:	d13a      	bne.n	800e70a <_malloc_r+0xd2>
 800e694:	6821      	ldr	r1, [r4, #0]
 800e696:	3503      	adds	r5, #3
 800e698:	1a6d      	subs	r5, r5, r1
 800e69a:	f025 0503 	bic.w	r5, r5, #3
 800e69e:	3508      	adds	r5, #8
 800e6a0:	2d0c      	cmp	r5, #12
 800e6a2:	bf38      	it	cc
 800e6a4:	250c      	movcc	r5, #12
 800e6a6:	4629      	mov	r1, r5
 800e6a8:	4638      	mov	r0, r7
 800e6aa:	f7ff ffa5 	bl	800e5f8 <sbrk_aligned>
 800e6ae:	3001      	adds	r0, #1
 800e6b0:	d02b      	beq.n	800e70a <_malloc_r+0xd2>
 800e6b2:	6823      	ldr	r3, [r4, #0]
 800e6b4:	442b      	add	r3, r5
 800e6b6:	6023      	str	r3, [r4, #0]
 800e6b8:	e00e      	b.n	800e6d8 <_malloc_r+0xa0>
 800e6ba:	6822      	ldr	r2, [r4, #0]
 800e6bc:	1b52      	subs	r2, r2, r5
 800e6be:	d41e      	bmi.n	800e6fe <_malloc_r+0xc6>
 800e6c0:	2a0b      	cmp	r2, #11
 800e6c2:	d916      	bls.n	800e6f2 <_malloc_r+0xba>
 800e6c4:	1961      	adds	r1, r4, r5
 800e6c6:	42a3      	cmp	r3, r4
 800e6c8:	6025      	str	r5, [r4, #0]
 800e6ca:	bf18      	it	ne
 800e6cc:	6059      	strne	r1, [r3, #4]
 800e6ce:	6863      	ldr	r3, [r4, #4]
 800e6d0:	bf08      	it	eq
 800e6d2:	6031      	streq	r1, [r6, #0]
 800e6d4:	5162      	str	r2, [r4, r5]
 800e6d6:	604b      	str	r3, [r1, #4]
 800e6d8:	4638      	mov	r0, r7
 800e6da:	f104 060b 	add.w	r6, r4, #11
 800e6de:	f000 f865 	bl	800e7ac <__malloc_unlock>
 800e6e2:	f026 0607 	bic.w	r6, r6, #7
 800e6e6:	1d23      	adds	r3, r4, #4
 800e6e8:	1af2      	subs	r2, r6, r3
 800e6ea:	d0b6      	beq.n	800e65a <_malloc_r+0x22>
 800e6ec:	1b9b      	subs	r3, r3, r6
 800e6ee:	50a3      	str	r3, [r4, r2]
 800e6f0:	e7b3      	b.n	800e65a <_malloc_r+0x22>
 800e6f2:	6862      	ldr	r2, [r4, #4]
 800e6f4:	42a3      	cmp	r3, r4
 800e6f6:	bf0c      	ite	eq
 800e6f8:	6032      	streq	r2, [r6, #0]
 800e6fa:	605a      	strne	r2, [r3, #4]
 800e6fc:	e7ec      	b.n	800e6d8 <_malloc_r+0xa0>
 800e6fe:	4623      	mov	r3, r4
 800e700:	6864      	ldr	r4, [r4, #4]
 800e702:	e7b2      	b.n	800e66a <_malloc_r+0x32>
 800e704:	4634      	mov	r4, r6
 800e706:	6876      	ldr	r6, [r6, #4]
 800e708:	e7b9      	b.n	800e67e <_malloc_r+0x46>
 800e70a:	230c      	movs	r3, #12
 800e70c:	603b      	str	r3, [r7, #0]
 800e70e:	4638      	mov	r0, r7
 800e710:	f000 f84c 	bl	800e7ac <__malloc_unlock>
 800e714:	e7a1      	b.n	800e65a <_malloc_r+0x22>
 800e716:	6025      	str	r5, [r4, #0]
 800e718:	e7de      	b.n	800e6d8 <_malloc_r+0xa0>
 800e71a:	bf00      	nop
 800e71c:	200020a0 	.word	0x200020a0

0800e720 <_realloc_r>:
 800e720:	e92d 41f0 	stmdb	sp!, {r4, r5, r6, r7, r8, lr}
 800e724:	4680      	mov	r8, r0
 800e726:	4614      	mov	r4, r2
 800e728:	460e      	mov	r6, r1
 800e72a:	b921      	cbnz	r1, 800e736 <_realloc_r+0x16>
 800e72c:	e8bd 41f0 	ldmia.w	sp!, {r4, r5, r6, r7, r8, lr}
 800e730:	4611      	mov	r1, r2
 800e732:	f7ff bf81 	b.w	800e638 <_malloc_r>
 800e736:	b92a      	cbnz	r2, 800e744 <_realloc_r+0x24>
 800e738:	f7ff ff14 	bl	800e564 <_free_r>
 800e73c:	4625      	mov	r5, r4
 800e73e:	4628      	mov	r0, r5
 800e740:	e8bd 81f0 	ldmia.w	sp!, {r4, r5, r6, r7, r8, pc}
 800e744:	f000 f838 	bl	800e7b8 <_malloc_usable_size_r>
 800e748:	4284      	cmp	r4, r0
 800e74a:	4607      	mov	r7, r0
 800e74c:	d802      	bhi.n	800e754 <_realloc_r+0x34>
 800e74e:	ebb4 0f50 	cmp.w	r4, r0, lsr #1
 800e752:	d812      	bhi.n	800e77a <_realloc_r+0x5a>
 800e754:	4621      	mov	r1, r4
 800e756:	4640      	mov	r0, r8
 800e758:	f7ff ff6e 	bl	800e638 <_malloc_r>
 800e75c:	4605      	mov	r5, r0
 800e75e:	2800      	cmp	r0, #0
 800e760:	d0ed      	beq.n	800e73e <_realloc_r+0x1e>
 800e762:	42bc      	cmp	r4, r7
 800e764:	4622      	mov	r2, r4
 800e766:	4631      	mov	r1, r6
 800e768:	bf28      	it	cs
 800e76a:	463a      	movcs	r2, r7
 800e76c:	f7ff fed2 	bl	800e514 <memcpy>
 800e770:	4631      	mov	r1, r6
 800e772:	4640      	mov	r0, r8
 800e774:	f7ff fef6 	bl	800e564 <_free_r>
 800e778:	e7e1      	b.n	800e73e <_realloc_r+0x1e>
 800e77a:	4635      	mov	r5, r6
 800e77c:	e7df      	b.n	800e73e <_realloc_r+0x1e>
	...

0800e780 <_sbrk_r>:
 800e780:	b538      	push	{r3, r4, r5, lr}
 800e782:	4d06      	ldr	r5, [pc, #24]	; (800e79c <_sbrk_r+0x1c>)
 800e784:	2300      	movs	r3, #0
 800e786:	4604      	mov	r4, r0
 800e788:	4608      	mov	r0, r1
 800e78a:	602b      	str	r3, [r5, #0]
 800e78c:	f000 f8a0 	bl	800e8d0 <_sbrk>
 800e790:	1c43      	adds	r3, r0, #1
 800e792:	d102      	bne.n	800e79a <_sbrk_r+0x1a>
 800e794:	682b      	ldr	r3, [r5, #0]
 800e796:	b103      	cbz	r3, 800e79a <_sbrk_r+0x1a>
 800e798:	6023      	str	r3, [r4, #0]
 800e79a:	bd38      	pop	{r3, r4, r5, pc}
 800e79c:	200020a8 	.word	0x200020a8

0800e7a0 <__malloc_lock>:
 800e7a0:	4801      	ldr	r0, [pc, #4]	; (800e7a8 <__malloc_lock+0x8>)
 800e7a2:	f000 b811 	b.w	800e7c8 <__retarget_lock_acquire_recursive>
 800e7a6:	bf00      	nop
 800e7a8:	200020ac 	.word	0x200020ac

0800e7ac <__malloc_unlock>:
 800e7ac:	4801      	ldr	r0, [pc, #4]	; (800e7b4 <__malloc_unlock+0x8>)
 800e7ae:	f000 b80c 	b.w	800e7ca <__retarget_lock_release_recursive>
 800e7b2:	bf00      	nop
 800e7b4:	200020ac 	.word	0x200020ac

0800e7b8 <_malloc_usable_size_r>:
 800e7b8:	f851 3c04 	ldr.w	r3, [r1, #-4]
 800e7bc:	1f18      	subs	r0, r3, #4
 800e7be:	2b00      	cmp	r3, #0
 800e7c0:	bfbc      	itt	lt
 800e7c2:	580b      	ldrlt	r3, [r1, r0]
 800e7c4:	18c0      	addlt	r0, r0, r3
 800e7c6:	4770      	bx	lr

0800e7c8 <__retarget_lock_acquire_recursive>:
 800e7c8:	4770      	bx	lr

0800e7ca <__retarget_lock_release_recursive>:
 800e7ca:	4770      	bx	lr
 800e7cc:	0000      	movs	r0, r0
	...

0800e7d0 <floor>:
 800e7d0:	e92d 43f8 	stmdb	sp!, {r3, r4, r5, r6, r7, r8, r9, lr}
 800e7d4:	f3c1 580a 	ubfx	r8, r1, #20, #11
 800e7d8:	f2a8 36ff 	subw	r6, r8, #1023	; 0x3ff
 800e7dc:	2e13      	cmp	r6, #19
 800e7de:	4602      	mov	r2, r0
 800e7e0:	460b      	mov	r3, r1
 800e7e2:	4607      	mov	r7, r0
 800e7e4:	460c      	mov	r4, r1
 800e7e6:	4605      	mov	r5, r0
 800e7e8:	dc33      	bgt.n	800e852 <floor+0x82>
 800e7ea:	2e00      	cmp	r6, #0
 800e7ec:	da14      	bge.n	800e818 <floor+0x48>
 800e7ee:	a334      	add	r3, pc, #208	; (adr r3, 800e8c0 <floor+0xf0>)
 800e7f0:	e9d3 2300 	ldrd	r2, r3, [r3]
 800e7f4:	f7f1 fd22 	bl	800023c <__adddf3>
 800e7f8:	2200      	movs	r2, #0
 800e7fa:	2300      	movs	r3, #0
 800e7fc:	f7f1 ff52 	bl	80006a4 <__aeabi_dcmpgt>
 800e800:	b138      	cbz	r0, 800e812 <floor+0x42>
 800e802:	2c00      	cmp	r4, #0
 800e804:	da58      	bge.n	800e8b8 <floor+0xe8>
 800e806:	f024 4300 	bic.w	r3, r4, #2147483648	; 0x80000000
 800e80a:	431d      	orrs	r5, r3
 800e80c:	d001      	beq.n	800e812 <floor+0x42>
 800e80e:	4c2e      	ldr	r4, [pc, #184]	; (800e8c8 <floor+0xf8>)
 800e810:	2500      	movs	r5, #0
 800e812:	4623      	mov	r3, r4
 800e814:	462f      	mov	r7, r5
 800e816:	e025      	b.n	800e864 <floor+0x94>
 800e818:	4a2c      	ldr	r2, [pc, #176]	; (800e8cc <floor+0xfc>)
 800e81a:	fa42 f806 	asr.w	r8, r2, r6
 800e81e:	ea01 0208 	and.w	r2, r1, r8
 800e822:	4302      	orrs	r2, r0
 800e824:	d01e      	beq.n	800e864 <floor+0x94>
 800e826:	a326      	add	r3, pc, #152	; (adr r3, 800e8c0 <floor+0xf0>)
 800e828:	e9d3 2300 	ldrd	r2, r3, [r3]
 800e82c:	f7f1 fd06 	bl	800023c <__adddf3>
 800e830:	2200      	movs	r2, #0
 800e832:	2300      	movs	r3, #0
 800e834:	f7f1 ff36 	bl	80006a4 <__aeabi_dcmpgt>
 800e838:	2800      	cmp	r0, #0
 800e83a:	d0ea      	beq.n	800e812 <floor+0x42>
 800e83c:	2c00      	cmp	r4, #0
 800e83e:	bfbe      	ittt	lt
 800e840:	f44f 1380 	movlt.w	r3, #1048576	; 0x100000
 800e844:	fa43 f606 	asrlt.w	r6, r3, r6
 800e848:	19a4      	addlt	r4, r4, r6
 800e84a:	ea24 0408 	bic.w	r4, r4, r8
 800e84e:	2500      	movs	r5, #0
 800e850:	e7df      	b.n	800e812 <floor+0x42>
 800e852:	2e33      	cmp	r6, #51	; 0x33
 800e854:	dd0a      	ble.n	800e86c <floor+0x9c>
 800e856:	f5b6 6f80 	cmp.w	r6, #1024	; 0x400
 800e85a:	d103      	bne.n	800e864 <floor+0x94>
 800e85c:	f7f1 fcee 	bl	800023c <__adddf3>
 800e860:	4607      	mov	r7, r0
 800e862:	460b      	mov	r3, r1
 800e864:	4638      	mov	r0, r7
 800e866:	4619      	mov	r1, r3
 800e868:	e8bd 83f8 	ldmia.w	sp!, {r3, r4, r5, r6, r7, r8, r9, pc}
 800e86c:	f2a8 4813 	subw	r8, r8, #1043	; 0x413
 800e870:	f04f 32ff 	mov.w	r2, #4294967295
 800e874:	fa22 f808 	lsr.w	r8, r2, r8
 800e878:	ea18 0f00 	tst.w	r8, r0
 800e87c:	d0f2      	beq.n	800e864 <floor+0x94>
 800e87e:	a310      	add	r3, pc, #64	; (adr r3, 800e8c0 <floor+0xf0>)
 800e880:	e9d3 2300 	ldrd	r2, r3, [r3]
 800e884:	f7f1 fcda 	bl	800023c <__adddf3>
 800e888:	2200      	movs	r2, #0
 800e88a:	2300      	movs	r3, #0
 800e88c:	f7f1 ff0a 	bl	80006a4 <__aeabi_dcmpgt>
 800e890:	2800      	cmp	r0, #0
 800e892:	d0be      	beq.n	800e812 <floor+0x42>
 800e894:	2c00      	cmp	r4, #0
 800e896:	da02      	bge.n	800e89e <floor+0xce>
 800e898:	2e14      	cmp	r6, #20
 800e89a:	d103      	bne.n	800e8a4 <floor+0xd4>
 800e89c:	3401      	adds	r4, #1
 800e89e:	ea25 0508 	bic.w	r5, r5, r8
 800e8a2:	e7b6      	b.n	800e812 <floor+0x42>
 800e8a4:	2301      	movs	r3, #1
 800e8a6:	f1c6 0634 	rsb	r6, r6, #52	; 0x34
 800e8aa:	fa03 f606 	lsl.w	r6, r3, r6
 800e8ae:	4435      	add	r5, r6
 800e8b0:	42bd      	cmp	r5, r7
 800e8b2:	bf38      	it	cc
 800e8b4:	18e4      	addcc	r4, r4, r3
 800e8b6:	e7f2      	b.n	800e89e <floor+0xce>
 800e8b8:	2500      	movs	r5, #0
 800e8ba:	462c      	mov	r4, r5
 800e8bc:	e7a9      	b.n	800e812 <floor+0x42>
 800e8be:	bf00      	nop
 800e8c0:	8800759c 	.word	0x8800759c
 800e8c4:	7e37e43c 	.word	0x7e37e43c
 800e8c8:	bff00000 	.word	0xbff00000
 800e8cc:	000fffff 	.word	0x000fffff

0800e8d0 <_sbrk>:
 800e8d0:	4a04      	ldr	r2, [pc, #16]	; (800e8e4 <_sbrk+0x14>)
 800e8d2:	6811      	ldr	r1, [r2, #0]
 800e8d4:	4603      	mov	r3, r0
 800e8d6:	b909      	cbnz	r1, 800e8dc <_sbrk+0xc>
 800e8d8:	4903      	ldr	r1, [pc, #12]	; (800e8e8 <_sbrk+0x18>)
 800e8da:	6011      	str	r1, [r2, #0]
 800e8dc:	6810      	ldr	r0, [r2, #0]
 800e8de:	4403      	add	r3, r0
 800e8e0:	6013      	str	r3, [r2, #0]
 800e8e2:	4770      	bx	lr
 800e8e4:	200020b0 	.word	0x200020b0
 800e8e8:	200020b8 	.word	0x200020b8

0800e8ec <_init>:
 800e8ec:	b5f8      	push	{r3, r4, r5, r6, r7, lr}
 800e8ee:	bf00      	nop
 800e8f0:	bcf8      	pop	{r3, r4, r5, r6, r7}
 800e8f2:	bc08      	pop	{r3}
 800e8f4:	469e      	mov	lr, r3
 800e8f6:	4770      	bx	lr

0800e8f8 <_fini>:
 800e8f8:	b5f8      	push	{r3, r4, r5, r6, r7, lr}
 800e8fa:	bf00      	nop
 800e8fc:	bcf8      	pop	{r3, r4, r5, r6, r7}
 800e8fe:	bc08      	pop	{r3}
 800e900:	469e      	mov	lr, r3
 800e902:	4770      	bx	lr
